
ChasingLED.elf:     file format elf32-littlenios2
ChasingLED.elf
architecture: nios2:r1, flags 0x00000112:
EXEC_P, HAS_SYMS, D_PAGED
start address 0x01420020

Program Header:
    LOAD off    0x00001000 vaddr 0x01420000 paddr 0x01420000 align 2**12
         filesz 0x00000020 memsz 0x00000020 flags r-x
    LOAD off    0x00001020 vaddr 0x01420020 paddr 0x01420020 align 2**12
         filesz 0x0000dfe8 memsz 0x0000dfe8 flags r-x
    LOAD off    0x0000f008 vaddr 0x0142e008 paddr 0x0142ea30 align 2**12
         filesz 0x00000a28 memsz 0x00000a28 flags rw-
    LOAD off    0x00010458 vaddr 0x0142f458 paddr 0x0142f458 align 2**12
         filesz 0x00000000 memsz 0x000000dc flags rw-

Sections:
Idx Name          Size      VMA       LMA       File off  Algn
  0 .entry        00000020  01420000  01420000  00001000  2**5
                  CONTENTS, ALLOC, LOAD, READONLY, CODE
  1 .exceptions   00000000  01420020  01420020  0000fa30  2**0
                  CONTENTS
  2 .text         0000dbe0  01420020  01420020  00001020  2**2
                  CONTENTS, ALLOC, LOAD, READONLY, CODE
  3 .rodata       00000408  0142dc00  0142dc00  0000ec00  2**2
                  CONTENTS, ALLOC, LOAD, READONLY, DATA
  4 .rwdata       00000a28  0142e008  0142ea30  0000f008  2**2
                  CONTENTS, ALLOC, LOAD, DATA, SMALL_DATA
  5 .bss          000000dc  0142f458  0142f458  00010458  2**2
                  ALLOC, SMALL_DATA
  6 .onchip_flash_0_data 00000000  01200000  01200000  0000fa30  2**0
                  CONTENTS
  7 .onchip_memory2_0 00000000  0142f534  0142f534  0000fa30  2**0
                  CONTENTS
  8 .comment      00000023  00000000  00000000  0000fa30  2**0
                  CONTENTS, READONLY
  9 .debug_aranges 00000cc0  00000000  00000000  0000fa58  2**3
                  CONTENTS, READONLY, DEBUGGING
 10 .debug_info   0001adfa  00000000  00000000  00010718  2**0
                  CONTENTS, READONLY, DEBUGGING
 11 .debug_abbrev 000082f5  00000000  00000000  0002b512  2**0
                  CONTENTS, READONLY, DEBUGGING
 12 .debug_line   00009375  00000000  00000000  00033807  2**0
                  CONTENTS, READONLY, DEBUGGING
 13 .debug_frame  00002d04  00000000  00000000  0003cb7c  2**2
                  CONTENTS, READONLY, DEBUGGING
 14 .debug_str    00006360  00000000  00000000  0003f880  2**0
                  CONTENTS, READONLY, DEBUGGING
 15 .debug_loc    0000e81e  00000000  00000000  00045be0  2**0
                  CONTENTS, READONLY, DEBUGGING
 16 .debug_alt_sim_info 00000010  00000000  00000000  00054400  2**2
                  CONTENTS, READONLY, DEBUGGING
 17 .debug_ranges 00001610  00000000  00000000  00054410  2**3
                  CONTENTS, READONLY, DEBUGGING
 18 .thread_model 00000003  00000000  00000000  0005a888  2**0
                  CONTENTS, READONLY
 19 .cpu          0000000c  00000000  00000000  0005a88b  2**0
                  CONTENTS, READONLY
 20 .qsys         00000001  00000000  00000000  0005a897  2**0
                  CONTENTS, READONLY
 21 .simulation_enabled 00000001  00000000  00000000  0005a898  2**0
                  CONTENTS, READONLY
 22 .sysid_hash   00000004  00000000  00000000  0005a899  2**0
                  CONTENTS, READONLY
 23 .sysid_base   00000004  00000000  00000000  0005a89d  2**0
                  CONTENTS, READONLY
 24 .sysid_time   00000004  00000000  00000000  0005a8a1  2**0
                  CONTENTS, READONLY
 25 .stderr_dev   00000004  00000000  00000000  0005a8a5  2**0
                  CONTENTS, READONLY
 26 .stdin_dev    00000004  00000000  00000000  0005a8a9  2**0
                  CONTENTS, READONLY
 27 .stdout_dev   00000004  00000000  00000000  0005a8ad  2**0
                  CONTENTS, READONLY
 28 .sopc_system_name 00000009  00000000  00000000  0005a8b1  2**0
                  CONTENTS, READONLY
 29 .sopcinfo     0003a72a  00000000  00000000  0005a8ba  2**0
                  CONTENTS, READONLY
SYMBOL TABLE:
01420000 l    d  .entry	00000000 .entry
01420020 l    d  .exceptions	00000000 .exceptions
01420020 l    d  .text	00000000 .text
0142dc00 l    d  .rodata	00000000 .rodata
0142e008 l    d  .rwdata	00000000 .rwdata
0142f458 l    d  .bss	00000000 .bss
01200000 l    d  .onchip_flash_0_data	00000000 .onchip_flash_0_data
0142f534 l    d  .onchip_memory2_0	00000000 .onchip_memory2_0
00000000 l    d  .comment	00000000 .comment
00000000 l    d  .debug_aranges	00000000 .debug_aranges
00000000 l    d  .debug_info	00000000 .debug_info
00000000 l    d  .debug_abbrev	00000000 .debug_abbrev
00000000 l    d  .debug_line	00000000 .debug_line
00000000 l    d  .debug_frame	00000000 .debug_frame
00000000 l    d  .debug_str	00000000 .debug_str
00000000 l    d  .debug_loc	00000000 .debug_loc
00000000 l    d  .debug_alt_sim_info	00000000 .debug_alt_sim_info
00000000 l    d  .debug_ranges	00000000 .debug_ranges
00000000 l    df *ABS*	00000000 ../de10_bsp//obj/HAL/src/crt0.o
01420058 l       .text	00000000 alt_after_alt_main
00000000 l    df *ABS*	00000000 printf_fpro.c
014200c8 l     F .text	00000054 _out_buffer
0142011c l     F .text	00000034 _out_null
01420150 l     F .text	00000050 _out_char
014201a0 l     F .text	00000058 _out_fct
014201f8 l     F .text	0000005c _strlen
01420254 l     F .text	0000004c _is_digit
014202a0 l     F .text	0000009c _atoi
0142033c l     F .text	000003b4 _ntoa_format
014206f0 l     F .text	0000014c _ntoa_long
0142083c l     F .text	00000194 _ntoa_long_long
014209d0 l     F .text	0000069c _ftoa
0142dc00 l     O .rodata	00000050 pow10.1820
0142106c l     F .text	00001000 _vsnprintf
00000000 l    df *ABS*	00000000 adsr_core.cpp
00000000 l    df *ABS*	00000000 blink_soft.cpp
00000000 l    df *ABS*	00000000 chasing_leds.cpp
00000000 l    df *ABS*	00000000 chu_init.cpp
01423108 l     F .text	00000088 _Z41__static_initialization_and_destruction_0ii
01423190 l     F .text	00000030 _GLOBAL__sub_I__sys_timer
014231c0 l     F .text	00000030 _GLOBAL__sub_D__sys_timer
00000000 l    df *ABS*	00000000 ddfs_core.cpp
00000000 l    df *ABS*	00000000 de10_baseline.cpp
014236e0 l     F .text	00000174 _Z41__static_initialization_and_destruction_0ii
01423854 l     F .text	00000030 _GLOBAL__sub_I_led
01423884 l     F .text	00000030 _GLOBAL__sub_D_led
00000000 l    df *ABS*	00000000 gpio_cores.cpp
00000000 l    df *ABS*	00000000 madc_core.cpp
00000000 l    df *ABS*	00000000 rtttl.cpp
00000000 l    df *ABS*	00000000 sseg_core.cpp
0142dccf l     O .rodata	00000010 _ZZN8SsegCore3h2sEiE9PTN_TABLE
00000000 l    df *ABS*	00000000 timer_core.cpp
00000000 l    df *ABS*	00000000 uart_core.cpp
00000000 l    df *ABS*	00000000 ws2812_core.cpp
00000000 l    df *ABS*	00000000 eh_personality.cc
01425c34 l     F .text	000000a4 _ZL21size_of_encoded_valueh
01425cd8 l     F .text	0000020c _ZL28read_encoded_value_with_basehjPKhPj
01425ee4 l     F .text	00000054 _ZL15get_ttype_entryP16lsda_header_infom
01425f38 l     F .text	0000008c _ZL21base_of_encoded_valuehP15_Unwind_Context
01425fc4 l     F .text	00000134 _ZL17parse_lsda_headerP15_Unwind_ContextPKhP16lsda_header_info
014260f8 l     F .text	00000088 _ZL16get_adjusted_ptrPKSt9type_infoS1_PPv.constprop.3
01426180 l     F .text	0000022c _ZL28check_compact_exception_specPKSt9type_infoPvPKhij
014263ac l     F .text	000000a8 _ZL20check_exception_specP16lsda_header_infoPKSt9type_infoPvl
00000000 l    df *ABS*	00000000 eh_throw.cc
01426c84 l     F .text	00000044 _ZL23__gxx_exception_cleanup19_Unwind_Reason_CodeP17_Unwind_Exception
00000000 l    df *ABS*	00000000 eh_catch.cc
00000000 l    df *ABS*	00000000 eh_terminate.cc
00000000 l    df *ABS*	00000000 eh_unex_handler.cc
00000000 l    df *ABS*	00000000 eh_alloc.cc
014270b4 l     F .text	000000b8 _ZN12_GLOBAL__N_14pool4freeEPv.constprop.4
0142f4fc l     O .bss	00000010 _ZN12_GLOBAL__N_114emergency_poolE
0142716c l     F .text	000000a8 _ZN12_GLOBAL__N_14pool8allocateEj.constprop.5
0142731c l     F .text	0000005c _GLOBAL__sub_I___cxa_allocate_exception
00000000 l    df *ABS*	00000000 eh_call.cc
00000000 l    df *ABS*	00000000 eh_globals.cc
0142f494 l     O .bss	00000008 _ZL10eh_globals
00000000 l    df *ABS*	00000000 eh_exception.cc
00000000 l    df *ABS*	00000000 eh_term_handler.cc
00000000 l    df *ABS*	00000000 del_op.cc
00000000 l    df *ABS*	00000000 pure.cc
00000000 l    df *ABS*	00000000 class_type_info.cc
00000000 l    df *ABS*	00000000 si_class_type_info.cc
00000000 l    df *ABS*	00000000 tinfo.cc
00000000 l    df *ABS*	00000000 libgcc2.c
00000000 l    df *ABS*	00000000 libgcc2.c
00000000 l    df *ABS*	00000000 libgcc2.c
00000000 l    df *ABS*	00000000 libgcc2.c
00000000 l    df *ABS*	00000000 lib2-divmod.c
00000000 l    df *ABS*	00000000 lib2-mul.c
00000000 l    df *ABS*	00000000 divsf3.c
00000000 l    df *ABS*	00000000 gesf2.c
00000000 l    df *ABS*	00000000 mulsf3.c
00000000 l    df *ABS*	00000000 subsf3.c
00000000 l    df *ABS*	00000000 fixsfsi.c
00000000 l    df *ABS*	00000000 floatsisf.c
00000000 l    df *ABS*	00000000 floatunsisf.c
00000000 l    df *ABS*	00000000 divdf3.c
00000000 l    df *ABS*	00000000 eqdf2.c
00000000 l    df *ABS*	00000000 gedf2.c
00000000 l    df *ABS*	00000000 ledf2.c
00000000 l    df *ABS*	00000000 muldf3.c
00000000 l    df *ABS*	00000000 subdf3.c
00000000 l    df *ABS*	00000000 fixdfsi.c
00000000 l    df *ABS*	00000000 floatsidf.c
00000000 l    df *ABS*	00000000 floatunsidf.c
00000000 l    df *ABS*	00000000 unwind-sjlj.c
0142b8e4 l     F .text	00000118 _Unwind_ForcedUnwind_Phase2
0142f49c l     O .bss	00000004 fc_static
0142b9fc l     F .text	000000c0 _Unwind_RaiseException_Phase2
0142babc l     F .text	00000030 uw_install_context.isra.1
00000000 l    df *ABS*	00000000 libgcc2.c
00000000 l    df *ABS*	00000000 libgcc2.c
00000000 l    df *ABS*	00000000 abort.c
00000000 l    df *ABS*	00000000 malloc.c
00000000 l    df *ABS*	00000000 mallocr.c
00000000 l    df *ABS*	00000000 memset.c
00000000 l    df *ABS*	00000000 sbrkr.c
00000000 l    df *ABS*	00000000 signal.c
00000000 l    df *ABS*	00000000 signalr.c
00000000 l    df *ABS*	00000000 strcmp.c
00000000 l    df *ABS*	00000000 mallocr.c
00000000 l    df *ABS*	00000000 impure.c
0142e410 l     O .rwdata	00000424 impure_data
00000000 l    df *ABS*	00000000 int_errno.c
00000000 l    df *ABS*	00000000 alt_exit.c
00000000 l    df *ABS*	00000000 alt_getpid.c
00000000 l    df *ABS*	00000000 alt_kill.c
0142d098 l     F .text	0000003c alt_get_errno
00000000 l    df *ABS*	00000000 alt_load.c
0142d204 l     F .text	00000068 alt_load_section
00000000 l    df *ABS*	00000000 alt_main.c
00000000 l    df *ABS*	00000000 alt_malloc_lock.c
00000000 l    df *ABS*	00000000 alt_sbrk.c
0142ea14 l     O .rwdata	00000004 heap_end
00000000 l    df *ABS*	00000000 alt_write.c
0142d448 l     F .text	0000003c alt_get_errno
00000000 l    df *ABS*	00000000 alt_sys_init.c
00000000 l    df *ABS*	00000000 alt_close.c
0142d5e0 l     F .text	0000003c alt_get_errno
00000000 l    df *ABS*	00000000 alt_dcache_flush_all.c
00000000 l    df *ABS*	00000000 alt_dev.c
0142d714 l     F .text	0000002c alt_dev_null_write
00000000 l    df *ABS*	00000000 alt_do_ctors.c
00000000 l    df *ABS*	00000000 alt_do_dtors.c
00000000 l    df *ABS*	00000000 alt_errno.c
00000000 l    df *ABS*	00000000 alt_icache_flush_all.c
00000000 l    df *ABS*	00000000 alt_release_fd.c
00000000 l    df *ABS*	00000000 altera_nios2_gen2_irq.c
00000000 l    df *ABS*	00000000 atexit.c
00000000 l    df *ABS*	00000000 exit.c
00000000 l    df *ABS*	00000000 __atexit.c
00000000 l    df *ABS*	00000000 __call_atexit.c
01423f0c g     F .text	00000038 _ZN8MadcCore14read_fpga_tempEv
01427274 g     F .text	00000028 __cxa_free_exception
01425390 g     F .text	000001c0 _ZN8UartCore4dispEiii
014279f4 g     F .text	00000008 _ZNKSt9type_info15__is_function_pEv
01427054 g     F .text	00000018 _ZSt10unexpectedv
0142d2f0 g     F .text	00000060 alt_main
014231f0 g     F .text	00000044 _ZN8DdfsCoreC1Em
0142486c g     F .text	00000210 _ZN8SsegCore9write_ledEv
0142005c g     F .text	0000006c _putchar
01427410 g     F .text	00000004 _ZN10__cxxabiv115__forced_unwindD1Ev
01422ab0 g     F .text	0000002c _ZN9BlinkSoft2goEv
0142bb78 g     F .text	00000020 .hidden _Unwind_GetIPInfo
0142ea30 g       *ABS*	00000000 __flash_rwdata_start
0142a320 g     F .text	00000088 .hidden __eqdf2
01426d58 g     F .text	00000084 __cxa_rethrow
01423090 g     F .text	00000078 map
0142bb04 g     F .text	00000014 .hidden _Unwind_SjLj_Unregister
01427090 g     F .text	00000014 _ZSt14set_unexpectedPFvvE
0142bb68 g     F .text	00000010 .hidden _Unwind_GetIP
0142f534 g       *ABS*	00000000 __alt_heap_start
0142cad4 g     F .text	0000005c _kill_r
0142206c g     F .text	00000068 printf
0142242c g     F .text	00000048 _ZN8AdsrCore6bypassEv
0142c89c g     F .text	00000084 _signal_r
014272f0 g     F .text	0000002c __cxa_free_dependent_exception
0142772c g     F .text	00000010 _ZN10__cxxabiv120__si_class_type_infoD2Ev
0142de68  w    O .rodata	00000025 _ZTSN10__cxxabiv120__si_class_type_infoE
0142d374 g     F .text	00000024 __malloc_unlock
0142589c g     F .text	0000009c _ZN10Ws2812Core14set_brightnessEd
01427410 g     F .text	00000004 _ZN10__cxxabiv115__forced_unwindD2Ev
01426f4c g     F .text	00000020 _ZSt18uncaught_exceptionv
014288bc g     F .text	00000440 .hidden __divsf3
014224f0 g     F .text	000000cc _ZN8AdsrCore10select_envEi
014239d4 g     F .text	0000002c _ZN12DebounceCore4readEv
01427444 g     F .text	00000020 __cxa_deleted_virtual
01422a68 g     F .text	00000048 _ZN9BlinkSoft8set_rateEi
01423de8 g     F .text	00000024 _ZN8MadcCoreD1Ev
01423de8 g     F .text	00000024 _ZN8MadcCoreD2Ev
014273e8 g     F .text	00000004 _ZNSt9exceptionD2Ev
01422138 g     F .text	00000064 snprintf
01423b68 g     F .text	00000094 _ZN7GpoCore5writeEii
01425878 g     F .text	00000024 _ZN10Ws2812CoreD1Ev
0142580c g     F .text	0000006c _ZN10Ws2812CoreC1Emii
014296cc g     F .text	00000070 .hidden __fixsfsi
0142347c g     F .text	00000074 _ZN8DdfsCore7set_envEf
0142a3a8 g     F .text	000000dc .hidden __gtdf2
0142dd94  w    O .rodata	00000014 _ZTVSt13bad_exception
0142d8a4 g     F .text	00000024 altera_nios2_gen2_irq_init
01425754 g     F .text	00000048 _ZN8UartCore4dispEd
014239b0 g     F .text	00000024 _ZN12DebounceCoreD2Ev
01420000 g     F .entry	0000000c __reset
014229ec g     F .text	00000058 _ZN9BlinkSoftC1Ev
0142bbb4 g     F .text	00000008 .hidden _Unwind_GetRegionStart
01420020 g       *ABS*	00000000 __flash_exceptions_start
0142f4ac g     O .bss	00000004 errno
0142bd90 g     F .text	00000074 .hidden _Unwind_Backtrace
01423938 g     F .text	00000044 _ZN7GpiCore4readEi
0142f4b4 g     O .bss	00000004 alt_argv
014369dc g       *ABS*	00000000 _gp
01422fa8 g     F .text	000000c8 debug_on
014291e8 g     F .text	000004e4 .hidden __subsf3
0142f48c g     O .bss	00000008 jtag
0142d078 g     F .text	00000020 getpid
01423234 g     F .text	00000024 _ZN8DdfsCoreD2Ev
01424a7c g     F .text	00000080 _ZN8SsegCore10write_8ptnEPh
01426a54 g     F .text	00000230 __cxa_call_unexpected
01426ddc g     F .text	00000008 __cxa_get_exception_ptr
0142e85c g     O .rwdata	00000180 alt_fd_list
0142f4e8 g     O .bss	00000014 neopixel
01425550 g     F .text	00000044 _ZN8UartCore4dispEi
0142bca4 g     F .text	00000044 .hidden _Unwind_SjLj_ForcedUnwind
0142bb34 g     F .text	00000018 .hidden _Unwind_GetCFA
0142706c g     F .text	00000014 _ZSt13set_terminatePFvvE
0142729c g     F .text	00000054 __cxa_allocate_dependent_exception
01200000 g       *ABS*	00000000 __alt_mem_onchip_flash_0_data
01424684 g     F .text	00000028 _ZN5Rtttl9read_noteEv
014274dc g     F .text	00000018 _ZNK10__cxxabiv117__class_type_info20__do_find_public_srcEiPKvPKS0_S2_
0142b760 g     F .text	000000dc .hidden __floatsidf
01423fac g     F .text	0000032c _ZN5Rtttl12parse_headerEPc
0142a484 g     F .text	000000f4 .hidden __ltdf2
014222ec g     F .text	000000a4 _ZN8AdsrCore4initEv
0142dc00 g       *ABS*	00000000 __DTOR_END__
014274f4 g     F .text	00000010 _ZN10__cxxabiv117__class_type_infoD1Ev
014238b4 g     F .text	00000034 _ZN7GpiCoreC2Em
014251b4 g     F .text	00000044 _ZN8UartCore13rx_fifo_emptyEv
0142580c g     F .text	0000006c _ZN10Ws2812CoreC2Emii
0142be80 g     F .text	00000014 malloc
01420000 g       *ABS*	00000000 __alt_mem_onchip_memory2_0
014287d8 g     F .text	00000064 .hidden __udivsi3
0142c920 g     F .text	000000bc _raise_r
0142219c g     F .text	00000054 vsnprintf
01427aac g     F .text	00000074 .hidden __fixunsdfsi
014229ec g     F .text	00000058 _ZN9BlinkSoftC2Ev
0142f4a8 g     O .bss	00000004 __malloc_top_pad
01424794 g     F .text	000000b4 _ZN8SsegCoreC1Emi
0142cb30 g     F .text	00000004 _getpid_r
01422984 g     F .text	00000068 _ZN9BlinkSoftC2Ei
01422b0c g     F .text	00000034 _ZN9BlinkSoft11SetPositionEi
01427674 g     F .text	000000b8 _ZNK10__cxxabiv117__class_type_info10__do_catchEPKSt9type_infoPPvj
0142c9dc g     F .text	000000a8 __sigtramp_r
01423e0c g     F .text	0000004c _ZN8MadcCore16read_channel_rawEi
01424714 g     F .text	00000034 _ZN5Rtttl6rewindEv
01424848 g     F .text	00000024 _ZN8SsegCoreD1Ev
0142c7dc g     F .text	00000054 _sbrk_r
01422e84 g     F .text	00000038 now_us
0142ded8  w    O .rodata	00000020 _ZTVSt9type_info
014273f0 g     F .text	0000000c _ZNKSt9exception4whatEv
0142ea28 g     O .rwdata	00000004 alt_max_fd
0142f4a4 g     O .bss	00000004 __malloc_max_sbrked_mem
01423f88 g     F .text	00000024 _ZN5RtttlD1Ev
01423a44 g     F .text	00000030 _ZN12DebounceCore7read_dbEv
01422268 g     F .text	00000060 _ZN8AdsrCoreC2EmP8DdfsCore
01423584 g     F .text	00000094 _ZN8DdfsCore14set_env_sourceEi
0142de9c  w    O .rodata	0000002c _ZTVN10__cxxabiv120__si_class_type_infoE
0142811c g     F .text	000005c4 .hidden __umoddi3
01427538 g     F .text	0000006c _ZNK10__cxxabiv117__class_type_info11__do_upcastEPKS0_PKvRNS0_15__upcast_resultE
01427420 g     F .text	00000004 _ZdlPv
01423258 g     F .text	00000080 _ZN8DdfsCore4initEv
0142ea0c g     O .rwdata	00000004 _global_impure_ptr
0142f534 g       *ABS*	00000000 __bss_end
0142baec g     F .text	00000018 .hidden _Unwind_SjLj_Register
01427b20 g     F .text	000005fc .hidden __udivdi3
0142be68 g     F .text	00000018 abort
0142b83c g     F .text	000000a8 .hidden __floatunsidf
01424de4 g     F .text	0000006c _ZN9TimerCoreC2Em
01426e98 g     F .text	000000b4 __cxa_end_catch
01425ba8 g     F .text	0000008c _ZN10Ws2812Core10clr_matrixEi
014273ec g     F .text	00000004 _ZNSt13bad_exceptionD2Ev
01423d34 g     F .text	00000080 _ZN7PwmCore8set_dutyEdi
01423414 g     F .text	00000068 _ZN8DdfsCore16set_phase_degreeEi
014250e8 g     F .text	00000048 _ZN8UartCoreC2Em
01423a74 g     F .text	00000048 _ZN12DebounceCore7read_dbEi
014259b8 g     F .text	000001f0 _ZN10Ws2812Core6wr_pixEiihhh
0142702c g     F .text	00000018 _ZSt9terminatev
0142e834 g     O .rwdata	00000028 alt_dev_null
01423234 g     F .text	00000024 _ZN8DdfsCoreD1Ev
01423bfc g     F .text	00000048 _ZN7PwmCoreC1Em
01427418 g     F .text	00000004 _ZN10__cxxabiv119__foreign_exceptionD2Ev
0142de0c  w    O .rodata	00000022 _ZTSN10__cxxabiv117__class_type_infoE
0142d6f4 g     F .text	00000020 alt_dcache_flush_all
01423af8 g     F .text	00000024 _ZN7GpoCoreD2Ev
0142e9e0  w    O .rwdata	00000008 _ZTISt9exception
0142b6e0 g     F .text	00000080 .hidden __fixdfsi
014238b4 g     F .text	00000034 _ZN7GpiCoreC1Em
0142ea30 g       *ABS*	00000000 __ram_rwdata_end
014223c8 g     F .text	00000030 _ZN8AdsrCore5startEv
014279f0 g     F .text	00000004 _ZNSt9type_infoD1Ev
0142ea20 g     O .rwdata	00000008 alt_dev_list
01427418 g     F .text	00000004 _ZN10__cxxabiv119__foreign_exceptionD1Ev
0142d484 g     F .text	00000100 write
014221f0 g     F .text	00000078 fctprintf
01427a04 g     F .text	00000004 _ZNSt9type_infoD0Ev
01428cfc g     F .text	000000bc .hidden __gtsf2
0142e008 g       *ABS*	00000000 __ram_rodata_end
01422f48 g     F .text	00000060 sleep_ms
0142d0d4 g     F .text	00000130 kill
014222c8 g     F .text	00000024 _ZN8AdsrCoreD1Ev
0142a484 g     F .text	000000f4 .hidden __ledf2
01422ebc g     F .text	00000044 now_ms
0142f468 g     O .bss	00000008 led
0142883c g     F .text	00000058 .hidden __umodsi3
014279fc g     F .text	00000008 _ZNKSt9type_info11__do_upcastEPKN10__cxxabiv117__class_type_infoEPPv
01427080 g     F .text	00000010 _ZSt13get_terminatev
014250e8 g     F .text	00000048 _ZN8UartCoreC1Em
0142f534 g       *ABS*	00000000 end
01422390 g     F .text	00000038 _ZN8AdsrCore4idleEv
014255dc g     F .text	00000178 _ZN8UartCore4dispEdi
0142bd78 g     F .text	00000018 .hidden _Unwind_DeleteException
0142f458 g     O .bss	00000008 _sys_timer
014238e8 g     F .text	00000024 _ZN7GpiCoreD1Ev
014275a4 g     F .text	000000d0 _ZNK10__cxxabiv117__class_type_info12__do_dyncastEiNS0_10__sub_kindEPKS0_PKvS3_S5_RNS0_16__dyncast_resultE
0142dbe9 g       *ABS*	00000000 __CTOR_LIST__
01440000 g       *ABS*	00000000 __alt_stack_pointer
014252a0 g     F .text	0000006c _ZN8UartCore7rx_byteEv
0142be04 g     F .text	00000064 .hidden __clzsi2
01427464 g     F .text	00000078 _ZNK10__cxxabiv117__class_type_info11__do_upcastEPKS0_PPv
0142dd1c  w    O .rodata	00000012 _ZTSSt13bad_exception
0142cd34 g     F .text	00000310 _free_r
01423b1c g     F .text	0000004c _ZN7GpoCore5writeEm
0142da2c g     F .text	00000180 __call_exitprocs
01424de4 g     F .text	0000006c _ZN9TimerCoreC1Em
0142ea04 g     O .rwdata	00000004 __malloc_sbrk_base
01420020 g     F .text	0000003c _start
0142579c g     F .text	00000070 _ZN8UartCore8disp_strEPKc
0142dec8  w    O .rodata	0000000d _ZTSSt9type_info
01422f00 g     F .text	00000048 sleep_us
01427424 g     F .text	00000020 __cxa_pure_virtual
01424794 g     F .text	000000b4 _ZN8SsegCoreC2Emi
0142ca98 g     F .text	00000018 signal
0142d5bc g     F .text	00000024 alt_sys_init
0142973c g     F .text	00000124 .hidden __floatsisf
0142d914 g     F .text	00000118 __register_exitproc
01427770 g     F .text	00000160 _ZNK10__cxxabiv120__si_class_type_info12__do_dyncastEiNS_17__class_type_info10__sub_kindEPKS1_PKvS4_S6_RNS1_16__dyncast_resultE
01424f6c g     F .text	00000078 _ZN9TimerCore9read_tickEv
01422698 g     F .text	000000f4 _ZN8AdsrCore14calc_note_freqEii
01425594 g     F .text	00000048 _ZN8UartCore4dispEii
01428894 g     F .text	00000028 .hidden __mulsi3
0142e008 g       *ABS*	00000000 __ram_rwdata_start
0142bbd4 g     F .text	000000d0 .hidden _Unwind_SjLj_RaiseException
0142f474 g     O .bss	00000004 adc
0142dc00 g       *ABS*	00000000 __ram_rodata_start
0142f50c g     O .bss	00000028 __malloc_current_mallinfo
0142bce8 g     F .text	00000044 .hidden _Unwind_SjLj_Resume
0142ddbc  w    O .rodata	00000014 _ZTVN10__cxxabiv119__foreign_exceptionE
014279f0 g     F .text	00000004 _ZNSt9type_infoD2Ev
0142741c g     F .text	00000004 _ZN10__cxxabiv119__foreign_exceptionD0Ev
014251f8 g     F .text	00000044 _ZN8UartCore12tx_fifo_fullEv
0142f4cc g     O .bss	0000001c adsr
0142796c g     F .text	00000084 _ZNK10__cxxabiv120__si_class_type_info11__do_upcastEPKNS_17__class_type_infoEPKvRNS1_15__upcast_resultE
014232d8 g     F .text	0000009c _ZN8DdfsCore16set_carrier_freqEi
01423db4 g     F .text	00000034 _ZN8MadcCoreC2Em
014242d8 g     F .text	00000384 _ZN5Rtttl15parse_next_noteEv
01422984 g     F .text	00000068 _ZN9BlinkSoftC1Ei
01423c44 g     F .text	00000024 _ZN7PwmCoreD1Ev
0142e9f0  w    O .rwdata	00000008 _ZTIN10__cxxabiv119__foreign_exceptionE
01425050 g     F .text	00000098 _ZN9TimerCore5sleepEy
014231f0 g     F .text	00000044 _ZN8DdfsCoreC2Em
0142f534 g       *ABS*	00000000 __alt_stack_base
01424ba4 g     F .text	00000044 _ZN8SsegCore14set_brightnessEh
0142772c g     F .text	00000010 _ZN10__cxxabiv120__si_class_type_infoD1Ev
0142bd2c g     F .text	0000004c .hidden _Unwind_SjLj_Resume_or_Rethrow
01429950 g     F .text	000009d0 .hidden __divdf3
01425130 g     F .text	00000024 _ZN8UartCoreD1Ev
01422474 g     F .text	0000007c _ZN8AdsrCore7set_envEiiiif
014279f4 g     F .text	00000008 _ZNKSt9type_info14__is_pointer_pEv
0142e008 g     O .rwdata	00000408 __malloc_av_
0142523c g     F .text	00000064 _ZN8UartCore7tx_byteEh
01424e50 g     F .text	00000024 _ZN9TimerCoreD2Ev
0142a578 g     F .text	0000086c .hidden __muldf3
0142dd80  w    O .rodata	00000014 _ZTVSt9exception
01427414 g     F .text	00000004 _ZN10__cxxabiv115__forced_unwindD0Ev
0142d350 g     F .text	00000024 __malloc_lock
0142d398 g     F .text	000000b0 sbrk
0142397c g     F .text	00000034 _ZN12DebounceCoreC1Em
0142de3c  w    O .rodata	0000002c _ZTVN10__cxxabiv117__class_type_infoE
01426cc8 g     F .text	00000090 __cxa_throw
01424748 g     F .text	0000004c _ZN5Rtttl8is_digitEc
0142bb98 g     F .text	00000010 .hidden _Unwind_SetIP
0142f458 g       *ABS*	00000000 __bss_start
01425348 g     F .text	00000048 _ZN8UartCore4dispEc
0142c6b4 g     F .text	00000128 memset
01423a00 g     F .text	00000044 _ZN12DebounceCore4readEi
01422c90 g     F .text	000001f4 main
0142f4b8 g     O .bss	00000004 alt_envp
0142f4a0 g     O .bss	00000004 __malloc_max_total_mem
0142f484 g     O .bss	00000008 ddfs
01423abc g     F .text	0000003c _ZN7GpoCoreC2Em
014273d0 g     F .text	0000000c __cxa_get_globals_fast
0142f4bc g     O .bss	00000010 sseg
0142530c g     F .text	0000003c _ZN8UartCore4dispEPKc
014223f8 g     F .text	00000034 _ZN8AdsrCore5abortEv
01440000 g       *ABS*	00000000 __alt_heap_limit
0142bea8 g     F .text	0000080c _malloc_r
014273fc g     F .text	0000000c _ZNKSt13bad_exception4whatEv
0142ea2c g     O .rwdata	00000004 alt_errno
0142cab0 g     F .text	00000010 _init_signal
0142de30  w    O .rodata	0000000c _ZTIN10__cxxabiv117__class_type_infoE
01422a44 g     F .text	00000024 _ZN9BlinkSoftD1Ev
014273ec g     F .text	00000004 _ZNSt13bad_exceptionD1Ev
01424f20 g     F .text	0000004c _ZN9TimerCore5clearEv
014286e0 g     F .text	00000084 .hidden __divsi3
0142cc10 g     F .text	00000124 _malloc_trim_r
0142dbf8 g       *ABS*	00000000 __CTOR_END__
01428db8 g     F .text	00000430 .hidden __mulsf3
0142cb34 g     F .text	000000dc strcmp
0142dc00 g       *ABS*	00000000 __flash_rodata_start
0142dda8  w    O .rodata	00000014 _ZTVN10__cxxabiv115__forced_unwindE
0142dbf8 g       *ABS*	00000000 __DTOR_LIST__
01423f44 g     F .text	00000044 _ZN5RtttlC2Ev
014246d4 g     F .text	00000040 _ZN5Rtttl6is_endEv
0142a320 g     F .text	00000088 .hidden __nedf2
014239b0 g     F .text	00000024 _ZN12DebounceCoreD1Ev
014246ac g     F .text	00000028 _ZN5Rtttl13read_intervalEv
0142d584 g     F .text	00000038 alt_irq_init
0142d820 g     F .text	00000084 alt_release_fd
0142773c g     F .text	00000034 _ZN10__cxxabiv120__si_class_type_infoD0Ev
014220d4 g     F .text	00000064 sprintf
0142def8 g     O .rodata	00000100 .hidden __clz_tab
0142d8c8 g     F .text	00000014 atexit
01428cfc g     F .text	000000bc .hidden __gesf2
01424848 g     F .text	00000024 _ZN8SsegCoreD2Ev
01424b54 g     F .text	00000050 _ZN8SsegCore6set_dpEh
0142bbcc g     F .text	00000008 .hidden _Unwind_GetTextRelBase
01427378 g     F .text	00000058 __cxa_call_terminate
0142ea10 g     O .rwdata	00000004 _impure_ptr
0142e9e8  w    O .rwdata	00000008 _ZTIN10__cxxabiv115__forced_unwindE
0142f4b0 g     O .bss	00000004 alt_argc
0142d7a0 g     F .text	00000060 _do_dtors
0142f470 g     O .bss	00000004 sw
01423618 g     F .text	00000094 _ZN8DdfsCore14set_pha_sourceEi
01422b40 g     F .text	00000150 _ZN9BlinkSoft15poll_and_toggleEv
014270a4 g     F .text	00000010 _ZSt14get_unexpectedv
0142465c g     F .text	00000028 _ZN5Rtttl8read_octEv
0142bbbc g     F .text	00000008 .hidden _Unwind_FindEnclosingFunction
01423cc0 g     F .text	00000074 _ZN7PwmCore8set_dutyEii
0142f478 g     O .bss	00000008 pwm
0142278c g     F .text	000001f8 _ZN8AdsrCore14write_adsr_regEv
01424fe4 g     F .text	0000006c _ZN9TimerCore9read_timeEv
0142ea18 g     O .rwdata	00000008 alt_fs_list
0142dd5c  w    O .rodata	00000024 _ZTSN10__cxxabiv119__foreign_exceptionE
01423bfc g     F .text	00000048 _ZN7PwmCoreC2Em
01423070 g     F .text	00000020 debug_off
0142bba8 g     F .text	0000000c .hidden _Unwind_GetLanguageSpecificData
01423f44 g     F .text	00000044 _ZN5RtttlC1Ev
01426de4 g     F .text	000000b4 __cxa_begin_catch
014274f4 g     F .text	00000010 _ZN10__cxxabiv117__class_type_infoD2Ev
01427044 g     F .text	00000010 _ZN10__cxxabiv112__unexpectedEPFvvE
01424ecc g     F .text	00000054 _ZN9TimerCore2goEv
01420020 g       *ABS*	00000000 __ram_exceptions_start
0142397c g     F .text	00000034 _ZN12DebounceCoreC2Em
0142740c g     F .text	00000004 _ZNSt13bad_exceptionD0Ev
0142e9f8 g     O .rwdata	00000004 _ZN10__cxxabiv119__terminate_handlerE
01427214 g     F .text	00000060 __cxa_allocate_exception
01425878 g     F .text	00000024 _ZN10Ws2812CoreD2Ev
0142de90  w    O .rodata	0000000c _ZTIN10__cxxabiv120__si_class_type_infoE
014225bc g     F .text	000000dc _ZN8AdsrCore9play_noteEiii
0142ea30 g       *ABS*	00000000 _edata
0142f534 g       *ABS*	00000000 _end
01426454 g     F .text	00000600 __gxx_personality_sj0
01420020 g       *ABS*	00000000 __ram_exceptions_end
01422a44 g     F .text	00000024 _ZN9BlinkSoftD2Ev
014234f0 g     F .text	00000094 _ZN8DdfsCore14set_fow_sourceEi
014273e8 g     F .text	00000004 _ZNSt9exceptionD1Ev
01423abc g     F .text	0000003c _ZN7GpoCoreC1Em
01425130 g     F .text	00000024 _ZN8UartCoreD2Ev
0142ea08 g     O .rwdata	00000004 __malloc_trim_threshold
01424afc g     F .text	00000058 _ZN8SsegCore10write_1ptnEhi
0142d8dc g     F .text	00000038 exit
0142bb4c g     F .text	0000001c .hidden _Unwind_SetGR
014278d0 g     F .text	0000009c _ZNK10__cxxabiv120__si_class_type_info20__do_find_public_srcEiPKvPKNS_17__class_type_infoES2_
01429860 g     F .text	000000f0 .hidden __floatunsisf
01426f6c g     F .text	000000c0 _ZN10__cxxabiv111__terminateEPFvvE
01425154 g     F .text	00000060 _ZN8UartCore13set_baud_rateEi
01428764 g     F .text	00000074 .hidden __modsi3
01423f88 g     F .text	00000024 _ZN5RtttlD2Ev
01423c68 g     F .text	00000058 _ZN7PwmCore8set_freqEi
01440000 g       *ABS*	00000000 __alt_data_end
0142f460 g     O .bss	00000008 uart
0142dd30  w    O .rodata	0000000c _ZTISt13bad_exception
01424c40 g     F .text	000001a4 _ZN8SsegCore6i2ssegEiiiiii
01427a4c g     F .text	00000060 .hidden __fixunssfsi
0142390c g     F .text	0000002c _ZN7GpiCore4readEv
0142d044 g     F .text	00000034 _exit
01423e58 g     F .text	000000b4 _ZN8MadcCore11read_adc_inEi
014238e8 g     F .text	00000024 _ZN7GpiCoreD2Ev
0142bb18 g     F .text	0000001c .hidden _Unwind_GetGR
014273dc g     F .text	0000000c __cxa_get_globals
014236ac g     F .text	00000034 _ZN8DdfsCore8read_pcmEv
0142e9dc g     O .rwdata	00000004 _ZN10__cxxabiv120__unexpected_handlerE
01423c44 g     F .text	00000024 _ZN7PwmCoreD2Ev
0142c830 g     F .text	0000006c _init_signal_r
0142e9fc  w    O .rwdata	00000008 _ZTISt9type_info
0142a3a8 g     F .text	000000dc .hidden __gedf2
0142dd0c  w    O .rodata	0000000d _ZTSSt9exception
01427408 g     F .text	00000004 _ZNSt9exceptionD0Ev
01423db4 g     F .text	00000034 _ZN8MadcCoreC1Em
01424e74 g     F .text	00000058 _ZN9TimerCore5pauseEv
0142d800 g     F .text	00000020 alt_icache_flush_all
014222c8 g     F .text	00000024 _ZN8AdsrCoreD2Ev
01424e50 g     F .text	00000024 _ZN9TimerCoreD1Ev
0142bbc4 g     F .text	00000008 .hidden _Unwind_GetDataRelBase
0142f480 g     O .bss	00000004 btn
0142ade4 g     F .text	000008fc .hidden __subdf3
01425938 g     F .text	00000080 _ZN10Ws2812Core6wr_pixEiii
0142d740 g     F .text	00000060 _do_ctors
0142cac0 g     F .text	00000014 __sigtramp
01422adc g     F .text	00000030 _ZN9BlinkSoft4stopEv
01422268 g     F .text	00000060 _ZN8AdsrCoreC1EmP8DdfsCore
0142d61c g     F .text	000000d8 close
01424be8 g     F .text	00000058 _ZN8SsegCore3h2sEi
0142dd3c  w    O .rodata	00000020 _ZTSN10__cxxabiv115__forced_unwindE
0142d26c g     F .text	00000084 alt_load
01423374 g     F .text	000000a0 _ZN8DdfsCore15set_offset_freqEi
01427a08 g     F .text	00000044 _ZNKSt9type_info10__do_catchEPKS_PPvj
0142ca84 g     F .text	00000014 raise
0142be94 g     F .text	00000014 free
01427504 g     F .text	00000034 _ZN10__cxxabiv117__class_type_infoD0Ev
01423af8 g     F .text	00000024 _ZN7GpoCoreD1Ev



Disassembly of section .entry:

01420000 <__reset>:
 1420000:	004050b4 	movhi	at,322
 1420004:	08400814 	ori	at,at,32
 1420008:	0800683a 	jmp	at
	...

Disassembly of section .text:

01420020 <_start>:
 1420020:	06c05134 	movhi	sp,324
 1420024:	dec00014 	ori	sp,sp,0
 1420028:	068050f4 	movhi	gp,323
 142002c:	d69a7714 	ori	gp,gp,27100
 1420030:	008050b4 	movhi	r2,322
 1420034:	10bd1614 	ori	r2,r2,62552
 1420038:	00c050b4 	movhi	r3,322
 142003c:	18fd4d14 	ori	r3,r3,62772
 1420040:	10c00326 	beq	r2,r3,1420050 <_start+0x30>
 1420044:	10000015 	stw	zero,0(r2)
 1420048:	10800104 	addi	r2,r2,4
 142004c:	10fffd36 	bltu	r2,r3,1420044 <__alt_data_end+0xfffe0044>
 1420050:	142d26c0 	call	142d26c <alt_load>
 1420054:	142d2f00 	call	142d2f0 <alt_main>

01420058 <alt_after_alt_main>:
 1420058:	003fff06 	br	1420058 <__alt_data_end+0xfffe0058>

0142005c <_putchar>:
 142005c:	defffb04 	addi	sp,sp,-20
 1420060:	df000415 	stw	fp,16(sp)
 1420064:	df000404 	addi	fp,sp,16
 1420068:	2005883a 	mov	r2,r4
 142006c:	e0bfff05 	stb	r2,-4(fp)
 1420070:	00b00034 	movhi	r2,49152
 1420074:	10802004 	addi	r2,r2,128
 1420078:	e0bffc15 	stw	r2,-16(fp)
 142007c:	e0bffc17 	ldw	r2,-16(fp)
 1420080:	10800017 	ldw	r2,0(r2)
 1420084:	e0bffd15 	stw	r2,-12(fp)
 1420088:	e0bffd17 	ldw	r2,-12(fp)
 142008c:	1080800c 	andi	r2,r2,512
 1420090:	1005d27a 	srai	r2,r2,9
 1420094:	e0bffe15 	stw	r2,-8(fp)
 1420098:	e0bffe17 	ldw	r2,-8(fp)
 142009c:	103ff71e 	bne	r2,zero,142007c <__alt_data_end+0xfffe007c>
 14200a0:	e0bffc17 	ldw	r2,-16(fp)
 14200a4:	10800204 	addi	r2,r2,8
 14200a8:	1007883a 	mov	r3,r2
 14200ac:	e0bfff07 	ldb	r2,-4(fp)
 14200b0:	18800015 	stw	r2,0(r3)
 14200b4:	0001883a 	nop
 14200b8:	e037883a 	mov	sp,fp
 14200bc:	df000017 	ldw	fp,0(sp)
 14200c0:	dec00104 	addi	sp,sp,4
 14200c4:	f800283a 	ret

014200c8 <_out_buffer>:
 14200c8:	defffb04 	addi	sp,sp,-20
 14200cc:	df000415 	stw	fp,16(sp)
 14200d0:	df000404 	addi	fp,sp,16
 14200d4:	2005883a 	mov	r2,r4
 14200d8:	e17ffd15 	stw	r5,-12(fp)
 14200dc:	e1bffe15 	stw	r6,-8(fp)
 14200e0:	e1ffff15 	stw	r7,-4(fp)
 14200e4:	e0bffc05 	stb	r2,-16(fp)
 14200e8:	e0fffe17 	ldw	r3,-8(fp)
 14200ec:	e0bfff17 	ldw	r2,-4(fp)
 14200f0:	1880052e 	bgeu	r3,r2,1420108 <_out_buffer+0x40>
 14200f4:	e0fffd17 	ldw	r3,-12(fp)
 14200f8:	e0bffe17 	ldw	r2,-8(fp)
 14200fc:	1885883a 	add	r2,r3,r2
 1420100:	e0fffc03 	ldbu	r3,-16(fp)
 1420104:	10c00005 	stb	r3,0(r2)
 1420108:	0001883a 	nop
 142010c:	e037883a 	mov	sp,fp
 1420110:	df000017 	ldw	fp,0(sp)
 1420114:	dec00104 	addi	sp,sp,4
 1420118:	f800283a 	ret

0142011c <_out_null>:
 142011c:	defffb04 	addi	sp,sp,-20
 1420120:	df000415 	stw	fp,16(sp)
 1420124:	df000404 	addi	fp,sp,16
 1420128:	2005883a 	mov	r2,r4
 142012c:	e17ffd15 	stw	r5,-12(fp)
 1420130:	e1bffe15 	stw	r6,-8(fp)
 1420134:	e1ffff15 	stw	r7,-4(fp)
 1420138:	e0bffc05 	stb	r2,-16(fp)
 142013c:	0001883a 	nop
 1420140:	e037883a 	mov	sp,fp
 1420144:	df000017 	ldw	fp,0(sp)
 1420148:	dec00104 	addi	sp,sp,4
 142014c:	f800283a 	ret

01420150 <_out_char>:
 1420150:	defffa04 	addi	sp,sp,-24
 1420154:	dfc00515 	stw	ra,20(sp)
 1420158:	df000415 	stw	fp,16(sp)
 142015c:	df000404 	addi	fp,sp,16
 1420160:	2005883a 	mov	r2,r4
 1420164:	e17ffd15 	stw	r5,-12(fp)
 1420168:	e1bffe15 	stw	r6,-8(fp)
 142016c:	e1ffff15 	stw	r7,-4(fp)
 1420170:	e0bffc05 	stb	r2,-16(fp)
 1420174:	e0bffc07 	ldb	r2,-16(fp)
 1420178:	10000326 	beq	r2,zero,1420188 <_out_char+0x38>
 142017c:	e0bffc07 	ldb	r2,-16(fp)
 1420180:	1009883a 	mov	r4,r2
 1420184:	142005c0 	call	142005c <_putchar>
 1420188:	0001883a 	nop
 142018c:	e037883a 	mov	sp,fp
 1420190:	dfc00117 	ldw	ra,4(sp)
 1420194:	df000017 	ldw	fp,0(sp)
 1420198:	dec00204 	addi	sp,sp,8
 142019c:	f800283a 	ret

014201a0 <_out_fct>:
 14201a0:	defffa04 	addi	sp,sp,-24
 14201a4:	dfc00515 	stw	ra,20(sp)
 14201a8:	df000415 	stw	fp,16(sp)
 14201ac:	df000404 	addi	fp,sp,16
 14201b0:	2005883a 	mov	r2,r4
 14201b4:	e17ffd15 	stw	r5,-12(fp)
 14201b8:	e1bffe15 	stw	r6,-8(fp)
 14201bc:	e1ffff15 	stw	r7,-4(fp)
 14201c0:	e0bffc05 	stb	r2,-16(fp)
 14201c4:	e0bffd17 	ldw	r2,-12(fp)
 14201c8:	10800017 	ldw	r2,0(r2)
 14201cc:	e13ffc07 	ldb	r4,-16(fp)
 14201d0:	e0fffd17 	ldw	r3,-12(fp)
 14201d4:	18c00117 	ldw	r3,4(r3)
 14201d8:	180b883a 	mov	r5,r3
 14201dc:	103ee83a 	callr	r2
 14201e0:	0001883a 	nop
 14201e4:	e037883a 	mov	sp,fp
 14201e8:	dfc00117 	ldw	ra,4(sp)
 14201ec:	df000017 	ldw	fp,0(sp)
 14201f0:	dec00204 	addi	sp,sp,8
 14201f4:	f800283a 	ret

014201f8 <_strlen>:
 14201f8:	defffd04 	addi	sp,sp,-12
 14201fc:	df000215 	stw	fp,8(sp)
 1420200:	df000204 	addi	fp,sp,8
 1420204:	e13fff15 	stw	r4,-4(fp)
 1420208:	e0bfff17 	ldw	r2,-4(fp)
 142020c:	e0bffe15 	stw	r2,-8(fp)
 1420210:	00000306 	br	1420220 <_strlen+0x28>
 1420214:	e0bffe17 	ldw	r2,-8(fp)
 1420218:	10800044 	addi	r2,r2,1
 142021c:	e0bffe15 	stw	r2,-8(fp)
 1420220:	e0bffe17 	ldw	r2,-8(fp)
 1420224:	10800003 	ldbu	r2,0(r2)
 1420228:	10803fcc 	andi	r2,r2,255
 142022c:	1080201c 	xori	r2,r2,128
 1420230:	10bfe004 	addi	r2,r2,-128
 1420234:	103ff71e 	bne	r2,zero,1420214 <__alt_data_end+0xfffe0214>
 1420238:	e0fffe17 	ldw	r3,-8(fp)
 142023c:	e0bfff17 	ldw	r2,-4(fp)
 1420240:	1885c83a 	sub	r2,r3,r2
 1420244:	e037883a 	mov	sp,fp
 1420248:	df000017 	ldw	fp,0(sp)
 142024c:	dec00104 	addi	sp,sp,4
 1420250:	f800283a 	ret

01420254 <_is_digit>:
 1420254:	defffe04 	addi	sp,sp,-8
 1420258:	df000115 	stw	fp,4(sp)
 142025c:	df000104 	addi	fp,sp,4
 1420260:	2005883a 	mov	r2,r4
 1420264:	e0bfff05 	stb	r2,-4(fp)
 1420268:	e0bfff07 	ldb	r2,-4(fp)
 142026c:	10800c10 	cmplti	r2,r2,48
 1420270:	1000051e 	bne	r2,zero,1420288 <_is_digit+0x34>
 1420274:	e0bfff07 	ldb	r2,-4(fp)
 1420278:	10800e88 	cmpgei	r2,r2,58
 142027c:	1000021e 	bne	r2,zero,1420288 <_is_digit+0x34>
 1420280:	00800044 	movi	r2,1
 1420284:	00000106 	br	142028c <_is_digit+0x38>
 1420288:	0005883a 	mov	r2,zero
 142028c:	1080004c 	andi	r2,r2,1
 1420290:	e037883a 	mov	sp,fp
 1420294:	df000017 	ldw	fp,0(sp)
 1420298:	dec00104 	addi	sp,sp,4
 142029c:	f800283a 	ret

014202a0 <_atoi>:
 14202a0:	defffc04 	addi	sp,sp,-16
 14202a4:	dfc00315 	stw	ra,12(sp)
 14202a8:	df000215 	stw	fp,8(sp)
 14202ac:	df000204 	addi	fp,sp,8
 14202b0:	e13fff15 	stw	r4,-4(fp)
 14202b4:	e03ffe15 	stw	zero,-8(fp)
 14202b8:	00001006 	br	14202fc <_atoi+0x5c>
 14202bc:	01400284 	movi	r5,10
 14202c0:	e13ffe17 	ldw	r4,-8(fp)
 14202c4:	14288940 	call	1428894 <__mulsi3>
 14202c8:	100b883a 	mov	r5,r2
 14202cc:	e0bfff17 	ldw	r2,-4(fp)
 14202d0:	10800017 	ldw	r2,0(r2)
 14202d4:	11000044 	addi	r4,r2,1
 14202d8:	e0ffff17 	ldw	r3,-4(fp)
 14202dc:	19000015 	stw	r4,0(r3)
 14202e0:	10800003 	ldbu	r2,0(r2)
 14202e4:	10803fcc 	andi	r2,r2,255
 14202e8:	1080201c 	xori	r2,r2,128
 14202ec:	10bfe004 	addi	r2,r2,-128
 14202f0:	2885883a 	add	r2,r5,r2
 14202f4:	10bff404 	addi	r2,r2,-48
 14202f8:	e0bffe15 	stw	r2,-8(fp)
 14202fc:	e0bfff17 	ldw	r2,-4(fp)
 1420300:	10800017 	ldw	r2,0(r2)
 1420304:	10800003 	ldbu	r2,0(r2)
 1420308:	10803fcc 	andi	r2,r2,255
 142030c:	1080201c 	xori	r2,r2,128
 1420310:	10bfe004 	addi	r2,r2,-128
 1420314:	1009883a 	mov	r4,r2
 1420318:	14202540 	call	1420254 <_is_digit>
 142031c:	10803fcc 	andi	r2,r2,255
 1420320:	103fe61e 	bne	r2,zero,14202bc <__alt_data_end+0xfffe02bc>
 1420324:	e0bffe17 	ldw	r2,-8(fp)
 1420328:	e037883a 	mov	sp,fp
 142032c:	dfc00117 	ldw	ra,4(sp)
 1420330:	df000017 	ldw	fp,0(sp)
 1420334:	dec00204 	addi	sp,sp,8
 1420338:	f800283a 	ret

0142033c <_ntoa_format>:
 142033c:	defff604 	addi	sp,sp,-40
 1420340:	dfc00915 	stw	ra,36(sp)
 1420344:	df000815 	stw	fp,32(sp)
 1420348:	df000804 	addi	fp,sp,32
 142034c:	e13ffb15 	stw	r4,-20(fp)
 1420350:	e17ffc15 	stw	r5,-16(fp)
 1420354:	e1bffd15 	stw	r6,-12(fp)
 1420358:	e1fffe15 	stw	r7,-8(fp)
 142035c:	e0800417 	ldw	r2,16(fp)
 1420360:	e0bfff05 	stb	r2,-4(fp)
 1420364:	e0bffd17 	ldw	r2,-12(fp)
 1420368:	e0bffa15 	stw	r2,-24(fp)
 142036c:	00000706 	br	142038c <_ntoa_format+0x50>
 1420370:	e0800317 	ldw	r2,12(fp)
 1420374:	10c00044 	addi	r3,r2,1
 1420378:	e0c00315 	stw	r3,12(fp)
 142037c:	e0c00217 	ldw	r3,8(fp)
 1420380:	1885883a 	add	r2,r3,r2
 1420384:	00c00c04 	movi	r3,48
 1420388:	10c00005 	stb	r3,0(r2)
 142038c:	e0800817 	ldw	r2,32(fp)
 1420390:	1080008c 	andi	r2,r2,2
 1420394:	10000e1e 	bne	r2,zero,14203d0 <_ntoa_format+0x94>
 1420398:	e0c00317 	ldw	r3,12(fp)
 142039c:	e0800617 	ldw	r2,24(fp)
 14203a0:	18800b2e 	bgeu	r3,r2,14203d0 <_ntoa_format+0x94>
 14203a4:	e0800317 	ldw	r2,12(fp)
 14203a8:	10800830 	cmpltui	r2,r2,32
 14203ac:	103ff01e 	bne	r2,zero,1420370 <__alt_data_end+0xfffe0370>
 14203b0:	00000706 	br	14203d0 <_ntoa_format+0x94>
 14203b4:	e0800317 	ldw	r2,12(fp)
 14203b8:	10c00044 	addi	r3,r2,1
 14203bc:	e0c00315 	stw	r3,12(fp)
 14203c0:	e0c00217 	ldw	r3,8(fp)
 14203c4:	1885883a 	add	r2,r3,r2
 14203c8:	00c00c04 	movi	r3,48
 14203cc:	10c00005 	stb	r3,0(r2)
 14203d0:	e0800817 	ldw	r2,32(fp)
 14203d4:	1080008c 	andi	r2,r2,2
 14203d8:	1000091e 	bne	r2,zero,1420400 <_ntoa_format+0xc4>
 14203dc:	e0800817 	ldw	r2,32(fp)
 14203e0:	1080004c 	andi	r2,r2,1
 14203e4:	10000626 	beq	r2,zero,1420400 <_ntoa_format+0xc4>
 14203e8:	e0c00317 	ldw	r3,12(fp)
 14203ec:	e0800717 	ldw	r2,28(fp)
 14203f0:	1880032e 	bgeu	r3,r2,1420400 <_ntoa_format+0xc4>
 14203f4:	e0800317 	ldw	r2,12(fp)
 14203f8:	10800830 	cmpltui	r2,r2,32
 14203fc:	103fed1e 	bne	r2,zero,14203b4 <__alt_data_end+0xfffe03b4>
 1420400:	e0800817 	ldw	r2,32(fp)
 1420404:	1080040c 	andi	r2,r2,16
 1420408:	10003d26 	beq	r2,zero,1420500 <_ntoa_format+0x1c4>
 142040c:	e0800317 	ldw	r2,12(fp)
 1420410:	10001126 	beq	r2,zero,1420458 <_ntoa_format+0x11c>
 1420414:	e0c00317 	ldw	r3,12(fp)
 1420418:	e0800617 	ldw	r2,24(fp)
 142041c:	18800326 	beq	r3,r2,142042c <_ntoa_format+0xf0>
 1420420:	e0c00317 	ldw	r3,12(fp)
 1420424:	e0800717 	ldw	r2,28(fp)
 1420428:	18800b1e 	bne	r3,r2,1420458 <_ntoa_format+0x11c>
 142042c:	e0800317 	ldw	r2,12(fp)
 1420430:	10bfffc4 	addi	r2,r2,-1
 1420434:	e0800315 	stw	r2,12(fp)
 1420438:	e0800317 	ldw	r2,12(fp)
 142043c:	10000626 	beq	r2,zero,1420458 <_ntoa_format+0x11c>
 1420440:	e0800517 	ldw	r2,20(fp)
 1420444:	10800418 	cmpnei	r2,r2,16
 1420448:	1000031e 	bne	r2,zero,1420458 <_ntoa_format+0x11c>
 142044c:	e0800317 	ldw	r2,12(fp)
 1420450:	10bfffc4 	addi	r2,r2,-1
 1420454:	e0800315 	stw	r2,12(fp)
 1420458:	e0800517 	ldw	r2,20(fp)
 142045c:	10800418 	cmpnei	r2,r2,16
 1420460:	10000d1e 	bne	r2,zero,1420498 <_ntoa_format+0x15c>
 1420464:	e0800817 	ldw	r2,32(fp)
 1420468:	1080080c 	andi	r2,r2,32
 142046c:	10000a1e 	bne	r2,zero,1420498 <_ntoa_format+0x15c>
 1420470:	e0800317 	ldw	r2,12(fp)
 1420474:	10800828 	cmpgeui	r2,r2,32
 1420478:	1000071e 	bne	r2,zero,1420498 <_ntoa_format+0x15c>
 142047c:	e0800317 	ldw	r2,12(fp)
 1420480:	10c00044 	addi	r3,r2,1
 1420484:	e0c00315 	stw	r3,12(fp)
 1420488:	e0c00217 	ldw	r3,8(fp)
 142048c:	1885883a 	add	r2,r3,r2
 1420490:	00c01e04 	movi	r3,120
 1420494:	10c00005 	stb	r3,0(r2)
 1420498:	e0800517 	ldw	r2,20(fp)
 142049c:	10800418 	cmpnei	r2,r2,16
 14204a0:	10000d1e 	bne	r2,zero,14204d8 <_ntoa_format+0x19c>
 14204a4:	e0800817 	ldw	r2,32(fp)
 14204a8:	1080080c 	andi	r2,r2,32
 14204ac:	10000a26 	beq	r2,zero,14204d8 <_ntoa_format+0x19c>
 14204b0:	e0800317 	ldw	r2,12(fp)
 14204b4:	10800828 	cmpgeui	r2,r2,32
 14204b8:	1000071e 	bne	r2,zero,14204d8 <_ntoa_format+0x19c>
 14204bc:	e0800317 	ldw	r2,12(fp)
 14204c0:	10c00044 	addi	r3,r2,1
 14204c4:	e0c00315 	stw	r3,12(fp)
 14204c8:	e0c00217 	ldw	r3,8(fp)
 14204cc:	1885883a 	add	r2,r3,r2
 14204d0:	00c01604 	movi	r3,88
 14204d4:	10c00005 	stb	r3,0(r2)
 14204d8:	e0800317 	ldw	r2,12(fp)
 14204dc:	10800828 	cmpgeui	r2,r2,32
 14204e0:	1000071e 	bne	r2,zero,1420500 <_ntoa_format+0x1c4>
 14204e4:	e0800317 	ldw	r2,12(fp)
 14204e8:	10c00044 	addi	r3,r2,1
 14204ec:	e0c00315 	stw	r3,12(fp)
 14204f0:	e0c00217 	ldw	r3,8(fp)
 14204f4:	1885883a 	add	r2,r3,r2
 14204f8:	00c00c04 	movi	r3,48
 14204fc:	10c00005 	stb	r3,0(r2)
 1420500:	e0800317 	ldw	r2,12(fp)
 1420504:	10000e26 	beq	r2,zero,1420540 <_ntoa_format+0x204>
 1420508:	e0c00317 	ldw	r3,12(fp)
 142050c:	e0800717 	ldw	r2,28(fp)
 1420510:	18800b1e 	bne	r3,r2,1420540 <_ntoa_format+0x204>
 1420514:	e0bfff03 	ldbu	r2,-4(fp)
 1420518:	1000061e 	bne	r2,zero,1420534 <_ntoa_format+0x1f8>
 142051c:	e0800817 	ldw	r2,32(fp)
 1420520:	1080010c 	andi	r2,r2,4
 1420524:	1000031e 	bne	r2,zero,1420534 <_ntoa_format+0x1f8>
 1420528:	e0800817 	ldw	r2,32(fp)
 142052c:	1080020c 	andi	r2,r2,8
 1420530:	10000326 	beq	r2,zero,1420540 <_ntoa_format+0x204>
 1420534:	e0800317 	ldw	r2,12(fp)
 1420538:	10bfffc4 	addi	r2,r2,-1
 142053c:	e0800315 	stw	r2,12(fp)
 1420540:	e0800317 	ldw	r2,12(fp)
 1420544:	10800828 	cmpgeui	r2,r2,32
 1420548:	10001f1e 	bne	r2,zero,14205c8 <_ntoa_format+0x28c>
 142054c:	e0bfff03 	ldbu	r2,-4(fp)
 1420550:	10000826 	beq	r2,zero,1420574 <_ntoa_format+0x238>
 1420554:	e0800317 	ldw	r2,12(fp)
 1420558:	10c00044 	addi	r3,r2,1
 142055c:	e0c00315 	stw	r3,12(fp)
 1420560:	e0c00217 	ldw	r3,8(fp)
 1420564:	1885883a 	add	r2,r3,r2
 1420568:	00c00b44 	movi	r3,45
 142056c:	10c00005 	stb	r3,0(r2)
 1420570:	00001506 	br	14205c8 <_ntoa_format+0x28c>
 1420574:	e0800817 	ldw	r2,32(fp)
 1420578:	1080010c 	andi	r2,r2,4
 142057c:	10000826 	beq	r2,zero,14205a0 <_ntoa_format+0x264>
 1420580:	e0800317 	ldw	r2,12(fp)
 1420584:	10c00044 	addi	r3,r2,1
 1420588:	e0c00315 	stw	r3,12(fp)
 142058c:	e0c00217 	ldw	r3,8(fp)
 1420590:	1885883a 	add	r2,r3,r2
 1420594:	00c00ac4 	movi	r3,43
 1420598:	10c00005 	stb	r3,0(r2)
 142059c:	00000a06 	br	14205c8 <_ntoa_format+0x28c>
 14205a0:	e0800817 	ldw	r2,32(fp)
 14205a4:	1080020c 	andi	r2,r2,8
 14205a8:	10000726 	beq	r2,zero,14205c8 <_ntoa_format+0x28c>
 14205ac:	e0800317 	ldw	r2,12(fp)
 14205b0:	10c00044 	addi	r3,r2,1
 14205b4:	e0c00315 	stw	r3,12(fp)
 14205b8:	e0c00217 	ldw	r3,8(fp)
 14205bc:	1885883a 	add	r2,r3,r2
 14205c0:	00c00804 	movi	r3,32
 14205c4:	10c00005 	stb	r3,0(r2)
 14205c8:	e0800817 	ldw	r2,32(fp)
 14205cc:	1080008c 	andi	r2,r2,2
 14205d0:	1000151e 	bne	r2,zero,1420628 <_ntoa_format+0x2ec>
 14205d4:	e0800817 	ldw	r2,32(fp)
 14205d8:	1080004c 	andi	r2,r2,1
 14205dc:	1000121e 	bne	r2,zero,1420628 <_ntoa_format+0x2ec>
 14205e0:	e0800317 	ldw	r2,12(fp)
 14205e4:	e0bff815 	stw	r2,-32(fp)
 14205e8:	00000c06 	br	142061c <_ntoa_format+0x2e0>
 14205ec:	e0bffd17 	ldw	r2,-12(fp)
 14205f0:	10c00044 	addi	r3,r2,1
 14205f4:	e0fffd15 	stw	r3,-12(fp)
 14205f8:	e0fffb17 	ldw	r3,-20(fp)
 14205fc:	e1fffe17 	ldw	r7,-8(fp)
 1420600:	100d883a 	mov	r6,r2
 1420604:	e17ffc17 	ldw	r5,-16(fp)
 1420608:	01000804 	movi	r4,32
 142060c:	183ee83a 	callr	r3
 1420610:	e0bff817 	ldw	r2,-32(fp)
 1420614:	10800044 	addi	r2,r2,1
 1420618:	e0bff815 	stw	r2,-32(fp)
 142061c:	e0fff817 	ldw	r3,-32(fp)
 1420620:	e0800717 	ldw	r2,28(fp)
 1420624:	18bff136 	bltu	r3,r2,14205ec <__alt_data_end+0xfffe05ec>
 1420628:	e03ff915 	stw	zero,-28(fp)
 142062c:	00001506 	br	1420684 <_ntoa_format+0x348>
 1420630:	e0c00317 	ldw	r3,12(fp)
 1420634:	e0bff917 	ldw	r2,-28(fp)
 1420638:	1885c83a 	sub	r2,r3,r2
 142063c:	10bfffc4 	addi	r2,r2,-1
 1420640:	e0c00217 	ldw	r3,8(fp)
 1420644:	1885883a 	add	r2,r3,r2
 1420648:	10800003 	ldbu	r2,0(r2)
 142064c:	11003fcc 	andi	r4,r2,255
 1420650:	2100201c 	xori	r4,r4,128
 1420654:	213fe004 	addi	r4,r4,-128
 1420658:	e0bffd17 	ldw	r2,-12(fp)
 142065c:	10c00044 	addi	r3,r2,1
 1420660:	e0fffd15 	stw	r3,-12(fp)
 1420664:	e0fffb17 	ldw	r3,-20(fp)
 1420668:	e1fffe17 	ldw	r7,-8(fp)
 142066c:	100d883a 	mov	r6,r2
 1420670:	e17ffc17 	ldw	r5,-16(fp)
 1420674:	183ee83a 	callr	r3
 1420678:	e0bff917 	ldw	r2,-28(fp)
 142067c:	10800044 	addi	r2,r2,1
 1420680:	e0bff915 	stw	r2,-28(fp)
 1420684:	e0fff917 	ldw	r3,-28(fp)
 1420688:	e0800317 	ldw	r2,12(fp)
 142068c:	18bfe836 	bltu	r3,r2,1420630 <__alt_data_end+0xfffe0630>
 1420690:	e0800817 	ldw	r2,32(fp)
 1420694:	1080008c 	andi	r2,r2,2
 1420698:	10000f26 	beq	r2,zero,14206d8 <_ntoa_format+0x39c>
 142069c:	00000906 	br	14206c4 <_ntoa_format+0x388>
 14206a0:	e0bffd17 	ldw	r2,-12(fp)
 14206a4:	10c00044 	addi	r3,r2,1
 14206a8:	e0fffd15 	stw	r3,-12(fp)
 14206ac:	e0fffb17 	ldw	r3,-20(fp)
 14206b0:	e1fffe17 	ldw	r7,-8(fp)
 14206b4:	100d883a 	mov	r6,r2
 14206b8:	e17ffc17 	ldw	r5,-16(fp)
 14206bc:	01000804 	movi	r4,32
 14206c0:	183ee83a 	callr	r3
 14206c4:	e0fffd17 	ldw	r3,-12(fp)
 14206c8:	e0bffa17 	ldw	r2,-24(fp)
 14206cc:	1887c83a 	sub	r3,r3,r2
 14206d0:	e0800717 	ldw	r2,28(fp)
 14206d4:	18bff236 	bltu	r3,r2,14206a0 <__alt_data_end+0xfffe06a0>
 14206d8:	e0bffd17 	ldw	r2,-12(fp)
 14206dc:	e037883a 	mov	sp,fp
 14206e0:	dfc00117 	ldw	ra,4(sp)
 14206e4:	df000017 	ldw	fp,0(sp)
 14206e8:	dec00204 	addi	sp,sp,8
 14206ec:	f800283a 	ret

014206f0 <_ntoa_long>:
 14206f0:	deffe804 	addi	sp,sp,-96
 14206f4:	dfc01715 	stw	ra,92(sp)
 14206f8:	df001615 	stw	fp,88(sp)
 14206fc:	df001604 	addi	fp,sp,88
 1420700:	e13ffb15 	stw	r4,-20(fp)
 1420704:	e17ffc15 	stw	r5,-16(fp)
 1420708:	e1bffd15 	stw	r6,-12(fp)
 142070c:	e1fffe15 	stw	r7,-8(fp)
 1420710:	e0800317 	ldw	r2,12(fp)
 1420714:	e0bfff05 	stb	r2,-4(fp)
 1420718:	e03ff115 	stw	zero,-60(fp)
 142071c:	e0800217 	ldw	r2,8(fp)
 1420720:	1000041e 	bne	r2,zero,1420734 <_ntoa_long+0x44>
 1420724:	e0c00717 	ldw	r3,28(fp)
 1420728:	00bffbc4 	movi	r2,-17
 142072c:	1884703a 	and	r2,r3,r2
 1420730:	e0800715 	stw	r2,28(fp)
 1420734:	e0800717 	ldw	r2,28(fp)
 1420738:	1081000c 	andi	r2,r2,1024
 142073c:	10000226 	beq	r2,zero,1420748 <_ntoa_long+0x58>
 1420740:	e0800217 	ldw	r2,8(fp)
 1420744:	10002526 	beq	r2,zero,14207dc <_ntoa_long+0xec>
 1420748:	e0800217 	ldw	r2,8(fp)
 142074c:	e1400417 	ldw	r5,16(fp)
 1420750:	1009883a 	mov	r4,r2
 1420754:	142883c0 	call	142883c <__umodsi3>
 1420758:	e0bff205 	stb	r2,-56(fp)
 142075c:	e0bff117 	ldw	r2,-60(fp)
 1420760:	10c00044 	addi	r3,r2,1
 1420764:	e0fff115 	stw	r3,-60(fp)
 1420768:	e0fff207 	ldb	r3,-56(fp)
 142076c:	18c00288 	cmpgei	r3,r3,10
 1420770:	1800041e 	bne	r3,zero,1420784 <_ntoa_long+0x94>
 1420774:	e0fff203 	ldbu	r3,-56(fp)
 1420778:	18c00c04 	addi	r3,r3,48
 142077c:	1809883a 	mov	r4,r3
 1420780:	00000a06 	br	14207ac <_ntoa_long+0xbc>
 1420784:	e0c00717 	ldw	r3,28(fp)
 1420788:	18c0080c 	andi	r3,r3,32
 142078c:	18000226 	beq	r3,zero,1420798 <_ntoa_long+0xa8>
 1420790:	00c01044 	movi	r3,65
 1420794:	00000106 	br	142079c <_ntoa_long+0xac>
 1420798:	00c01844 	movi	r3,97
 142079c:	e13ff203 	ldbu	r4,-56(fp)
 14207a0:	1907883a 	add	r3,r3,r4
 14207a4:	18fffd84 	addi	r3,r3,-10
 14207a8:	1809883a 	mov	r4,r3
 14207ac:	e0fff244 	addi	r3,fp,-55
 14207b0:	1885883a 	add	r2,r3,r2
 14207b4:	11000005 	stb	r4,0(r2)
 14207b8:	e1400417 	ldw	r5,16(fp)
 14207bc:	e1000217 	ldw	r4,8(fp)
 14207c0:	14287d80 	call	14287d8 <__udivsi3>
 14207c4:	e0800215 	stw	r2,8(fp)
 14207c8:	e0800217 	ldw	r2,8(fp)
 14207cc:	10000326 	beq	r2,zero,14207dc <_ntoa_long+0xec>
 14207d0:	e0bff117 	ldw	r2,-60(fp)
 14207d4:	10800830 	cmpltui	r2,r2,32
 14207d8:	103fdb1e 	bne	r2,zero,1420748 <__alt_data_end+0xfffe0748>
 14207dc:	e0bfff03 	ldbu	r2,-4(fp)
 14207e0:	e0c00717 	ldw	r3,28(fp)
 14207e4:	d8c00615 	stw	r3,24(sp)
 14207e8:	e0c00617 	ldw	r3,24(fp)
 14207ec:	d8c00515 	stw	r3,20(sp)
 14207f0:	e0c00517 	ldw	r3,20(fp)
 14207f4:	d8c00415 	stw	r3,16(sp)
 14207f8:	e0c00417 	ldw	r3,16(fp)
 14207fc:	d8c00315 	stw	r3,12(sp)
 1420800:	d8800215 	stw	r2,8(sp)
 1420804:	e0bff117 	ldw	r2,-60(fp)
 1420808:	d8800115 	stw	r2,4(sp)
 142080c:	e0bff244 	addi	r2,fp,-55
 1420810:	d8800015 	stw	r2,0(sp)
 1420814:	e1fffe17 	ldw	r7,-8(fp)
 1420818:	e1bffd17 	ldw	r6,-12(fp)
 142081c:	e17ffc17 	ldw	r5,-16(fp)
 1420820:	e13ffb17 	ldw	r4,-20(fp)
 1420824:	142033c0 	call	142033c <_ntoa_format>
 1420828:	e037883a 	mov	sp,fp
 142082c:	dfc00117 	ldw	ra,4(sp)
 1420830:	df000017 	ldw	fp,0(sp)
 1420834:	dec00204 	addi	sp,sp,8
 1420838:	f800283a 	ret

0142083c <_ntoa_long_long>:
 142083c:	deffe804 	addi	sp,sp,-96
 1420840:	dfc01715 	stw	ra,92(sp)
 1420844:	df001615 	stw	fp,88(sp)
 1420848:	df001604 	addi	fp,sp,88
 142084c:	e13ffb15 	stw	r4,-20(fp)
 1420850:	e17ffc15 	stw	r5,-16(fp)
 1420854:	e1bffd15 	stw	r6,-12(fp)
 1420858:	e1fffe15 	stw	r7,-8(fp)
 142085c:	e0800417 	ldw	r2,16(fp)
 1420860:	e0bfff05 	stb	r2,-4(fp)
 1420864:	e03ff115 	stw	zero,-60(fp)
 1420868:	e0800217 	ldw	r2,8(fp)
 142086c:	e0c00317 	ldw	r3,12(fp)
 1420870:	10c4b03a 	or	r2,r2,r3
 1420874:	1000041e 	bne	r2,zero,1420888 <_ntoa_long_long+0x4c>
 1420878:	e0c00917 	ldw	r3,36(fp)
 142087c:	00bffbc4 	movi	r2,-17
 1420880:	1884703a 	and	r2,r3,r2
 1420884:	e0800915 	stw	r2,36(fp)
 1420888:	e0800917 	ldw	r2,36(fp)
 142088c:	1081000c 	andi	r2,r2,1024
 1420890:	10000426 	beq	r2,zero,14208a4 <_ntoa_long_long+0x68>
 1420894:	e0800217 	ldw	r2,8(fp)
 1420898:	e0c00317 	ldw	r3,12(fp)
 142089c:	10c4b03a 	or	r2,r2,r3
 14208a0:	10003326 	beq	r2,zero,1420970 <_ntoa_long_long+0x134>
 14208a4:	e0800217 	ldw	r2,8(fp)
 14208a8:	e0c00317 	ldw	r3,12(fp)
 14208ac:	e1800517 	ldw	r6,20(fp)
 14208b0:	e1c00617 	ldw	r7,24(fp)
 14208b4:	1009883a 	mov	r4,r2
 14208b8:	180b883a 	mov	r5,r3
 14208bc:	142811c0 	call	142811c <__umoddi3>
 14208c0:	1009883a 	mov	r4,r2
 14208c4:	180b883a 	mov	r5,r3
 14208c8:	2005883a 	mov	r2,r4
 14208cc:	2807883a 	mov	r3,r5
 14208d0:	e0bff205 	stb	r2,-56(fp)
 14208d4:	e0bff117 	ldw	r2,-60(fp)
 14208d8:	10c00044 	addi	r3,r2,1
 14208dc:	e0fff115 	stw	r3,-60(fp)
 14208e0:	e0fff207 	ldb	r3,-56(fp)
 14208e4:	18c00288 	cmpgei	r3,r3,10
 14208e8:	1800041e 	bne	r3,zero,14208fc <_ntoa_long_long+0xc0>
 14208ec:	e0fff203 	ldbu	r3,-56(fp)
 14208f0:	18c00c04 	addi	r3,r3,48
 14208f4:	1809883a 	mov	r4,r3
 14208f8:	00000a06 	br	1420924 <_ntoa_long_long+0xe8>
 14208fc:	e0c00917 	ldw	r3,36(fp)
 1420900:	18c0080c 	andi	r3,r3,32
 1420904:	18000226 	beq	r3,zero,1420910 <_ntoa_long_long+0xd4>
 1420908:	00c01044 	movi	r3,65
 142090c:	00000106 	br	1420914 <_ntoa_long_long+0xd8>
 1420910:	00c01844 	movi	r3,97
 1420914:	e13ff203 	ldbu	r4,-56(fp)
 1420918:	1907883a 	add	r3,r3,r4
 142091c:	18fffd84 	addi	r3,r3,-10
 1420920:	1809883a 	mov	r4,r3
 1420924:	e0fff244 	addi	r3,fp,-55
 1420928:	1885883a 	add	r2,r3,r2
 142092c:	11000005 	stb	r4,0(r2)
 1420930:	e1800517 	ldw	r6,20(fp)
 1420934:	e1c00617 	ldw	r7,24(fp)
 1420938:	e1000217 	ldw	r4,8(fp)
 142093c:	e1400317 	ldw	r5,12(fp)
 1420940:	1427b200 	call	1427b20 <__udivdi3>
 1420944:	1009883a 	mov	r4,r2
 1420948:	180b883a 	mov	r5,r3
 142094c:	e1000215 	stw	r4,8(fp)
 1420950:	e1400315 	stw	r5,12(fp)
 1420954:	e0800217 	ldw	r2,8(fp)
 1420958:	e0c00317 	ldw	r3,12(fp)
 142095c:	10c4b03a 	or	r2,r2,r3
 1420960:	10000326 	beq	r2,zero,1420970 <_ntoa_long_long+0x134>
 1420964:	e0bff117 	ldw	r2,-60(fp)
 1420968:	10800830 	cmpltui	r2,r2,32
 142096c:	103fcd1e 	bne	r2,zero,14208a4 <__alt_data_end+0xfffe08a4>
 1420970:	e0bfff03 	ldbu	r2,-4(fp)
 1420974:	e0c00517 	ldw	r3,20(fp)
 1420978:	e1000917 	ldw	r4,36(fp)
 142097c:	d9000615 	stw	r4,24(sp)
 1420980:	e1000817 	ldw	r4,32(fp)
 1420984:	d9000515 	stw	r4,20(sp)
 1420988:	e1000717 	ldw	r4,28(fp)
 142098c:	d9000415 	stw	r4,16(sp)
 1420990:	d8c00315 	stw	r3,12(sp)
 1420994:	d8800215 	stw	r2,8(sp)
 1420998:	e0bff117 	ldw	r2,-60(fp)
 142099c:	d8800115 	stw	r2,4(sp)
 14209a0:	e0bff244 	addi	r2,fp,-55
 14209a4:	d8800015 	stw	r2,0(sp)
 14209a8:	e1fffe17 	ldw	r7,-8(fp)
 14209ac:	e1bffd17 	ldw	r6,-12(fp)
 14209b0:	e17ffc17 	ldw	r5,-16(fp)
 14209b4:	e13ffb17 	ldw	r4,-20(fp)
 14209b8:	142033c0 	call	142033c <_ntoa_format>
 14209bc:	e037883a 	mov	sp,fp
 14209c0:	dfc00117 	ldw	ra,4(sp)
 14209c4:	df000017 	ldw	fp,0(sp)
 14209c8:	dec00204 	addi	sp,sp,8
 14209cc:	f800283a 	ret

014209d0 <_ftoa>:
 14209d0:	deffe304 	addi	sp,sp,-116
 14209d4:	dfc01c15 	stw	ra,112(sp)
 14209d8:	df001b15 	stw	fp,108(sp)
 14209dc:	dc001a15 	stw	r16,104(sp)
 14209e0:	df001b04 	addi	fp,sp,108
 14209e4:	e13ffb15 	stw	r4,-20(fp)
 14209e8:	e17ffc15 	stw	r5,-16(fp)
 14209ec:	e1bffd15 	stw	r6,-12(fp)
 14209f0:	e1fffe15 	stw	r7,-8(fp)
 14209f4:	e0bffd17 	ldw	r2,-12(fp)
 14209f8:	e0bfec15 	stw	r2,-80(fp)
 14209fc:	e03fe515 	stw	zero,-108(fp)
 1420a00:	e03fed15 	stw	zero,-76(fp)
 1420a04:	e03fee15 	stw	zero,-72(fp)
 1420a08:	00bff034 	movhi	r2,65472
 1420a0c:	e0bfef15 	stw	r2,-68(fp)
 1420a10:	00907834 	movhi	r2,16864
 1420a14:	10bfffc4 	addi	r2,r2,-1
 1420a18:	e0bff015 	stw	r2,-64(fp)
 1420a1c:	e03fe605 	stb	zero,-104(fp)
 1420a20:	000d883a 	mov	r6,zero
 1420a24:	000f883a 	mov	r7,zero
 1420a28:	e1000217 	ldw	r4,8(fp)
 1420a2c:	e1400317 	ldw	r5,12(fp)
 1420a30:	142a4840 	call	142a484 <__ledf2>
 1420a34:	10000b0e 	bge	r2,zero,1420a64 <_ftoa+0x94>
 1420a38:	00800044 	movi	r2,1
 1420a3c:	e0bfe605 	stb	r2,-104(fp)
 1420a40:	e1800217 	ldw	r6,8(fp)
 1420a44:	e1c00317 	ldw	r7,12(fp)
 1420a48:	0009883a 	mov	r4,zero
 1420a4c:	000b883a 	mov	r5,zero
 1420a50:	142ade40 	call	142ade4 <__subdf3>
 1420a54:	1009883a 	mov	r4,r2
 1420a58:	180b883a 	mov	r5,r3
 1420a5c:	e1000215 	stw	r4,8(fp)
 1420a60:	e1400315 	stw	r5,12(fp)
 1420a64:	e0800617 	ldw	r2,24(fp)
 1420a68:	1081000c 	andi	r2,r2,1024
 1420a6c:	10000d1e 	bne	r2,zero,1420aa4 <_ftoa+0xd4>
 1420a70:	00800184 	movi	r2,6
 1420a74:	e0800415 	stw	r2,16(fp)
 1420a78:	00000a06 	br	1420aa4 <_ftoa+0xd4>
 1420a7c:	e0bfe517 	ldw	r2,-108(fp)
 1420a80:	10c00044 	addi	r3,r2,1
 1420a84:	e0ffe515 	stw	r3,-108(fp)
 1420a88:	e0fff304 	addi	r3,fp,-52
 1420a8c:	1885883a 	add	r2,r3,r2
 1420a90:	00c00c04 	movi	r3,48
 1420a94:	10c00005 	stb	r3,0(r2)
 1420a98:	e0800417 	ldw	r2,16(fp)
 1420a9c:	10bfffc4 	addi	r2,r2,-1
 1420aa0:	e0800415 	stw	r2,16(fp)
 1420aa4:	e0bfe517 	ldw	r2,-108(fp)
 1420aa8:	10800828 	cmpgeui	r2,r2,32
 1420aac:	1000031e 	bne	r2,zero,1420abc <_ftoa+0xec>
 1420ab0:	e0800417 	ldw	r2,16(fp)
 1420ab4:	108002a8 	cmpgeui	r2,r2,10
 1420ab8:	103ff01e 	bne	r2,zero,1420a7c <__alt_data_end+0xfffe0a7c>
 1420abc:	e1000217 	ldw	r4,8(fp)
 1420ac0:	e1400317 	ldw	r5,12(fp)
 1420ac4:	142b6e00 	call	142b6e0 <__fixdfsi>
 1420ac8:	e0bfe715 	stw	r2,-100(fp)
 1420acc:	e13fe717 	ldw	r4,-100(fp)
 1420ad0:	142b7600 	call	142b760 <__floatsidf>
 1420ad4:	1009883a 	mov	r4,r2
 1420ad8:	180b883a 	mov	r5,r3
 1420adc:	200d883a 	mov	r6,r4
 1420ae0:	280f883a 	mov	r7,r5
 1420ae4:	e1000217 	ldw	r4,8(fp)
 1420ae8:	e1400317 	ldw	r5,12(fp)
 1420aec:	142ade40 	call	142ade4 <__subdf3>
 1420af0:	1009883a 	mov	r4,r2
 1420af4:	180b883a 	mov	r5,r3
 1420af8:	2011883a 	mov	r8,r4
 1420afc:	2813883a 	mov	r9,r5
 1420b00:	008050f4 	movhi	r2,323
 1420b04:	10b70004 	addi	r2,r2,-9216
 1420b08:	e0c00417 	ldw	r3,16(fp)
 1420b0c:	180690fa 	slli	r3,r3,3
 1420b10:	10c9883a 	add	r4,r2,r3
 1420b14:	20800017 	ldw	r2,0(r4)
 1420b18:	20c00117 	ldw	r3,4(r4)
 1420b1c:	100d883a 	mov	r6,r2
 1420b20:	180f883a 	mov	r7,r3
 1420b24:	4009883a 	mov	r4,r8
 1420b28:	480b883a 	mov	r5,r9
 1420b2c:	142a5780 	call	142a578 <__muldf3>
 1420b30:	1009883a 	mov	r4,r2
 1420b34:	180b883a 	mov	r5,r3
 1420b38:	e13ff115 	stw	r4,-60(fp)
 1420b3c:	e17ff215 	stw	r5,-56(fp)
 1420b40:	e13ff117 	ldw	r4,-60(fp)
 1420b44:	e17ff217 	ldw	r5,-56(fp)
 1420b48:	1427aac0 	call	1427aac <__fixunsdfsi>
 1420b4c:	e0bfe815 	stw	r2,-96(fp)
 1420b50:	e13fe817 	ldw	r4,-96(fp)
 1420b54:	142b83c0 	call	142b83c <__floatunsidf>
 1420b58:	1009883a 	mov	r4,r2
 1420b5c:	180b883a 	mov	r5,r3
 1420b60:	200d883a 	mov	r6,r4
 1420b64:	280f883a 	mov	r7,r5
 1420b68:	e13ff117 	ldw	r4,-60(fp)
 1420b6c:	e17ff217 	ldw	r5,-56(fp)
 1420b70:	142ade40 	call	142ade4 <__subdf3>
 1420b74:	1009883a 	mov	r4,r2
 1420b78:	180b883a 	mov	r5,r3
 1420b7c:	e13fed15 	stw	r4,-76(fp)
 1420b80:	e17fee15 	stw	r5,-72(fp)
 1420b84:	000d883a 	mov	r6,zero
 1420b88:	01cff834 	movhi	r7,16352
 1420b8c:	e13fed17 	ldw	r4,-76(fp)
 1420b90:	e17fee17 	ldw	r5,-72(fp)
 1420b94:	142a3a80 	call	142a3a8 <__gedf2>
 1420b98:	0080190e 	bge	zero,r2,1420c00 <_ftoa+0x230>
 1420b9c:	e0bfe817 	ldw	r2,-96(fp)
 1420ba0:	10800044 	addi	r2,r2,1
 1420ba4:	e0bfe815 	stw	r2,-96(fp)
 1420ba8:	e13fe817 	ldw	r4,-96(fp)
 1420bac:	142b83c0 	call	142b83c <__floatunsidf>
 1420bb0:	1011883a 	mov	r8,r2
 1420bb4:	1813883a 	mov	r9,r3
 1420bb8:	008050f4 	movhi	r2,323
 1420bbc:	10b70004 	addi	r2,r2,-9216
 1420bc0:	e0c00417 	ldw	r3,16(fp)
 1420bc4:	180690fa 	slli	r3,r3,3
 1420bc8:	10c9883a 	add	r4,r2,r3
 1420bcc:	20800017 	ldw	r2,0(r4)
 1420bd0:	20c00117 	ldw	r3,4(r4)
 1420bd4:	100d883a 	mov	r6,r2
 1420bd8:	180f883a 	mov	r7,r3
 1420bdc:	4009883a 	mov	r4,r8
 1420be0:	480b883a 	mov	r5,r9
 1420be4:	142a3a80 	call	142a3a8 <__gedf2>
 1420be8:	10001316 	blt	r2,zero,1420c38 <_ftoa+0x268>
 1420bec:	e03fe815 	stw	zero,-96(fp)
 1420bf0:	e0bfe717 	ldw	r2,-100(fp)
 1420bf4:	10800044 	addi	r2,r2,1
 1420bf8:	e0bfe715 	stw	r2,-100(fp)
 1420bfc:	00000e06 	br	1420c38 <_ftoa+0x268>
 1420c00:	000d883a 	mov	r6,zero
 1420c04:	01cff834 	movhi	r7,16352
 1420c08:	e13fed17 	ldw	r4,-76(fp)
 1420c0c:	e17fee17 	ldw	r5,-72(fp)
 1420c10:	142a3200 	call	142a320 <__eqdf2>
 1420c14:	1000081e 	bne	r2,zero,1420c38 <_ftoa+0x268>
 1420c18:	e0bfe817 	ldw	r2,-96(fp)
 1420c1c:	10000326 	beq	r2,zero,1420c2c <_ftoa+0x25c>
 1420c20:	e0bfe817 	ldw	r2,-96(fp)
 1420c24:	1080004c 	andi	r2,r2,1
 1420c28:	10000326 	beq	r2,zero,1420c38 <_ftoa+0x268>
 1420c2c:	e0bfe817 	ldw	r2,-96(fp)
 1420c30:	10800044 	addi	r2,r2,1
 1420c34:	e0bfe815 	stw	r2,-96(fp)
 1420c38:	e1bfef17 	ldw	r6,-68(fp)
 1420c3c:	e1fff017 	ldw	r7,-64(fp)
 1420c40:	e1000217 	ldw	r4,8(fp)
 1420c44:	e1400317 	ldw	r5,12(fp)
 1420c48:	142a3a80 	call	142a3a8 <__gedf2>
 1420c4c:	0080020e 	bge	zero,r2,1420c58 <_ftoa+0x288>
 1420c50:	0005883a 	mov	r2,zero
 1420c54:	0000ff06 	br	1421054 <_ftoa+0x684>
 1420c58:	e0800417 	ldw	r2,16(fp)
 1420c5c:	1000241e 	bne	r2,zero,1420cf0 <_ftoa+0x320>
 1420c60:	e13fe717 	ldw	r4,-100(fp)
 1420c64:	142b7600 	call	142b760 <__floatsidf>
 1420c68:	1009883a 	mov	r4,r2
 1420c6c:	180b883a 	mov	r5,r3
 1420c70:	200d883a 	mov	r6,r4
 1420c74:	280f883a 	mov	r7,r5
 1420c78:	e1000217 	ldw	r4,8(fp)
 1420c7c:	e1400317 	ldw	r5,12(fp)
 1420c80:	142ade40 	call	142ade4 <__subdf3>
 1420c84:	1009883a 	mov	r4,r2
 1420c88:	180b883a 	mov	r5,r3
 1420c8c:	e13fed15 	stw	r4,-76(fp)
 1420c90:	e17fee15 	stw	r5,-72(fp)
 1420c94:	000d883a 	mov	r6,zero
 1420c98:	01cff834 	movhi	r7,16352
 1420c9c:	e13fed17 	ldw	r4,-76(fp)
 1420ca0:	e17fee17 	ldw	r5,-72(fp)
 1420ca4:	142a3a80 	call	142a3a8 <__gedf2>
 1420ca8:	0080040e 	bge	zero,r2,1420cbc <_ftoa+0x2ec>
 1420cac:	e0bfe717 	ldw	r2,-100(fp)
 1420cb0:	10800044 	addi	r2,r2,1
 1420cb4:	e0bfe715 	stw	r2,-100(fp)
 1420cb8:	00005806 	br	1420e1c <_ftoa+0x44c>
 1420cbc:	000d883a 	mov	r6,zero
 1420cc0:	01cff834 	movhi	r7,16352
 1420cc4:	e13fed17 	ldw	r4,-76(fp)
 1420cc8:	e17fee17 	ldw	r5,-72(fp)
 1420ccc:	142a3200 	call	142a320 <__eqdf2>
 1420cd0:	1000521e 	bne	r2,zero,1420e1c <_ftoa+0x44c>
 1420cd4:	e0bfe717 	ldw	r2,-100(fp)
 1420cd8:	1080004c 	andi	r2,r2,1
 1420cdc:	10004f26 	beq	r2,zero,1420e1c <_ftoa+0x44c>
 1420ce0:	e0bfe717 	ldw	r2,-100(fp)
 1420ce4:	10800044 	addi	r2,r2,1
 1420ce8:	e0bfe715 	stw	r2,-100(fp)
 1420cec:	00004b06 	br	1420e1c <_ftoa+0x44c>
 1420cf0:	e0800417 	ldw	r2,16(fp)
 1420cf4:	e0bfe915 	stw	r2,-92(fp)
 1420cf8:	00001606 	br	1420d54 <_ftoa+0x384>
 1420cfc:	e0bfe917 	ldw	r2,-92(fp)
 1420d00:	10bfffc4 	addi	r2,r2,-1
 1420d04:	e0bfe915 	stw	r2,-92(fp)
 1420d08:	e43fe517 	ldw	r16,-108(fp)
 1420d0c:	80800044 	addi	r2,r16,1
 1420d10:	e0bfe515 	stw	r2,-108(fp)
 1420d14:	e0bfe817 	ldw	r2,-96(fp)
 1420d18:	01400284 	movi	r5,10
 1420d1c:	1009883a 	mov	r4,r2
 1420d20:	142883c0 	call	142883c <__umodsi3>
 1420d24:	10800c04 	addi	r2,r2,48
 1420d28:	1007883a 	mov	r3,r2
 1420d2c:	e0bff304 	addi	r2,fp,-52
 1420d30:	1405883a 	add	r2,r2,r16
 1420d34:	10c00005 	stb	r3,0(r2)
 1420d38:	e0bfe817 	ldw	r2,-96(fp)
 1420d3c:	01400284 	movi	r5,10
 1420d40:	1009883a 	mov	r4,r2
 1420d44:	14287d80 	call	14287d8 <__udivsi3>
 1420d48:	e0bfe815 	stw	r2,-96(fp)
 1420d4c:	e0bfe817 	ldw	r2,-96(fp)
 1420d50:	10000426 	beq	r2,zero,1420d64 <_ftoa+0x394>
 1420d54:	e0bfe517 	ldw	r2,-108(fp)
 1420d58:	10800830 	cmpltui	r2,r2,32
 1420d5c:	103fe71e 	bne	r2,zero,1420cfc <__alt_data_end+0xfffe0cfc>
 1420d60:	00000906 	br	1420d88 <_ftoa+0x3b8>
 1420d64:	0001883a 	nop
 1420d68:	00000706 	br	1420d88 <_ftoa+0x3b8>
 1420d6c:	e0bfe517 	ldw	r2,-108(fp)
 1420d70:	10c00044 	addi	r3,r2,1
 1420d74:	e0ffe515 	stw	r3,-108(fp)
 1420d78:	e0fff304 	addi	r3,fp,-52
 1420d7c:	1885883a 	add	r2,r3,r2
 1420d80:	00c00c04 	movi	r3,48
 1420d84:	10c00005 	stb	r3,0(r2)
 1420d88:	e0bfe517 	ldw	r2,-108(fp)
 1420d8c:	10800828 	cmpgeui	r2,r2,32
 1420d90:	1000041e 	bne	r2,zero,1420da4 <_ftoa+0x3d4>
 1420d94:	e0bfe917 	ldw	r2,-92(fp)
 1420d98:	10ffffc4 	addi	r3,r2,-1
 1420d9c:	e0ffe915 	stw	r3,-92(fp)
 1420da0:	103ff21e 	bne	r2,zero,1420d6c <__alt_data_end+0xfffe0d6c>
 1420da4:	e0bfe517 	ldw	r2,-108(fp)
 1420da8:	10800828 	cmpgeui	r2,r2,32
 1420dac:	10001b1e 	bne	r2,zero,1420e1c <_ftoa+0x44c>
 1420db0:	e0bfe517 	ldw	r2,-108(fp)
 1420db4:	10c00044 	addi	r3,r2,1
 1420db8:	e0ffe515 	stw	r3,-108(fp)
 1420dbc:	e0fff304 	addi	r3,fp,-52
 1420dc0:	1885883a 	add	r2,r3,r2
 1420dc4:	00c00b84 	movi	r3,46
 1420dc8:	10c00005 	stb	r3,0(r2)
 1420dcc:	00001306 	br	1420e1c <_ftoa+0x44c>
 1420dd0:	e43fe517 	ldw	r16,-108(fp)
 1420dd4:	80800044 	addi	r2,r16,1
 1420dd8:	e0bfe515 	stw	r2,-108(fp)
 1420ddc:	e0bfe717 	ldw	r2,-100(fp)
 1420de0:	01400284 	movi	r5,10
 1420de4:	1009883a 	mov	r4,r2
 1420de8:	14287640 	call	1428764 <__modsi3>
 1420dec:	10800c04 	addi	r2,r2,48
 1420df0:	1007883a 	mov	r3,r2
 1420df4:	e0bff304 	addi	r2,fp,-52
 1420df8:	1405883a 	add	r2,r2,r16
 1420dfc:	10c00005 	stb	r3,0(r2)
 1420e00:	e0bfe717 	ldw	r2,-100(fp)
 1420e04:	01400284 	movi	r5,10
 1420e08:	1009883a 	mov	r4,r2
 1420e0c:	14286e00 	call	14286e0 <__divsi3>
 1420e10:	e0bfe715 	stw	r2,-100(fp)
 1420e14:	e0bfe717 	ldw	r2,-100(fp)
 1420e18:	10000426 	beq	r2,zero,1420e2c <_ftoa+0x45c>
 1420e1c:	e0bfe517 	ldw	r2,-108(fp)
 1420e20:	10800830 	cmpltui	r2,r2,32
 1420e24:	103fea1e 	bne	r2,zero,1420dd0 <__alt_data_end+0xfffe0dd0>
 1420e28:	00000906 	br	1420e50 <_ftoa+0x480>
 1420e2c:	0001883a 	nop
 1420e30:	00000706 	br	1420e50 <_ftoa+0x480>
 1420e34:	e0bfe517 	ldw	r2,-108(fp)
 1420e38:	10c00044 	addi	r3,r2,1
 1420e3c:	e0ffe515 	stw	r3,-108(fp)
 1420e40:	e0fff304 	addi	r3,fp,-52
 1420e44:	1885883a 	add	r2,r3,r2
 1420e48:	00c00c04 	movi	r3,48
 1420e4c:	10c00005 	stb	r3,0(r2)
 1420e50:	e0800617 	ldw	r2,24(fp)
 1420e54:	1080008c 	andi	r2,r2,2
 1420e58:	1000091e 	bne	r2,zero,1420e80 <_ftoa+0x4b0>
 1420e5c:	e0800617 	ldw	r2,24(fp)
 1420e60:	1080004c 	andi	r2,r2,1
 1420e64:	10000626 	beq	r2,zero,1420e80 <_ftoa+0x4b0>
 1420e68:	e0ffe517 	ldw	r3,-108(fp)
 1420e6c:	e0800517 	ldw	r2,20(fp)
 1420e70:	1880032e 	bgeu	r3,r2,1420e80 <_ftoa+0x4b0>
 1420e74:	e0bfe517 	ldw	r2,-108(fp)
 1420e78:	10800830 	cmpltui	r2,r2,32
 1420e7c:	103fed1e 	bne	r2,zero,1420e34 <__alt_data_end+0xfffe0e34>
 1420e80:	e0ffe517 	ldw	r3,-108(fp)
 1420e84:	e0800517 	ldw	r2,20(fp)
 1420e88:	18800b1e 	bne	r3,r2,1420eb8 <_ftoa+0x4e8>
 1420e8c:	e0bfe603 	ldbu	r2,-104(fp)
 1420e90:	1000061e 	bne	r2,zero,1420eac <_ftoa+0x4dc>
 1420e94:	e0800617 	ldw	r2,24(fp)
 1420e98:	1080010c 	andi	r2,r2,4
 1420e9c:	1000031e 	bne	r2,zero,1420eac <_ftoa+0x4dc>
 1420ea0:	e0800617 	ldw	r2,24(fp)
 1420ea4:	1080020c 	andi	r2,r2,8
 1420ea8:	10000326 	beq	r2,zero,1420eb8 <_ftoa+0x4e8>
 1420eac:	e0bfe517 	ldw	r2,-108(fp)
 1420eb0:	10bfffc4 	addi	r2,r2,-1
 1420eb4:	e0bfe515 	stw	r2,-108(fp)
 1420eb8:	e0bfe517 	ldw	r2,-108(fp)
 1420ebc:	10800828 	cmpgeui	r2,r2,32
 1420ec0:	10001f1e 	bne	r2,zero,1420f40 <_ftoa+0x570>
 1420ec4:	e0bfe603 	ldbu	r2,-104(fp)
 1420ec8:	10000826 	beq	r2,zero,1420eec <_ftoa+0x51c>
 1420ecc:	e0bfe517 	ldw	r2,-108(fp)
 1420ed0:	10c00044 	addi	r3,r2,1
 1420ed4:	e0ffe515 	stw	r3,-108(fp)
 1420ed8:	e0fff304 	addi	r3,fp,-52
 1420edc:	1885883a 	add	r2,r3,r2
 1420ee0:	00c00b44 	movi	r3,45
 1420ee4:	10c00005 	stb	r3,0(r2)
 1420ee8:	00001506 	br	1420f40 <_ftoa+0x570>
 1420eec:	e0800617 	ldw	r2,24(fp)
 1420ef0:	1080010c 	andi	r2,r2,4
 1420ef4:	10000826 	beq	r2,zero,1420f18 <_ftoa+0x548>
 1420ef8:	e0bfe517 	ldw	r2,-108(fp)
 1420efc:	10c00044 	addi	r3,r2,1
 1420f00:	e0ffe515 	stw	r3,-108(fp)
 1420f04:	e0fff304 	addi	r3,fp,-52
 1420f08:	1885883a 	add	r2,r3,r2
 1420f0c:	00c00ac4 	movi	r3,43
 1420f10:	10c00005 	stb	r3,0(r2)
 1420f14:	00000a06 	br	1420f40 <_ftoa+0x570>
 1420f18:	e0800617 	ldw	r2,24(fp)
 1420f1c:	1080020c 	andi	r2,r2,8
 1420f20:	10000726 	beq	r2,zero,1420f40 <_ftoa+0x570>
 1420f24:	e0bfe517 	ldw	r2,-108(fp)
 1420f28:	10c00044 	addi	r3,r2,1
 1420f2c:	e0ffe515 	stw	r3,-108(fp)
 1420f30:	e0fff304 	addi	r3,fp,-52
 1420f34:	1885883a 	add	r2,r3,r2
 1420f38:	00c00804 	movi	r3,32
 1420f3c:	10c00005 	stb	r3,0(r2)
 1420f40:	e0800617 	ldw	r2,24(fp)
 1420f44:	1080008c 	andi	r2,r2,2
 1420f48:	1000151e 	bne	r2,zero,1420fa0 <_ftoa+0x5d0>
 1420f4c:	e0800617 	ldw	r2,24(fp)
 1420f50:	1080004c 	andi	r2,r2,1
 1420f54:	1000121e 	bne	r2,zero,1420fa0 <_ftoa+0x5d0>
 1420f58:	e0bfe517 	ldw	r2,-108(fp)
 1420f5c:	e0bfea15 	stw	r2,-88(fp)
 1420f60:	00000c06 	br	1420f94 <_ftoa+0x5c4>
 1420f64:	e0bffd17 	ldw	r2,-12(fp)
 1420f68:	10c00044 	addi	r3,r2,1
 1420f6c:	e0fffd15 	stw	r3,-12(fp)
 1420f70:	e0fffb17 	ldw	r3,-20(fp)
 1420f74:	e1fffe17 	ldw	r7,-8(fp)
 1420f78:	100d883a 	mov	r6,r2
 1420f7c:	e17ffc17 	ldw	r5,-16(fp)
 1420f80:	01000804 	movi	r4,32
 1420f84:	183ee83a 	callr	r3
 1420f88:	e0bfea17 	ldw	r2,-88(fp)
 1420f8c:	10800044 	addi	r2,r2,1
 1420f90:	e0bfea15 	stw	r2,-88(fp)
 1420f94:	e0ffea17 	ldw	r3,-88(fp)
 1420f98:	e0800517 	ldw	r2,20(fp)
 1420f9c:	18bff136 	bltu	r3,r2,1420f64 <__alt_data_end+0xfffe0f64>
 1420fa0:	e03feb15 	stw	zero,-84(fp)
 1420fa4:	00001506 	br	1420ffc <_ftoa+0x62c>
 1420fa8:	e0ffe517 	ldw	r3,-108(fp)
 1420fac:	e0bfeb17 	ldw	r2,-84(fp)
 1420fb0:	1885c83a 	sub	r2,r3,r2
 1420fb4:	10bfffc4 	addi	r2,r2,-1
 1420fb8:	e0fff304 	addi	r3,fp,-52
 1420fbc:	1885883a 	add	r2,r3,r2
 1420fc0:	10800003 	ldbu	r2,0(r2)
 1420fc4:	11003fcc 	andi	r4,r2,255
 1420fc8:	2100201c 	xori	r4,r4,128
 1420fcc:	213fe004 	addi	r4,r4,-128
 1420fd0:	e0bffd17 	ldw	r2,-12(fp)
 1420fd4:	10c00044 	addi	r3,r2,1
 1420fd8:	e0fffd15 	stw	r3,-12(fp)
 1420fdc:	e0fffb17 	ldw	r3,-20(fp)
 1420fe0:	e1fffe17 	ldw	r7,-8(fp)
 1420fe4:	100d883a 	mov	r6,r2
 1420fe8:	e17ffc17 	ldw	r5,-16(fp)
 1420fec:	183ee83a 	callr	r3
 1420ff0:	e0bfeb17 	ldw	r2,-84(fp)
 1420ff4:	10800044 	addi	r2,r2,1
 1420ff8:	e0bfeb15 	stw	r2,-84(fp)
 1420ffc:	e0ffeb17 	ldw	r3,-84(fp)
 1421000:	e0bfe517 	ldw	r2,-108(fp)
 1421004:	18bfe836 	bltu	r3,r2,1420fa8 <__alt_data_end+0xfffe0fa8>
 1421008:	e0800617 	ldw	r2,24(fp)
 142100c:	1080008c 	andi	r2,r2,2
 1421010:	10000f26 	beq	r2,zero,1421050 <_ftoa+0x680>
 1421014:	00000906 	br	142103c <_ftoa+0x66c>
 1421018:	e0bffd17 	ldw	r2,-12(fp)
 142101c:	10c00044 	addi	r3,r2,1
 1421020:	e0fffd15 	stw	r3,-12(fp)
 1421024:	e0fffb17 	ldw	r3,-20(fp)
 1421028:	e1fffe17 	ldw	r7,-8(fp)
 142102c:	100d883a 	mov	r6,r2
 1421030:	e17ffc17 	ldw	r5,-16(fp)
 1421034:	01000804 	movi	r4,32
 1421038:	183ee83a 	callr	r3
 142103c:	e0fffd17 	ldw	r3,-12(fp)
 1421040:	e0bfec17 	ldw	r2,-80(fp)
 1421044:	1887c83a 	sub	r3,r3,r2
 1421048:	e0800517 	ldw	r2,20(fp)
 142104c:	18bff236 	bltu	r3,r2,1421018 <__alt_data_end+0xfffe1018>
 1421050:	e0bffd17 	ldw	r2,-12(fp)
 1421054:	e6ffff04 	addi	sp,fp,-4
 1421058:	dfc00217 	ldw	ra,8(sp)
 142105c:	df000117 	ldw	fp,4(sp)
 1421060:	dc000017 	ldw	r16,0(sp)
 1421064:	dec00304 	addi	sp,sp,12
 1421068:	f800283a 	ret

0142106c <_vsnprintf>:
 142106c:	deffdb04 	addi	sp,sp,-148
 1421070:	dfc02415 	stw	ra,144(sp)
 1421074:	df002315 	stw	fp,140(sp)
 1421078:	dd402215 	stw	r21,136(sp)
 142107c:	dd002115 	stw	r20,132(sp)
 1421080:	dcc02015 	stw	r19,128(sp)
 1421084:	dc801f15 	stw	r18,124(sp)
 1421088:	dc401e15 	stw	r17,120(sp)
 142108c:	dc001d15 	stw	r16,116(sp)
 1421090:	df002304 	addi	fp,sp,140
 1421094:	e13ff615 	stw	r4,-40(fp)
 1421098:	e17ff715 	stw	r5,-36(fp)
 142109c:	e1bff815 	stw	r6,-32(fp)
 14210a0:	e1fff915 	stw	r7,-28(fp)
 14210a4:	e03fe915 	stw	zero,-92(fp)
 14210a8:	e0bff717 	ldw	r2,-36(fp)
 14210ac:	1003d01e 	bne	r2,zero,1421ff0 <_vsnprintf+0xf84>
 14210b0:	008050b4 	movhi	r2,322
 14210b4:	10804704 	addi	r2,r2,284
 14210b8:	e0bff615 	stw	r2,-40(fp)
 14210bc:	0003cc06 	br	1421ff0 <_vsnprintf+0xf84>
 14210c0:	e0bff917 	ldw	r2,-28(fp)
 14210c4:	10800003 	ldbu	r2,0(r2)
 14210c8:	10803fcc 	andi	r2,r2,255
 14210cc:	1080201c 	xori	r2,r2,128
 14210d0:	10bfe004 	addi	r2,r2,-128
 14210d4:	10800960 	cmpeqi	r2,r2,37
 14210d8:	1000111e 	bne	r2,zero,1421120 <_vsnprintf+0xb4>
 14210dc:	e0bff917 	ldw	r2,-28(fp)
 14210e0:	10800003 	ldbu	r2,0(r2)
 14210e4:	11003fcc 	andi	r4,r2,255
 14210e8:	2100201c 	xori	r4,r4,128
 14210ec:	213fe004 	addi	r4,r4,-128
 14210f0:	e0bfe917 	ldw	r2,-92(fp)
 14210f4:	10c00044 	addi	r3,r2,1
 14210f8:	e0ffe915 	stw	r3,-92(fp)
 14210fc:	e0fff617 	ldw	r3,-40(fp)
 1421100:	e1fff817 	ldw	r7,-32(fp)
 1421104:	100d883a 	mov	r6,r2
 1421108:	e17ff717 	ldw	r5,-36(fp)
 142110c:	183ee83a 	callr	r3
 1421110:	e0bff917 	ldw	r2,-28(fp)
 1421114:	10800044 	addi	r2,r2,1
 1421118:	e0bff915 	stw	r2,-28(fp)
 142111c:	0003b406 	br	1421ff0 <_vsnprintf+0xf84>
 1421120:	e0bff917 	ldw	r2,-28(fp)
 1421124:	10800044 	addi	r2,r2,1
 1421128:	e0bff915 	stw	r2,-28(fp)
 142112c:	e03fe515 	stw	zero,-108(fp)
 1421130:	e0bff917 	ldw	r2,-28(fp)
 1421134:	10800003 	ldbu	r2,0(r2)
 1421138:	10803fcc 	andi	r2,r2,255
 142113c:	1080201c 	xori	r2,r2,128
 1421140:	10bfe004 	addi	r2,r2,-128
 1421144:	10bff804 	addi	r2,r2,-32
 1421148:	10c00468 	cmpgeui	r3,r2,17
 142114c:	1800441e 	bne	r3,zero,1421260 <_vsnprintf+0x1f4>
 1421150:	100690ba 	slli	r3,r2,2
 1421154:	008050b4 	movhi	r2,322
 1421158:	10845a04 	addi	r2,r2,4456
 142115c:	1885883a 	add	r2,r3,r2
 1421160:	10800017 	ldw	r2,0(r2)
 1421164:	1000683a 	jmp	r2
 1421168:	01421218 	cmpnei	r5,zero,2120
 142116c:	01421260 	cmpeqi	r5,zero,2121
 1421170:	01421260 	cmpeqi	r5,zero,2121
 1421174:	0142123c 	xorhi	r5,zero,2120
 1421178:	01421260 	cmpeqi	r5,zero,2121
 142117c:	01421260 	cmpeqi	r5,zero,2121
 1421180:	01421260 	cmpeqi	r5,zero,2121
 1421184:	01421260 	cmpeqi	r5,zero,2121
 1421188:	01421260 	cmpeqi	r5,zero,2121
 142118c:	01421260 	cmpeqi	r5,zero,2121
 1421190:	01421260 	cmpeqi	r5,zero,2121
 1421194:	014211f4 	movhi	r5,2119
 1421198:	01421260 	cmpeqi	r5,zero,2121
 142119c:	014211d0 	cmplti	r5,zero,2119
 14211a0:	01421260 	cmpeqi	r5,zero,2121
 14211a4:	01421260 	cmpeqi	r5,zero,2121
 14211a8:	014211ac 	andhi	r5,zero,2118
 14211ac:	e0bfe517 	ldw	r2,-108(fp)
 14211b0:	10800054 	ori	r2,r2,1
 14211b4:	e0bfe515 	stw	r2,-108(fp)
 14211b8:	e0bff917 	ldw	r2,-28(fp)
 14211bc:	10800044 	addi	r2,r2,1
 14211c0:	e0bff915 	stw	r2,-28(fp)
 14211c4:	00800044 	movi	r2,1
 14211c8:	e0bfe815 	stw	r2,-96(fp)
 14211cc:	00002606 	br	1421268 <_vsnprintf+0x1fc>
 14211d0:	e0bfe517 	ldw	r2,-108(fp)
 14211d4:	10800094 	ori	r2,r2,2
 14211d8:	e0bfe515 	stw	r2,-108(fp)
 14211dc:	e0bff917 	ldw	r2,-28(fp)
 14211e0:	10800044 	addi	r2,r2,1
 14211e4:	e0bff915 	stw	r2,-28(fp)
 14211e8:	00800044 	movi	r2,1
 14211ec:	e0bfe815 	stw	r2,-96(fp)
 14211f0:	00001d06 	br	1421268 <_vsnprintf+0x1fc>
 14211f4:	e0bfe517 	ldw	r2,-108(fp)
 14211f8:	10800114 	ori	r2,r2,4
 14211fc:	e0bfe515 	stw	r2,-108(fp)
 1421200:	e0bff917 	ldw	r2,-28(fp)
 1421204:	10800044 	addi	r2,r2,1
 1421208:	e0bff915 	stw	r2,-28(fp)
 142120c:	00800044 	movi	r2,1
 1421210:	e0bfe815 	stw	r2,-96(fp)
 1421214:	00001406 	br	1421268 <_vsnprintf+0x1fc>
 1421218:	e0bfe517 	ldw	r2,-108(fp)
 142121c:	10800214 	ori	r2,r2,8
 1421220:	e0bfe515 	stw	r2,-108(fp)
 1421224:	e0bff917 	ldw	r2,-28(fp)
 1421228:	10800044 	addi	r2,r2,1
 142122c:	e0bff915 	stw	r2,-28(fp)
 1421230:	00800044 	movi	r2,1
 1421234:	e0bfe815 	stw	r2,-96(fp)
 1421238:	00000b06 	br	1421268 <_vsnprintf+0x1fc>
 142123c:	e0bfe517 	ldw	r2,-108(fp)
 1421240:	10800414 	ori	r2,r2,16
 1421244:	e0bfe515 	stw	r2,-108(fp)
 1421248:	e0bff917 	ldw	r2,-28(fp)
 142124c:	10800044 	addi	r2,r2,1
 1421250:	e0bff915 	stw	r2,-28(fp)
 1421254:	00800044 	movi	r2,1
 1421258:	e0bfe815 	stw	r2,-96(fp)
 142125c:	00000206 	br	1421268 <_vsnprintf+0x1fc>
 1421260:	e03fe815 	stw	zero,-96(fp)
 1421264:	0001883a 	nop
 1421268:	e0bfe817 	ldw	r2,-96(fp)
 142126c:	103fb01e 	bne	r2,zero,1421130 <__alt_data_end+0xfffe1130>
 1421270:	e03fe615 	stw	zero,-104(fp)
 1421274:	e0bff917 	ldw	r2,-28(fp)
 1421278:	10800003 	ldbu	r2,0(r2)
 142127c:	10803fcc 	andi	r2,r2,255
 1421280:	1080201c 	xori	r2,r2,128
 1421284:	10bfe004 	addi	r2,r2,-128
 1421288:	1009883a 	mov	r4,r2
 142128c:	14202540 	call	1420254 <_is_digit>
 1421290:	10803fcc 	andi	r2,r2,255
 1421294:	10000526 	beq	r2,zero,14212ac <_vsnprintf+0x240>
 1421298:	e0bff904 	addi	r2,fp,-28
 142129c:	1009883a 	mov	r4,r2
 14212a0:	14202a00 	call	14202a0 <_atoi>
 14212a4:	e0bfe615 	stw	r2,-104(fp)
 14212a8:	00001a06 	br	1421314 <_vsnprintf+0x2a8>
 14212ac:	e0bff917 	ldw	r2,-28(fp)
 14212b0:	10800003 	ldbu	r2,0(r2)
 14212b4:	10803fcc 	andi	r2,r2,255
 14212b8:	1080201c 	xori	r2,r2,128
 14212bc:	10bfe004 	addi	r2,r2,-128
 14212c0:	10800a98 	cmpnei	r2,r2,42
 14212c4:	1000131e 	bne	r2,zero,1421314 <_vsnprintf+0x2a8>
 14212c8:	e0800217 	ldw	r2,8(fp)
 14212cc:	10c00104 	addi	r3,r2,4
 14212d0:	e0c00215 	stw	r3,8(fp)
 14212d4:	10800017 	ldw	r2,0(r2)
 14212d8:	e0bfee15 	stw	r2,-72(fp)
 14212dc:	e0bfee17 	ldw	r2,-72(fp)
 14212e0:	1000070e 	bge	r2,zero,1421300 <_vsnprintf+0x294>
 14212e4:	e0bfe517 	ldw	r2,-108(fp)
 14212e8:	10800094 	ori	r2,r2,2
 14212ec:	e0bfe515 	stw	r2,-108(fp)
 14212f0:	e0bfee17 	ldw	r2,-72(fp)
 14212f4:	0085c83a 	sub	r2,zero,r2
 14212f8:	e0bfe615 	stw	r2,-104(fp)
 14212fc:	00000206 	br	1421308 <_vsnprintf+0x29c>
 1421300:	e0bfee17 	ldw	r2,-72(fp)
 1421304:	e0bfe615 	stw	r2,-104(fp)
 1421308:	e0bff917 	ldw	r2,-28(fp)
 142130c:	10800044 	addi	r2,r2,1
 1421310:	e0bff915 	stw	r2,-28(fp)
 1421314:	e03fe715 	stw	zero,-100(fp)
 1421318:	e0bff917 	ldw	r2,-28(fp)
 142131c:	10800003 	ldbu	r2,0(r2)
 1421320:	10803fcc 	andi	r2,r2,255
 1421324:	1080201c 	xori	r2,r2,128
 1421328:	10bfe004 	addi	r2,r2,-128
 142132c:	10800b98 	cmpnei	r2,r2,46
 1421330:	1000271e 	bne	r2,zero,14213d0 <_vsnprintf+0x364>
 1421334:	e0bfe517 	ldw	r2,-108(fp)
 1421338:	10810014 	ori	r2,r2,1024
 142133c:	e0bfe515 	stw	r2,-108(fp)
 1421340:	e0bff917 	ldw	r2,-28(fp)
 1421344:	10800044 	addi	r2,r2,1
 1421348:	e0bff915 	stw	r2,-28(fp)
 142134c:	e0bff917 	ldw	r2,-28(fp)
 1421350:	10800003 	ldbu	r2,0(r2)
 1421354:	10803fcc 	andi	r2,r2,255
 1421358:	1080201c 	xori	r2,r2,128
 142135c:	10bfe004 	addi	r2,r2,-128
 1421360:	1009883a 	mov	r4,r2
 1421364:	14202540 	call	1420254 <_is_digit>
 1421368:	10803fcc 	andi	r2,r2,255
 142136c:	10000526 	beq	r2,zero,1421384 <_vsnprintf+0x318>
 1421370:	e0bff904 	addi	r2,fp,-28
 1421374:	1009883a 	mov	r4,r2
 1421378:	14202a00 	call	14202a0 <_atoi>
 142137c:	e0bfe715 	stw	r2,-100(fp)
 1421380:	00001306 	br	14213d0 <_vsnprintf+0x364>
 1421384:	e0bff917 	ldw	r2,-28(fp)
 1421388:	10800003 	ldbu	r2,0(r2)
 142138c:	10803fcc 	andi	r2,r2,255
 1421390:	1080201c 	xori	r2,r2,128
 1421394:	10bfe004 	addi	r2,r2,-128
 1421398:	10800a98 	cmpnei	r2,r2,42
 142139c:	10000c1e 	bne	r2,zero,14213d0 <_vsnprintf+0x364>
 14213a0:	e0800217 	ldw	r2,8(fp)
 14213a4:	10c00104 	addi	r3,r2,4
 14213a8:	e0c00215 	stw	r3,8(fp)
 14213ac:	10800017 	ldw	r2,0(r2)
 14213b0:	e0bfef15 	stw	r2,-68(fp)
 14213b4:	e0bfef17 	ldw	r2,-68(fp)
 14213b8:	1000010e 	bge	r2,zero,14213c0 <_vsnprintf+0x354>
 14213bc:	0005883a 	mov	r2,zero
 14213c0:	e0bfe715 	stw	r2,-100(fp)
 14213c4:	e0bff917 	ldw	r2,-28(fp)
 14213c8:	10800044 	addi	r2,r2,1
 14213cc:	e0bff915 	stw	r2,-28(fp)
 14213d0:	e0bff917 	ldw	r2,-28(fp)
 14213d4:	10800003 	ldbu	r2,0(r2)
 14213d8:	10803fcc 	andi	r2,r2,255
 14213dc:	1080201c 	xori	r2,r2,128
 14213e0:	10bfe004 	addi	r2,r2,-128
 14213e4:	10bfe604 	addi	r2,r2,-104
 14213e8:	10c004e8 	cmpgeui	r3,r2,19
 14213ec:	1800561e 	bne	r3,zero,1421548 <_vsnprintf+0x4dc>
 14213f0:	100690ba 	slli	r3,r2,2
 14213f4:	008050b4 	movhi	r2,322
 14213f8:	10850204 	addi	r2,r2,5128
 14213fc:	1885883a 	add	r2,r3,r2
 1421400:	10800017 	ldw	r2,0(r2)
 1421404:	1000683a 	jmp	r2
 1421408:	014214a4 	muli	r5,zero,2130
 142140c:	01421548 	cmpgei	r5,zero,2133
 1421410:	01421510 	cmplti	r5,zero,2132
 1421414:	01421548 	cmpgei	r5,zero,2133
 1421418:	01421454 	movui	r5,2129
 142141c:	01421548 	cmpgei	r5,zero,2133
 1421420:	01421548 	cmpgei	r5,zero,2133
 1421424:	01421548 	cmpgei	r5,zero,2133
 1421428:	01421548 	cmpgei	r5,zero,2133
 142142c:	01421548 	cmpgei	r5,zero,2133
 1421430:	01421548 	cmpgei	r5,zero,2133
 1421434:	01421548 	cmpgei	r5,zero,2133
 1421438:	014214f4 	movhi	r5,2131
 142143c:	01421548 	cmpgei	r5,zero,2133
 1421440:	01421548 	cmpgei	r5,zero,2133
 1421444:	01421548 	cmpgei	r5,zero,2133
 1421448:	01421548 	cmpgei	r5,zero,2133
 142144c:	01421548 	cmpgei	r5,zero,2133
 1421450:	0142152c 	andhi	r5,zero,2132
 1421454:	e0bfe517 	ldw	r2,-108(fp)
 1421458:	10804014 	ori	r2,r2,256
 142145c:	e0bfe515 	stw	r2,-108(fp)
 1421460:	e0bff917 	ldw	r2,-28(fp)
 1421464:	10800044 	addi	r2,r2,1
 1421468:	e0bff915 	stw	r2,-28(fp)
 142146c:	e0bff917 	ldw	r2,-28(fp)
 1421470:	10800003 	ldbu	r2,0(r2)
 1421474:	10803fcc 	andi	r2,r2,255
 1421478:	1080201c 	xori	r2,r2,128
 142147c:	10bfe004 	addi	r2,r2,-128
 1421480:	10801b18 	cmpnei	r2,r2,108
 1421484:	1000321e 	bne	r2,zero,1421550 <_vsnprintf+0x4e4>
 1421488:	e0bfe517 	ldw	r2,-108(fp)
 142148c:	10808014 	ori	r2,r2,512
 1421490:	e0bfe515 	stw	r2,-108(fp)
 1421494:	e0bff917 	ldw	r2,-28(fp)
 1421498:	10800044 	addi	r2,r2,1
 142149c:	e0bff915 	stw	r2,-28(fp)
 14214a0:	00002b06 	br	1421550 <_vsnprintf+0x4e4>
 14214a4:	e0bfe517 	ldw	r2,-108(fp)
 14214a8:	10802014 	ori	r2,r2,128
 14214ac:	e0bfe515 	stw	r2,-108(fp)
 14214b0:	e0bff917 	ldw	r2,-28(fp)
 14214b4:	10800044 	addi	r2,r2,1
 14214b8:	e0bff915 	stw	r2,-28(fp)
 14214bc:	e0bff917 	ldw	r2,-28(fp)
 14214c0:	10800003 	ldbu	r2,0(r2)
 14214c4:	10803fcc 	andi	r2,r2,255
 14214c8:	1080201c 	xori	r2,r2,128
 14214cc:	10bfe004 	addi	r2,r2,-128
 14214d0:	10801a18 	cmpnei	r2,r2,104
 14214d4:	1000201e 	bne	r2,zero,1421558 <_vsnprintf+0x4ec>
 14214d8:	e0bfe517 	ldw	r2,-108(fp)
 14214dc:	10801014 	ori	r2,r2,64
 14214e0:	e0bfe515 	stw	r2,-108(fp)
 14214e4:	e0bff917 	ldw	r2,-28(fp)
 14214e8:	10800044 	addi	r2,r2,1
 14214ec:	e0bff915 	stw	r2,-28(fp)
 14214f0:	00001906 	br	1421558 <_vsnprintf+0x4ec>
 14214f4:	e0bfe517 	ldw	r2,-108(fp)
 14214f8:	10804014 	ori	r2,r2,256
 14214fc:	e0bfe515 	stw	r2,-108(fp)
 1421500:	e0bff917 	ldw	r2,-28(fp)
 1421504:	10800044 	addi	r2,r2,1
 1421508:	e0bff915 	stw	r2,-28(fp)
 142150c:	00001306 	br	142155c <_vsnprintf+0x4f0>
 1421510:	e0bfe517 	ldw	r2,-108(fp)
 1421514:	10808014 	ori	r2,r2,512
 1421518:	e0bfe515 	stw	r2,-108(fp)
 142151c:	e0bff917 	ldw	r2,-28(fp)
 1421520:	10800044 	addi	r2,r2,1
 1421524:	e0bff915 	stw	r2,-28(fp)
 1421528:	00000c06 	br	142155c <_vsnprintf+0x4f0>
 142152c:	e0bfe517 	ldw	r2,-108(fp)
 1421530:	10804014 	ori	r2,r2,256
 1421534:	e0bfe515 	stw	r2,-108(fp)
 1421538:	e0bff917 	ldw	r2,-28(fp)
 142153c:	10800044 	addi	r2,r2,1
 1421540:	e0bff915 	stw	r2,-28(fp)
 1421544:	00000506 	br	142155c <_vsnprintf+0x4f0>
 1421548:	0001883a 	nop
 142154c:	00000306 	br	142155c <_vsnprintf+0x4f0>
 1421550:	0001883a 	nop
 1421554:	00000106 	br	142155c <_vsnprintf+0x4f0>
 1421558:	0001883a 	nop
 142155c:	e0bff917 	ldw	r2,-28(fp)
 1421560:	10800003 	ldbu	r2,0(r2)
 1421564:	10803fcc 	andi	r2,r2,255
 1421568:	1080201c 	xori	r2,r2,128
 142156c:	10bfe004 	addi	r2,r2,-128
 1421570:	10bff6c4 	addi	r2,r2,-37
 1421574:	10c01528 	cmpgeui	r3,r2,84
 1421578:	18028c1e 	bne	r3,zero,1421fac <_vsnprintf+0xf40>
 142157c:	100690ba 	slli	r3,r2,2
 1421580:	008050b4 	movhi	r2,322
 1421584:	10856504 	addi	r2,r2,5524
 1421588:	1885883a 	add	r2,r3,r2
 142158c:	10800017 	ldw	r2,0(r2)
 1421590:	1000683a 	jmp	r2
 1421594:	01421f78 	rdprs	r5,zero,2173
 1421598:	01421fac 	andhi	r5,zero,2174
 142159c:	01421fac 	andhi	r5,zero,2174
 14215a0:	01421fac 	andhi	r5,zero,2174
 14215a4:	01421fac 	andhi	r5,zero,2174
 14215a8:	01421fac 	andhi	r5,zero,2174
 14215ac:	01421fac 	andhi	r5,zero,2174
 14215b0:	01421fac 	andhi	r5,zero,2174
 14215b4:	01421fac 	andhi	r5,zero,2174
 14215b8:	01421fac 	andhi	r5,zero,2174
 14215bc:	01421fac 	andhi	r5,zero,2174
 14215c0:	01421fac 	andhi	r5,zero,2174
 14215c4:	01421fac 	andhi	r5,zero,2174
 14215c8:	01421fac 	andhi	r5,zero,2174
 14215cc:	01421fac 	andhi	r5,zero,2174
 14215d0:	01421fac 	andhi	r5,zero,2174
 14215d4:	01421fac 	andhi	r5,zero,2174
 14215d8:	01421fac 	andhi	r5,zero,2174
 14215dc:	01421fac 	andhi	r5,zero,2174
 14215e0:	01421fac 	andhi	r5,zero,2174
 14215e4:	01421fac 	andhi	r5,zero,2174
 14215e8:	01421fac 	andhi	r5,zero,2174
 14215ec:	01421fac 	andhi	r5,zero,2174
 14215f0:	01421fac 	andhi	r5,zero,2174
 14215f4:	01421fac 	andhi	r5,zero,2174
 14215f8:	01421fac 	andhi	r5,zero,2174
 14215fc:	01421fac 	andhi	r5,zero,2174
 1421600:	01421fac 	andhi	r5,zero,2174
 1421604:	01421fac 	andhi	r5,zero,2174
 1421608:	01421fac 	andhi	r5,zero,2174
 142160c:	01421fac 	andhi	r5,zero,2174
 1421610:	01421fac 	andhi	r5,zero,2174
 1421614:	01421fac 	andhi	r5,zero,2174
 1421618:	01421bfc 	xorhi	r5,zero,2159
 142161c:	01421fac 	andhi	r5,zero,2174
 1421620:	01421fac 	andhi	r5,zero,2174
 1421624:	01421fac 	andhi	r5,zero,2174
 1421628:	01421fac 	andhi	r5,zero,2174
 142162c:	01421fac 	andhi	r5,zero,2174
 1421630:	01421fac 	andhi	r5,zero,2174
 1421634:	01421fac 	andhi	r5,zero,2174
 1421638:	01421fac 	andhi	r5,zero,2174
 142163c:	01421fac 	andhi	r5,zero,2174
 1421640:	01421fac 	andhi	r5,zero,2174
 1421644:	01421fac 	andhi	r5,zero,2174
 1421648:	01421fac 	andhi	r5,zero,2174
 142164c:	01421fac 	andhi	r5,zero,2174
 1421650:	01421fac 	andhi	r5,zero,2174
 1421654:	01421fac 	andhi	r5,zero,2174
 1421658:	01421fac 	andhi	r5,zero,2174
 142165c:	01421fac 	andhi	r5,zero,2174
 1421660:	014216e4 	muli	r5,zero,2139
 1421664:	01421fac 	andhi	r5,zero,2174
 1421668:	01421fac 	andhi	r5,zero,2174
 142166c:	01421fac 	andhi	r5,zero,2174
 1421670:	01421fac 	andhi	r5,zero,2174
 1421674:	01421fac 	andhi	r5,zero,2174
 1421678:	01421fac 	andhi	r5,zero,2174
 142167c:	01421fac 	andhi	r5,zero,2174
 1421680:	01421fac 	andhi	r5,zero,2174
 1421684:	01421fac 	andhi	r5,zero,2174
 1421688:	014216e4 	muli	r5,zero,2139
 142168c:	01421c58 	cmpnei	r5,zero,2161
 1421690:	014216e4 	muli	r5,zero,2139
 1421694:	01421fac 	andhi	r5,zero,2174
 1421698:	01421bfc 	xorhi	r5,zero,2159
 142169c:	01421fac 	andhi	r5,zero,2174
 14216a0:	01421fac 	andhi	r5,zero,2174
 14216a4:	014216e4 	muli	r5,zero,2139
 14216a8:	01421fac 	andhi	r5,zero,2174
 14216ac:	01421fac 	andhi	r5,zero,2174
 14216b0:	01421fac 	andhi	r5,zero,2174
 14216b4:	01421fac 	andhi	r5,zero,2174
 14216b8:	01421fac 	andhi	r5,zero,2174
 14216bc:	014216e4 	muli	r5,zero,2139
 14216c0:	01421e90 	cmplti	r5,zero,2170
 14216c4:	01421fac 	andhi	r5,zero,2174
 14216c8:	01421fac 	andhi	r5,zero,2174
 14216cc:	01421d3c 	xorhi	r5,zero,2164
 14216d0:	01421fac 	andhi	r5,zero,2174
 14216d4:	014216e4 	muli	r5,zero,2139
 14216d8:	01421fac 	andhi	r5,zero,2174
 14216dc:	01421fac 	andhi	r5,zero,2174
 14216e0:	014216e4 	muli	r5,zero,2139
 14216e4:	e0bff917 	ldw	r2,-28(fp)
 14216e8:	10800003 	ldbu	r2,0(r2)
 14216ec:	10803fcc 	andi	r2,r2,255
 14216f0:	1080201c 	xori	r2,r2,128
 14216f4:	10bfe004 	addi	r2,r2,-128
 14216f8:	10801e20 	cmpeqi	r2,r2,120
 14216fc:	1000071e 	bne	r2,zero,142171c <_vsnprintf+0x6b0>
 1421700:	e0bff917 	ldw	r2,-28(fp)
 1421704:	10800003 	ldbu	r2,0(r2)
 1421708:	10803fcc 	andi	r2,r2,255
 142170c:	1080201c 	xori	r2,r2,128
 1421710:	10bfe004 	addi	r2,r2,-128
 1421714:	10801618 	cmpnei	r2,r2,88
 1421718:	1000031e 	bne	r2,zero,1421728 <_vsnprintf+0x6bc>
 142171c:	00800404 	movi	r2,16
 1421720:	e0bfea15 	stw	r2,-88(fp)
 1421724:	00001e06 	br	14217a0 <_vsnprintf+0x734>
 1421728:	e0bff917 	ldw	r2,-28(fp)
 142172c:	10800003 	ldbu	r2,0(r2)
 1421730:	10803fcc 	andi	r2,r2,255
 1421734:	1080201c 	xori	r2,r2,128
 1421738:	10bfe004 	addi	r2,r2,-128
 142173c:	10801bd8 	cmpnei	r2,r2,111
 1421740:	1000031e 	bne	r2,zero,1421750 <_vsnprintf+0x6e4>
 1421744:	00800204 	movi	r2,8
 1421748:	e0bfea15 	stw	r2,-88(fp)
 142174c:	00001406 	br	14217a0 <_vsnprintf+0x734>
 1421750:	e0bff917 	ldw	r2,-28(fp)
 1421754:	10800003 	ldbu	r2,0(r2)
 1421758:	10803fcc 	andi	r2,r2,255
 142175c:	1080201c 	xori	r2,r2,128
 1421760:	10bfe004 	addi	r2,r2,-128
 1421764:	10801898 	cmpnei	r2,r2,98
 1421768:	1000071e 	bne	r2,zero,1421788 <_vsnprintf+0x71c>
 142176c:	00800084 	movi	r2,2
 1421770:	e0bfea15 	stw	r2,-88(fp)
 1421774:	e0ffe517 	ldw	r3,-108(fp)
 1421778:	00bffbc4 	movi	r2,-17
 142177c:	1884703a 	and	r2,r3,r2
 1421780:	e0bfe515 	stw	r2,-108(fp)
 1421784:	00000606 	br	14217a0 <_vsnprintf+0x734>
 1421788:	00800284 	movi	r2,10
 142178c:	e0bfea15 	stw	r2,-88(fp)
 1421790:	e0ffe517 	ldw	r3,-108(fp)
 1421794:	00bffbc4 	movi	r2,-17
 1421798:	1884703a 	and	r2,r3,r2
 142179c:	e0bfe515 	stw	r2,-108(fp)
 14217a0:	e0bff917 	ldw	r2,-28(fp)
 14217a4:	10800003 	ldbu	r2,0(r2)
 14217a8:	10803fcc 	andi	r2,r2,255
 14217ac:	1080201c 	xori	r2,r2,128
 14217b0:	10bfe004 	addi	r2,r2,-128
 14217b4:	10801618 	cmpnei	r2,r2,88
 14217b8:	1000031e 	bne	r2,zero,14217c8 <_vsnprintf+0x75c>
 14217bc:	e0bfe517 	ldw	r2,-108(fp)
 14217c0:	10800814 	ori	r2,r2,32
 14217c4:	e0bfe515 	stw	r2,-108(fp)
 14217c8:	e0bff917 	ldw	r2,-28(fp)
 14217cc:	10800003 	ldbu	r2,0(r2)
 14217d0:	10803fcc 	andi	r2,r2,255
 14217d4:	1080201c 	xori	r2,r2,128
 14217d8:	10bfe004 	addi	r2,r2,-128
 14217dc:	10801a60 	cmpeqi	r2,r2,105
 14217e0:	10000b1e 	bne	r2,zero,1421810 <_vsnprintf+0x7a4>
 14217e4:	e0bff917 	ldw	r2,-28(fp)
 14217e8:	10800003 	ldbu	r2,0(r2)
 14217ec:	10803fcc 	andi	r2,r2,255
 14217f0:	1080201c 	xori	r2,r2,128
 14217f4:	10bfe004 	addi	r2,r2,-128
 14217f8:	10801920 	cmpeqi	r2,r2,100
 14217fc:	1000041e 	bne	r2,zero,1421810 <_vsnprintf+0x7a4>
 1421800:	e0ffe517 	ldw	r3,-108(fp)
 1421804:	00bffcc4 	movi	r2,-13
 1421808:	1884703a 	and	r2,r3,r2
 142180c:	e0bfe515 	stw	r2,-108(fp)
 1421810:	e0bfe517 	ldw	r2,-108(fp)
 1421814:	1081000c 	andi	r2,r2,1024
 1421818:	10000426 	beq	r2,zero,142182c <_vsnprintf+0x7c0>
 142181c:	e0ffe517 	ldw	r3,-108(fp)
 1421820:	00bfff84 	movi	r2,-2
 1421824:	1884703a 	and	r2,r3,r2
 1421828:	e0bfe515 	stw	r2,-108(fp)
 142182c:	e0bff917 	ldw	r2,-28(fp)
 1421830:	10800003 	ldbu	r2,0(r2)
 1421834:	10803fcc 	andi	r2,r2,255
 1421838:	1080201c 	xori	r2,r2,128
 142183c:	10bfe004 	addi	r2,r2,-128
 1421840:	10801a60 	cmpeqi	r2,r2,105
 1421844:	1000071e 	bne	r2,zero,1421864 <_vsnprintf+0x7f8>
 1421848:	e0bff917 	ldw	r2,-28(fp)
 142184c:	10800003 	ldbu	r2,0(r2)
 1421850:	10803fcc 	andi	r2,r2,255
 1421854:	1080201c 	xori	r2,r2,128
 1421858:	10bfe004 	addi	r2,r2,-128
 142185c:	10801918 	cmpnei	r2,r2,100
 1421860:	1000851e 	bne	r2,zero,1421a78 <_vsnprintf+0xa0c>
 1421864:	e0bfe517 	ldw	r2,-108(fp)
 1421868:	1080800c 	andi	r2,r2,512
 142186c:	10002f26 	beq	r2,zero,142192c <_vsnprintf+0x8c0>
 1421870:	e0800217 	ldw	r2,8(fp)
 1421874:	10c00204 	addi	r3,r2,8
 1421878:	e0c00215 	stw	r3,8(fp)
 142187c:	10c00017 	ldw	r3,0(r2)
 1421880:	e0fff115 	stw	r3,-60(fp)
 1421884:	10800117 	ldw	r2,4(r2)
 1421888:	e0bff215 	stw	r2,-56(fp)
 142188c:	e0bff117 	ldw	r2,-60(fp)
 1421890:	e0fff217 	ldw	r3,-56(fp)
 1421894:	1800090e 	bge	r3,zero,14218bc <_vsnprintf+0x850>
 1421898:	000d883a 	mov	r6,zero
 142189c:	000f883a 	mov	r7,zero
 14218a0:	3089c83a 	sub	r4,r6,r2
 14218a4:	3111803a 	cmpltu	r8,r6,r4
 14218a8:	38cbc83a 	sub	r5,r7,r3
 14218ac:	2a05c83a 	sub	r2,r5,r8
 14218b0:	100b883a 	mov	r5,r2
 14218b4:	2005883a 	mov	r2,r4
 14218b8:	2807883a 	mov	r3,r5
 14218bc:	1009883a 	mov	r4,r2
 14218c0:	180b883a 	mov	r5,r3
 14218c4:	2005883a 	mov	r2,r4
 14218c8:	2807883a 	mov	r3,r5
 14218cc:	e13ff217 	ldw	r4,-56(fp)
 14218d0:	2008d7fa 	srli	r4,r4,31
 14218d4:	21003fcc 	andi	r4,r4,255
 14218d8:	e17fea17 	ldw	r5,-88(fp)
 14218dc:	2825883a 	mov	r18,r5
 14218e0:	0027883a 	mov	r19,zero
 14218e4:	e17fe517 	ldw	r5,-108(fp)
 14218e8:	d9400715 	stw	r5,28(sp)
 14218ec:	e17fe617 	ldw	r5,-104(fp)
 14218f0:	d9400615 	stw	r5,24(sp)
 14218f4:	e17fe717 	ldw	r5,-100(fp)
 14218f8:	d9400515 	stw	r5,20(sp)
 14218fc:	dc800315 	stw	r18,12(sp)
 1421900:	dcc00415 	stw	r19,16(sp)
 1421904:	d9000215 	stw	r4,8(sp)
 1421908:	d8800015 	stw	r2,0(sp)
 142190c:	d8c00115 	stw	r3,4(sp)
 1421910:	e1fff817 	ldw	r7,-32(fp)
 1421914:	e1bfe917 	ldw	r6,-92(fp)
 1421918:	e17ff717 	ldw	r5,-36(fp)
 142191c:	e13ff617 	ldw	r4,-40(fp)
 1421920:	142083c0 	call	142083c <_ntoa_long_long>
 1421924:	e0bfe915 	stw	r2,-92(fp)
 1421928:	0000b006 	br	1421bec <_vsnprintf+0xb80>
 142192c:	e0bfe517 	ldw	r2,-108(fp)
 1421930:	1080400c 	andi	r2,r2,256
 1421934:	10001d26 	beq	r2,zero,14219ac <_vsnprintf+0x940>
 1421938:	e0800217 	ldw	r2,8(fp)
 142193c:	10c00104 	addi	r3,r2,4
 1421940:	e0c00215 	stw	r3,8(fp)
 1421944:	10800017 	ldw	r2,0(r2)
 1421948:	e0bff315 	stw	r2,-52(fp)
 142194c:	e0bff317 	ldw	r2,-52(fp)
 1421950:	1000010e 	bge	r2,zero,1421958 <_vsnprintf+0x8ec>
 1421954:	0085c83a 	sub	r2,zero,r2
 1421958:	1009883a 	mov	r4,r2
 142195c:	e0bff317 	ldw	r2,-52(fp)
 1421960:	1004d7fa 	srli	r2,r2,31
 1421964:	10803fcc 	andi	r2,r2,255
 1421968:	e0ffe517 	ldw	r3,-108(fp)
 142196c:	d8c00515 	stw	r3,20(sp)
 1421970:	e0ffe617 	ldw	r3,-104(fp)
 1421974:	d8c00415 	stw	r3,16(sp)
 1421978:	e0ffe717 	ldw	r3,-100(fp)
 142197c:	d8c00315 	stw	r3,12(sp)
 1421980:	e0ffea17 	ldw	r3,-88(fp)
 1421984:	d8c00215 	stw	r3,8(sp)
 1421988:	d8800115 	stw	r2,4(sp)
 142198c:	d9000015 	stw	r4,0(sp)
 1421990:	e1fff817 	ldw	r7,-32(fp)
 1421994:	e1bfe917 	ldw	r6,-92(fp)
 1421998:	e17ff717 	ldw	r5,-36(fp)
 142199c:	e13ff617 	ldw	r4,-40(fp)
 14219a0:	14206f00 	call	14206f0 <_ntoa_long>
 14219a4:	e0bfe915 	stw	r2,-92(fp)
 14219a8:	00009006 	br	1421bec <_vsnprintf+0xb80>
 14219ac:	e0bfe517 	ldw	r2,-108(fp)
 14219b0:	1080100c 	andi	r2,r2,64
 14219b4:	10000826 	beq	r2,zero,14219d8 <_vsnprintf+0x96c>
 14219b8:	e0800217 	ldw	r2,8(fp)
 14219bc:	10c00104 	addi	r3,r2,4
 14219c0:	e0c00215 	stw	r3,8(fp)
 14219c4:	10800017 	ldw	r2,0(r2)
 14219c8:	10803fcc 	andi	r2,r2,255
 14219cc:	1080201c 	xori	r2,r2,128
 14219d0:	10bfe004 	addi	r2,r2,-128
 14219d4:	00000f06 	br	1421a14 <_vsnprintf+0x9a8>
 14219d8:	e0bfe517 	ldw	r2,-108(fp)
 14219dc:	1080200c 	andi	r2,r2,128
 14219e0:	10000826 	beq	r2,zero,1421a04 <_vsnprintf+0x998>
 14219e4:	e0800217 	ldw	r2,8(fp)
 14219e8:	10c00104 	addi	r3,r2,4
 14219ec:	e0c00215 	stw	r3,8(fp)
 14219f0:	10800017 	ldw	r2,0(r2)
 14219f4:	10bfffcc 	andi	r2,r2,65535
 14219f8:	10a0001c 	xori	r2,r2,32768
 14219fc:	10a00004 	addi	r2,r2,-32768
 1421a00:	00000406 	br	1421a14 <_vsnprintf+0x9a8>
 1421a04:	e0800217 	ldw	r2,8(fp)
 1421a08:	10c00104 	addi	r3,r2,4
 1421a0c:	e0c00215 	stw	r3,8(fp)
 1421a10:	10800017 	ldw	r2,0(r2)
 1421a14:	e0bff415 	stw	r2,-48(fp)
 1421a18:	e0bff417 	ldw	r2,-48(fp)
 1421a1c:	1000010e 	bge	r2,zero,1421a24 <_vsnprintf+0x9b8>
 1421a20:	0085c83a 	sub	r2,zero,r2
 1421a24:	1009883a 	mov	r4,r2
 1421a28:	e0bff417 	ldw	r2,-48(fp)
 1421a2c:	1004d7fa 	srli	r2,r2,31
 1421a30:	10803fcc 	andi	r2,r2,255
 1421a34:	e0ffe517 	ldw	r3,-108(fp)
 1421a38:	d8c00515 	stw	r3,20(sp)
 1421a3c:	e0ffe617 	ldw	r3,-104(fp)
 1421a40:	d8c00415 	stw	r3,16(sp)
 1421a44:	e0ffe717 	ldw	r3,-100(fp)
 1421a48:	d8c00315 	stw	r3,12(sp)
 1421a4c:	e0ffea17 	ldw	r3,-88(fp)
 1421a50:	d8c00215 	stw	r3,8(sp)
 1421a54:	d8800115 	stw	r2,4(sp)
 1421a58:	d9000015 	stw	r4,0(sp)
 1421a5c:	e1fff817 	ldw	r7,-32(fp)
 1421a60:	e1bfe917 	ldw	r6,-92(fp)
 1421a64:	e17ff717 	ldw	r5,-36(fp)
 1421a68:	e13ff617 	ldw	r4,-40(fp)
 1421a6c:	14206f00 	call	14206f0 <_ntoa_long>
 1421a70:	e0bfe915 	stw	r2,-92(fp)
 1421a74:	00005d06 	br	1421bec <_vsnprintf+0xb80>
 1421a78:	e0bfe517 	ldw	r2,-108(fp)
 1421a7c:	1080800c 	andi	r2,r2,512
 1421a80:	10001a26 	beq	r2,zero,1421aec <_vsnprintf+0xa80>
 1421a84:	e1000217 	ldw	r4,8(fp)
 1421a88:	20800204 	addi	r2,r4,8
 1421a8c:	e0800215 	stw	r2,8(fp)
 1421a90:	20800017 	ldw	r2,0(r4)
 1421a94:	20c00117 	ldw	r3,4(r4)
 1421a98:	e13fea17 	ldw	r4,-88(fp)
 1421a9c:	2021883a 	mov	r16,r4
 1421aa0:	0023883a 	mov	r17,zero
 1421aa4:	e13fe517 	ldw	r4,-108(fp)
 1421aa8:	d9000715 	stw	r4,28(sp)
 1421aac:	e13fe617 	ldw	r4,-104(fp)
 1421ab0:	d9000615 	stw	r4,24(sp)
 1421ab4:	e13fe717 	ldw	r4,-100(fp)
 1421ab8:	d9000515 	stw	r4,20(sp)
 1421abc:	dc000315 	stw	r16,12(sp)
 1421ac0:	dc400415 	stw	r17,16(sp)
 1421ac4:	d8000215 	stw	zero,8(sp)
 1421ac8:	d8800015 	stw	r2,0(sp)
 1421acc:	d8c00115 	stw	r3,4(sp)
 1421ad0:	e1fff817 	ldw	r7,-32(fp)
 1421ad4:	e1bfe917 	ldw	r6,-92(fp)
 1421ad8:	e17ff717 	ldw	r5,-36(fp)
 1421adc:	e13ff617 	ldw	r4,-40(fp)
 1421ae0:	142083c0 	call	142083c <_ntoa_long_long>
 1421ae4:	e0bfe915 	stw	r2,-92(fp)
 1421ae8:	00004006 	br	1421bec <_vsnprintf+0xb80>
 1421aec:	e0bfe517 	ldw	r2,-108(fp)
 1421af0:	1080400c 	andi	r2,r2,256
 1421af4:	10001526 	beq	r2,zero,1421b4c <_vsnprintf+0xae0>
 1421af8:	e0800217 	ldw	r2,8(fp)
 1421afc:	10c00104 	addi	r3,r2,4
 1421b00:	e0c00215 	stw	r3,8(fp)
 1421b04:	10800017 	ldw	r2,0(r2)
 1421b08:	e0ffe517 	ldw	r3,-108(fp)
 1421b0c:	d8c00515 	stw	r3,20(sp)
 1421b10:	e0ffe617 	ldw	r3,-104(fp)
 1421b14:	d8c00415 	stw	r3,16(sp)
 1421b18:	e0ffe717 	ldw	r3,-100(fp)
 1421b1c:	d8c00315 	stw	r3,12(sp)
 1421b20:	e0ffea17 	ldw	r3,-88(fp)
 1421b24:	d8c00215 	stw	r3,8(sp)
 1421b28:	d8000115 	stw	zero,4(sp)
 1421b2c:	d8800015 	stw	r2,0(sp)
 1421b30:	e1fff817 	ldw	r7,-32(fp)
 1421b34:	e1bfe917 	ldw	r6,-92(fp)
 1421b38:	e17ff717 	ldw	r5,-36(fp)
 1421b3c:	e13ff617 	ldw	r4,-40(fp)
 1421b40:	14206f00 	call	14206f0 <_ntoa_long>
 1421b44:	e0bfe915 	stw	r2,-92(fp)
 1421b48:	00002806 	br	1421bec <_vsnprintf+0xb80>
 1421b4c:	e0bfe517 	ldw	r2,-108(fp)
 1421b50:	1080100c 	andi	r2,r2,64
 1421b54:	10000626 	beq	r2,zero,1421b70 <_vsnprintf+0xb04>
 1421b58:	e0800217 	ldw	r2,8(fp)
 1421b5c:	10c00104 	addi	r3,r2,4
 1421b60:	e0c00215 	stw	r3,8(fp)
 1421b64:	10800017 	ldw	r2,0(r2)
 1421b68:	10803fcc 	andi	r2,r2,255
 1421b6c:	00000d06 	br	1421ba4 <_vsnprintf+0xb38>
 1421b70:	e0bfe517 	ldw	r2,-108(fp)
 1421b74:	1080200c 	andi	r2,r2,128
 1421b78:	10000626 	beq	r2,zero,1421b94 <_vsnprintf+0xb28>
 1421b7c:	e0800217 	ldw	r2,8(fp)
 1421b80:	10c00104 	addi	r3,r2,4
 1421b84:	e0c00215 	stw	r3,8(fp)
 1421b88:	10800017 	ldw	r2,0(r2)
 1421b8c:	10bfffcc 	andi	r2,r2,65535
 1421b90:	00000406 	br	1421ba4 <_vsnprintf+0xb38>
 1421b94:	e0800217 	ldw	r2,8(fp)
 1421b98:	10c00104 	addi	r3,r2,4
 1421b9c:	e0c00215 	stw	r3,8(fp)
 1421ba0:	10800017 	ldw	r2,0(r2)
 1421ba4:	e0bff015 	stw	r2,-64(fp)
 1421ba8:	e0bfe517 	ldw	r2,-108(fp)
 1421bac:	d8800515 	stw	r2,20(sp)
 1421bb0:	e0bfe617 	ldw	r2,-104(fp)
 1421bb4:	d8800415 	stw	r2,16(sp)
 1421bb8:	e0bfe717 	ldw	r2,-100(fp)
 1421bbc:	d8800315 	stw	r2,12(sp)
 1421bc0:	e0bfea17 	ldw	r2,-88(fp)
 1421bc4:	d8800215 	stw	r2,8(sp)
 1421bc8:	d8000115 	stw	zero,4(sp)
 1421bcc:	e0bff017 	ldw	r2,-64(fp)
 1421bd0:	d8800015 	stw	r2,0(sp)
 1421bd4:	e1fff817 	ldw	r7,-32(fp)
 1421bd8:	e1bfe917 	ldw	r6,-92(fp)
 1421bdc:	e17ff717 	ldw	r5,-36(fp)
 1421be0:	e13ff617 	ldw	r4,-40(fp)
 1421be4:	14206f00 	call	14206f0 <_ntoa_long>
 1421be8:	e0bfe915 	stw	r2,-92(fp)
 1421bec:	e0bff917 	ldw	r2,-28(fp)
 1421bf0:	10800044 	addi	r2,r2,1
 1421bf4:	e0bff915 	stw	r2,-28(fp)
 1421bf8:	0000fd06 	br	1421ff0 <_vsnprintf+0xf84>
 1421bfc:	e1000217 	ldw	r4,8(fp)
 1421c00:	20800204 	addi	r2,r4,8
 1421c04:	e0800215 	stw	r2,8(fp)
 1421c08:	20800017 	ldw	r2,0(r4)
 1421c0c:	20c00117 	ldw	r3,4(r4)
 1421c10:	e13fe517 	ldw	r4,-108(fp)
 1421c14:	d9000415 	stw	r4,16(sp)
 1421c18:	e13fe617 	ldw	r4,-104(fp)
 1421c1c:	d9000315 	stw	r4,12(sp)
 1421c20:	e13fe717 	ldw	r4,-100(fp)
 1421c24:	d9000215 	stw	r4,8(sp)
 1421c28:	d8800015 	stw	r2,0(sp)
 1421c2c:	d8c00115 	stw	r3,4(sp)
 1421c30:	e1fff817 	ldw	r7,-32(fp)
 1421c34:	e1bfe917 	ldw	r6,-92(fp)
 1421c38:	e17ff717 	ldw	r5,-36(fp)
 1421c3c:	e13ff617 	ldw	r4,-40(fp)
 1421c40:	14209d00 	call	14209d0 <_ftoa>
 1421c44:	e0bfe915 	stw	r2,-92(fp)
 1421c48:	e0bff917 	ldw	r2,-28(fp)
 1421c4c:	10800044 	addi	r2,r2,1
 1421c50:	e0bff915 	stw	r2,-28(fp)
 1421c54:	0000e606 	br	1421ff0 <_vsnprintf+0xf84>
 1421c58:	00800044 	movi	r2,1
 1421c5c:	e0bfeb15 	stw	r2,-84(fp)
 1421c60:	e0bfe517 	ldw	r2,-108(fp)
 1421c64:	1080008c 	andi	r2,r2,2
 1421c68:	10000f1e 	bne	r2,zero,1421ca8 <_vsnprintf+0xc3c>
 1421c6c:	00000906 	br	1421c94 <_vsnprintf+0xc28>
 1421c70:	e0bfe917 	ldw	r2,-92(fp)
 1421c74:	10c00044 	addi	r3,r2,1
 1421c78:	e0ffe915 	stw	r3,-92(fp)
 1421c7c:	e0fff617 	ldw	r3,-40(fp)
 1421c80:	e1fff817 	ldw	r7,-32(fp)
 1421c84:	100d883a 	mov	r6,r2
 1421c88:	e17ff717 	ldw	r5,-36(fp)
 1421c8c:	01000804 	movi	r4,32
 1421c90:	183ee83a 	callr	r3
 1421c94:	e0bfeb17 	ldw	r2,-84(fp)
 1421c98:	10c00044 	addi	r3,r2,1
 1421c9c:	e0ffeb15 	stw	r3,-84(fp)
 1421ca0:	e0ffe617 	ldw	r3,-104(fp)
 1421ca4:	10fff236 	bltu	r2,r3,1421c70 <__alt_data_end+0xfffe1c70>
 1421ca8:	e0800217 	ldw	r2,8(fp)
 1421cac:	10c00104 	addi	r3,r2,4
 1421cb0:	e0c00215 	stw	r3,8(fp)
 1421cb4:	10800017 	ldw	r2,0(r2)
 1421cb8:	11003fcc 	andi	r4,r2,255
 1421cbc:	2100201c 	xori	r4,r4,128
 1421cc0:	213fe004 	addi	r4,r4,-128
 1421cc4:	e0bfe917 	ldw	r2,-92(fp)
 1421cc8:	10c00044 	addi	r3,r2,1
 1421ccc:	e0ffe915 	stw	r3,-92(fp)
 1421cd0:	e0fff617 	ldw	r3,-40(fp)
 1421cd4:	e1fff817 	ldw	r7,-32(fp)
 1421cd8:	100d883a 	mov	r6,r2
 1421cdc:	e17ff717 	ldw	r5,-36(fp)
 1421ce0:	183ee83a 	callr	r3
 1421ce4:	e0bfe517 	ldw	r2,-108(fp)
 1421ce8:	1080008c 	andi	r2,r2,2
 1421cec:	10000f26 	beq	r2,zero,1421d2c <_vsnprintf+0xcc0>
 1421cf0:	00000906 	br	1421d18 <_vsnprintf+0xcac>
 1421cf4:	e0bfe917 	ldw	r2,-92(fp)
 1421cf8:	10c00044 	addi	r3,r2,1
 1421cfc:	e0ffe915 	stw	r3,-92(fp)
 1421d00:	e0fff617 	ldw	r3,-40(fp)
 1421d04:	e1fff817 	ldw	r7,-32(fp)
 1421d08:	100d883a 	mov	r6,r2
 1421d0c:	e17ff717 	ldw	r5,-36(fp)
 1421d10:	01000804 	movi	r4,32
 1421d14:	183ee83a 	callr	r3
 1421d18:	e0bfeb17 	ldw	r2,-84(fp)
 1421d1c:	10c00044 	addi	r3,r2,1
 1421d20:	e0ffeb15 	stw	r3,-84(fp)
 1421d24:	e0ffe617 	ldw	r3,-104(fp)
 1421d28:	10fff236 	bltu	r2,r3,1421cf4 <__alt_data_end+0xfffe1cf4>
 1421d2c:	e0bff917 	ldw	r2,-28(fp)
 1421d30:	10800044 	addi	r2,r2,1
 1421d34:	e0bff915 	stw	r2,-28(fp)
 1421d38:	0000ad06 	br	1421ff0 <_vsnprintf+0xf84>
 1421d3c:	e0800217 	ldw	r2,8(fp)
 1421d40:	10c00104 	addi	r3,r2,4
 1421d44:	e0c00215 	stw	r3,8(fp)
 1421d48:	10800017 	ldw	r2,0(r2)
 1421d4c:	e0bfec15 	stw	r2,-80(fp)
 1421d50:	e13fec17 	ldw	r4,-80(fp)
 1421d54:	14201f80 	call	14201f8 <_strlen>
 1421d58:	e0bfed15 	stw	r2,-76(fp)
 1421d5c:	e0bfe517 	ldw	r2,-108(fp)
 1421d60:	1081000c 	andi	r2,r2,1024
 1421d64:	10000526 	beq	r2,zero,1421d7c <_vsnprintf+0xd10>
 1421d68:	e0ffed17 	ldw	r3,-76(fp)
 1421d6c:	e0bfe717 	ldw	r2,-100(fp)
 1421d70:	1880012e 	bgeu	r3,r2,1421d78 <_vsnprintf+0xd0c>
 1421d74:	1805883a 	mov	r2,r3
 1421d78:	e0bfed15 	stw	r2,-76(fp)
 1421d7c:	e0bfe517 	ldw	r2,-108(fp)
 1421d80:	1080008c 	andi	r2,r2,2
 1421d84:	10001f1e 	bne	r2,zero,1421e04 <_vsnprintf+0xd98>
 1421d88:	00000906 	br	1421db0 <_vsnprintf+0xd44>
 1421d8c:	e0bfe917 	ldw	r2,-92(fp)
 1421d90:	10c00044 	addi	r3,r2,1
 1421d94:	e0ffe915 	stw	r3,-92(fp)
 1421d98:	e0fff617 	ldw	r3,-40(fp)
 1421d9c:	e1fff817 	ldw	r7,-32(fp)
 1421da0:	100d883a 	mov	r6,r2
 1421da4:	e17ff717 	ldw	r5,-36(fp)
 1421da8:	01000804 	movi	r4,32
 1421dac:	183ee83a 	callr	r3
 1421db0:	e0bfed17 	ldw	r2,-76(fp)
 1421db4:	10c00044 	addi	r3,r2,1
 1421db8:	e0ffed15 	stw	r3,-76(fp)
 1421dbc:	e0ffe617 	ldw	r3,-104(fp)
 1421dc0:	10fff236 	bltu	r2,r3,1421d8c <__alt_data_end+0xfffe1d8c>
 1421dc4:	00000f06 	br	1421e04 <_vsnprintf+0xd98>
 1421dc8:	e0bfec17 	ldw	r2,-80(fp)
 1421dcc:	10c00044 	addi	r3,r2,1
 1421dd0:	e0ffec15 	stw	r3,-80(fp)
 1421dd4:	10800003 	ldbu	r2,0(r2)
 1421dd8:	11003fcc 	andi	r4,r2,255
 1421ddc:	2100201c 	xori	r4,r4,128
 1421de0:	213fe004 	addi	r4,r4,-128
 1421de4:	e0bfe917 	ldw	r2,-92(fp)
 1421de8:	10c00044 	addi	r3,r2,1
 1421dec:	e0ffe915 	stw	r3,-92(fp)
 1421df0:	e0fff617 	ldw	r3,-40(fp)
 1421df4:	e1fff817 	ldw	r7,-32(fp)
 1421df8:	100d883a 	mov	r6,r2
 1421dfc:	e17ff717 	ldw	r5,-36(fp)
 1421e00:	183ee83a 	callr	r3
 1421e04:	e0bfec17 	ldw	r2,-80(fp)
 1421e08:	10800003 	ldbu	r2,0(r2)
 1421e0c:	10803fcc 	andi	r2,r2,255
 1421e10:	1080201c 	xori	r2,r2,128
 1421e14:	10bfe004 	addi	r2,r2,-128
 1421e18:	10000726 	beq	r2,zero,1421e38 <_vsnprintf+0xdcc>
 1421e1c:	e0bfe517 	ldw	r2,-108(fp)
 1421e20:	1081000c 	andi	r2,r2,1024
 1421e24:	103fe826 	beq	r2,zero,1421dc8 <__alt_data_end+0xfffe1dc8>
 1421e28:	e0bfe717 	ldw	r2,-100(fp)
 1421e2c:	10ffffc4 	addi	r3,r2,-1
 1421e30:	e0ffe715 	stw	r3,-100(fp)
 1421e34:	103fe41e 	bne	r2,zero,1421dc8 <__alt_data_end+0xfffe1dc8>
 1421e38:	e0bfe517 	ldw	r2,-108(fp)
 1421e3c:	1080008c 	andi	r2,r2,2
 1421e40:	10000f26 	beq	r2,zero,1421e80 <_vsnprintf+0xe14>
 1421e44:	00000906 	br	1421e6c <_vsnprintf+0xe00>
 1421e48:	e0bfe917 	ldw	r2,-92(fp)
 1421e4c:	10c00044 	addi	r3,r2,1
 1421e50:	e0ffe915 	stw	r3,-92(fp)
 1421e54:	e0fff617 	ldw	r3,-40(fp)
 1421e58:	e1fff817 	ldw	r7,-32(fp)
 1421e5c:	100d883a 	mov	r6,r2
 1421e60:	e17ff717 	ldw	r5,-36(fp)
 1421e64:	01000804 	movi	r4,32
 1421e68:	183ee83a 	callr	r3
 1421e6c:	e0bfed17 	ldw	r2,-76(fp)
 1421e70:	10c00044 	addi	r3,r2,1
 1421e74:	e0ffed15 	stw	r3,-76(fp)
 1421e78:	e0ffe617 	ldw	r3,-104(fp)
 1421e7c:	10fff236 	bltu	r2,r3,1421e48 <__alt_data_end+0xfffe1e48>
 1421e80:	e0bff917 	ldw	r2,-28(fp)
 1421e84:	10800044 	addi	r2,r2,1
 1421e88:	e0bff915 	stw	r2,-28(fp)
 1421e8c:	00005806 	br	1421ff0 <_vsnprintf+0xf84>
 1421e90:	00800204 	movi	r2,8
 1421e94:	e0bfe615 	stw	r2,-104(fp)
 1421e98:	e0bfe517 	ldw	r2,-108(fp)
 1421e9c:	10800854 	ori	r2,r2,33
 1421ea0:	e0bfe515 	stw	r2,-108(fp)
 1421ea4:	e03ff505 	stb	zero,-44(fp)
 1421ea8:	e0bff503 	ldbu	r2,-44(fp)
 1421eac:	10001926 	beq	r2,zero,1421f14 <_vsnprintf+0xea8>
 1421eb0:	e0800217 	ldw	r2,8(fp)
 1421eb4:	10c00104 	addi	r3,r2,4
 1421eb8:	e0c00215 	stw	r3,8(fp)
 1421ebc:	10800017 	ldw	r2,0(r2)
 1421ec0:	1029883a 	mov	r20,r2
 1421ec4:	002b883a 	mov	r21,zero
 1421ec8:	e0bfe517 	ldw	r2,-108(fp)
 1421ecc:	d8800715 	stw	r2,28(sp)
 1421ed0:	e0bfe617 	ldw	r2,-104(fp)
 1421ed4:	d8800615 	stw	r2,24(sp)
 1421ed8:	e0bfe717 	ldw	r2,-100(fp)
 1421edc:	d8800515 	stw	r2,20(sp)
 1421ee0:	00800404 	movi	r2,16
 1421ee4:	d8800315 	stw	r2,12(sp)
 1421ee8:	d8000415 	stw	zero,16(sp)
 1421eec:	d8000215 	stw	zero,8(sp)
 1421ef0:	dd000015 	stw	r20,0(sp)
 1421ef4:	dd400115 	stw	r21,4(sp)
 1421ef8:	e1fff817 	ldw	r7,-32(fp)
 1421efc:	e1bfe917 	ldw	r6,-92(fp)
 1421f00:	e17ff717 	ldw	r5,-36(fp)
 1421f04:	e13ff617 	ldw	r4,-40(fp)
 1421f08:	142083c0 	call	142083c <_ntoa_long_long>
 1421f0c:	e0bfe915 	stw	r2,-92(fp)
 1421f10:	00001506 	br	1421f68 <_vsnprintf+0xefc>
 1421f14:	e0800217 	ldw	r2,8(fp)
 1421f18:	10c00104 	addi	r3,r2,4
 1421f1c:	e0c00215 	stw	r3,8(fp)
 1421f20:	10800017 	ldw	r2,0(r2)
 1421f24:	1007883a 	mov	r3,r2
 1421f28:	e0bfe517 	ldw	r2,-108(fp)
 1421f2c:	d8800515 	stw	r2,20(sp)
 1421f30:	e0bfe617 	ldw	r2,-104(fp)
 1421f34:	d8800415 	stw	r2,16(sp)
 1421f38:	e0bfe717 	ldw	r2,-100(fp)
 1421f3c:	d8800315 	stw	r2,12(sp)
 1421f40:	00800404 	movi	r2,16
 1421f44:	d8800215 	stw	r2,8(sp)
 1421f48:	d8000115 	stw	zero,4(sp)
 1421f4c:	d8c00015 	stw	r3,0(sp)
 1421f50:	e1fff817 	ldw	r7,-32(fp)
 1421f54:	e1bfe917 	ldw	r6,-92(fp)
 1421f58:	e17ff717 	ldw	r5,-36(fp)
 1421f5c:	e13ff617 	ldw	r4,-40(fp)
 1421f60:	14206f00 	call	14206f0 <_ntoa_long>
 1421f64:	e0bfe915 	stw	r2,-92(fp)
 1421f68:	e0bff917 	ldw	r2,-28(fp)
 1421f6c:	10800044 	addi	r2,r2,1
 1421f70:	e0bff915 	stw	r2,-28(fp)
 1421f74:	00001e06 	br	1421ff0 <_vsnprintf+0xf84>
 1421f78:	e0bfe917 	ldw	r2,-92(fp)
 1421f7c:	10c00044 	addi	r3,r2,1
 1421f80:	e0ffe915 	stw	r3,-92(fp)
 1421f84:	e0fff617 	ldw	r3,-40(fp)
 1421f88:	e1fff817 	ldw	r7,-32(fp)
 1421f8c:	100d883a 	mov	r6,r2
 1421f90:	e17ff717 	ldw	r5,-36(fp)
 1421f94:	01000944 	movi	r4,37
 1421f98:	183ee83a 	callr	r3
 1421f9c:	e0bff917 	ldw	r2,-28(fp)
 1421fa0:	10800044 	addi	r2,r2,1
 1421fa4:	e0bff915 	stw	r2,-28(fp)
 1421fa8:	00001106 	br	1421ff0 <_vsnprintf+0xf84>
 1421fac:	e0bff917 	ldw	r2,-28(fp)
 1421fb0:	10800003 	ldbu	r2,0(r2)
 1421fb4:	11003fcc 	andi	r4,r2,255
 1421fb8:	2100201c 	xori	r4,r4,128
 1421fbc:	213fe004 	addi	r4,r4,-128
 1421fc0:	e0bfe917 	ldw	r2,-92(fp)
 1421fc4:	10c00044 	addi	r3,r2,1
 1421fc8:	e0ffe915 	stw	r3,-92(fp)
 1421fcc:	e0fff617 	ldw	r3,-40(fp)
 1421fd0:	e1fff817 	ldw	r7,-32(fp)
 1421fd4:	100d883a 	mov	r6,r2
 1421fd8:	e17ff717 	ldw	r5,-36(fp)
 1421fdc:	183ee83a 	callr	r3
 1421fe0:	e0bff917 	ldw	r2,-28(fp)
 1421fe4:	10800044 	addi	r2,r2,1
 1421fe8:	e0bff915 	stw	r2,-28(fp)
 1421fec:	0001883a 	nop
 1421ff0:	e0bff917 	ldw	r2,-28(fp)
 1421ff4:	10800003 	ldbu	r2,0(r2)
 1421ff8:	10803fcc 	andi	r2,r2,255
 1421ffc:	1080201c 	xori	r2,r2,128
 1422000:	10bfe004 	addi	r2,r2,-128
 1422004:	103c2e1e 	bne	r2,zero,14210c0 <__alt_data_end+0xfffe10c0>
 1422008:	e0ffe917 	ldw	r3,-92(fp)
 142200c:	e0bff817 	ldw	r2,-32(fp)
 1422010:	18800336 	bltu	r3,r2,1422020 <_vsnprintf+0xfb4>
 1422014:	e0bff817 	ldw	r2,-32(fp)
 1422018:	10bfffc4 	addi	r2,r2,-1
 142201c:	00000106 	br	1422024 <_vsnprintf+0xfb8>
 1422020:	e0bfe917 	ldw	r2,-92(fp)
 1422024:	e0fff617 	ldw	r3,-40(fp)
 1422028:	e1fff817 	ldw	r7,-32(fp)
 142202c:	100d883a 	mov	r6,r2
 1422030:	e17ff717 	ldw	r5,-36(fp)
 1422034:	0009883a 	mov	r4,zero
 1422038:	183ee83a 	callr	r3
 142203c:	e0bfe917 	ldw	r2,-92(fp)
 1422040:	e6fffa04 	addi	sp,fp,-24
 1422044:	dfc00717 	ldw	ra,28(sp)
 1422048:	df000617 	ldw	fp,24(sp)
 142204c:	dd400517 	ldw	r21,20(sp)
 1422050:	dd000417 	ldw	r20,16(sp)
 1422054:	dcc00317 	ldw	r19,12(sp)
 1422058:	dc800217 	ldw	r18,8(sp)
 142205c:	dc400117 	ldw	r17,4(sp)
 1422060:	dc000017 	ldw	r16,0(sp)
 1422064:	dec00804 	addi	sp,sp,32
 1422068:	f800283a 	ret

0142206c <printf>:
 142206c:	defff604 	addi	sp,sp,-40
 1422070:	dfc00615 	stw	ra,24(sp)
 1422074:	df000515 	stw	fp,20(sp)
 1422078:	df000504 	addi	fp,sp,20
 142207c:	e13fff15 	stw	r4,-4(fp)
 1422080:	e1400215 	stw	r5,8(fp)
 1422084:	e1800315 	stw	r6,12(fp)
 1422088:	e1c00415 	stw	r7,16(fp)
 142208c:	e0800204 	addi	r2,fp,8
 1422090:	e0bffd15 	stw	r2,-12(fp)
 1422094:	e0bffd17 	ldw	r2,-12(fp)
 1422098:	e0fffe04 	addi	r3,fp,-8
 142209c:	d8800015 	stw	r2,0(sp)
 14220a0:	e1ffff17 	ldw	r7,-4(fp)
 14220a4:	01bfffc4 	movi	r6,-1
 14220a8:	180b883a 	mov	r5,r3
 14220ac:	010050b4 	movhi	r4,322
 14220b0:	21005404 	addi	r4,r4,336
 14220b4:	142106c0 	call	142106c <_vsnprintf>
 14220b8:	e0bffc15 	stw	r2,-16(fp)
 14220bc:	e0bffc17 	ldw	r2,-16(fp)
 14220c0:	e037883a 	mov	sp,fp
 14220c4:	dfc00117 	ldw	ra,4(sp)
 14220c8:	df000017 	ldw	fp,0(sp)
 14220cc:	dec00504 	addi	sp,sp,20
 14220d0:	f800283a 	ret

014220d4 <sprintf>:
 14220d4:	defff704 	addi	sp,sp,-36
 14220d8:	dfc00615 	stw	ra,24(sp)
 14220dc:	df000515 	stw	fp,20(sp)
 14220e0:	df000504 	addi	fp,sp,20
 14220e4:	e13ffe15 	stw	r4,-8(fp)
 14220e8:	e17fff15 	stw	r5,-4(fp)
 14220ec:	e1800215 	stw	r6,8(fp)
 14220f0:	e1c00315 	stw	r7,12(fp)
 14220f4:	e0800204 	addi	r2,fp,8
 14220f8:	e0bffd15 	stw	r2,-12(fp)
 14220fc:	e0bffd17 	ldw	r2,-12(fp)
 1422100:	d8800015 	stw	r2,0(sp)
 1422104:	e1ffff17 	ldw	r7,-4(fp)
 1422108:	01bfffc4 	movi	r6,-1
 142210c:	e17ffe17 	ldw	r5,-8(fp)
 1422110:	010050b4 	movhi	r4,322
 1422114:	21003204 	addi	r4,r4,200
 1422118:	142106c0 	call	142106c <_vsnprintf>
 142211c:	e0bffc15 	stw	r2,-16(fp)
 1422120:	e0bffc17 	ldw	r2,-16(fp)
 1422124:	e037883a 	mov	sp,fp
 1422128:	dfc00117 	ldw	ra,4(sp)
 142212c:	df000017 	ldw	fp,0(sp)
 1422130:	dec00404 	addi	sp,sp,16
 1422134:	f800283a 	ret

01422138 <snprintf>:
 1422138:	defff704 	addi	sp,sp,-36
 142213c:	dfc00715 	stw	ra,28(sp)
 1422140:	df000615 	stw	fp,24(sp)
 1422144:	df000604 	addi	fp,sp,24
 1422148:	e13ffd15 	stw	r4,-12(fp)
 142214c:	e17ffe15 	stw	r5,-8(fp)
 1422150:	e1bfff15 	stw	r6,-4(fp)
 1422154:	e1c00215 	stw	r7,8(fp)
 1422158:	e0800204 	addi	r2,fp,8
 142215c:	e0bffc15 	stw	r2,-16(fp)
 1422160:	e0bffc17 	ldw	r2,-16(fp)
 1422164:	d8800015 	stw	r2,0(sp)
 1422168:	e1ffff17 	ldw	r7,-4(fp)
 142216c:	e1bffe17 	ldw	r6,-8(fp)
 1422170:	e17ffd17 	ldw	r5,-12(fp)
 1422174:	010050b4 	movhi	r4,322
 1422178:	21003204 	addi	r4,r4,200
 142217c:	142106c0 	call	142106c <_vsnprintf>
 1422180:	e0bffb15 	stw	r2,-20(fp)
 1422184:	e0bffb17 	ldw	r2,-20(fp)
 1422188:	e037883a 	mov	sp,fp
 142218c:	dfc00117 	ldw	ra,4(sp)
 1422190:	df000017 	ldw	fp,0(sp)
 1422194:	dec00304 	addi	sp,sp,12
 1422198:	f800283a 	ret

0142219c <vsnprintf>:
 142219c:	defff904 	addi	sp,sp,-28
 14221a0:	dfc00615 	stw	ra,24(sp)
 14221a4:	df000515 	stw	fp,20(sp)
 14221a8:	df000504 	addi	fp,sp,20
 14221ac:	e13ffc15 	stw	r4,-16(fp)
 14221b0:	e17ffd15 	stw	r5,-12(fp)
 14221b4:	e1bffe15 	stw	r6,-8(fp)
 14221b8:	e1ffff15 	stw	r7,-4(fp)
 14221bc:	e0bfff17 	ldw	r2,-4(fp)
 14221c0:	d8800015 	stw	r2,0(sp)
 14221c4:	e1fffe17 	ldw	r7,-8(fp)
 14221c8:	e1bffd17 	ldw	r6,-12(fp)
 14221cc:	e17ffc17 	ldw	r5,-16(fp)
 14221d0:	010050b4 	movhi	r4,322
 14221d4:	21003204 	addi	r4,r4,200
 14221d8:	142106c0 	call	142106c <_vsnprintf>
 14221dc:	e037883a 	mov	sp,fp
 14221e0:	dfc00117 	ldw	ra,4(sp)
 14221e4:	df000017 	ldw	fp,0(sp)
 14221e8:	dec00204 	addi	sp,sp,8
 14221ec:	f800283a 	ret

014221f0 <fctprintf>:
 14221f0:	defff504 	addi	sp,sp,-44
 14221f4:	dfc00915 	stw	ra,36(sp)
 14221f8:	df000815 	stw	fp,32(sp)
 14221fc:	df000804 	addi	fp,sp,32
 1422200:	e13ffd15 	stw	r4,-12(fp)
 1422204:	e17ffe15 	stw	r5,-8(fp)
 1422208:	e1bfff15 	stw	r6,-4(fp)
 142220c:	e1c00215 	stw	r7,8(fp)
 1422210:	e0800204 	addi	r2,fp,8
 1422214:	e0bffa15 	stw	r2,-24(fp)
 1422218:	e0bffd17 	ldw	r2,-12(fp)
 142221c:	e0bffb15 	stw	r2,-20(fp)
 1422220:	e0bffe17 	ldw	r2,-8(fp)
 1422224:	e0bffc15 	stw	r2,-16(fp)
 1422228:	e0bffa17 	ldw	r2,-24(fp)
 142222c:	e0fffb04 	addi	r3,fp,-20
 1422230:	d8800015 	stw	r2,0(sp)
 1422234:	e1ffff17 	ldw	r7,-4(fp)
 1422238:	01bfffc4 	movi	r6,-1
 142223c:	180b883a 	mov	r5,r3
 1422240:	010050b4 	movhi	r4,322
 1422244:	21006804 	addi	r4,r4,416
 1422248:	142106c0 	call	142106c <_vsnprintf>
 142224c:	e0bff915 	stw	r2,-28(fp)
 1422250:	e0bff917 	ldw	r2,-28(fp)
 1422254:	e037883a 	mov	sp,fp
 1422258:	dfc00117 	ldw	ra,4(sp)
 142225c:	df000017 	ldw	fp,0(sp)
 1422260:	dec00304 	addi	sp,sp,12
 1422264:	f800283a 	ret

01422268 <_ZN8AdsrCoreC1EmP8DdfsCore>:
 1422268:	defffb04 	addi	sp,sp,-20
 142226c:	dfc00415 	stw	ra,16(sp)
 1422270:	df000315 	stw	fp,12(sp)
 1422274:	df000304 	addi	fp,sp,12
 1422278:	e13ffd15 	stw	r4,-12(fp)
 142227c:	e17ffe15 	stw	r5,-8(fp)
 1422280:	e1bfff15 	stw	r6,-4(fp)
 1422284:	e0bffd17 	ldw	r2,-12(fp)
 1422288:	e0fffe17 	ldw	r3,-8(fp)
 142228c:	10c00015 	stw	r3,0(r2)
 1422290:	e0bffd17 	ldw	r2,-12(fp)
 1422294:	e0ffff17 	ldw	r3,-4(fp)
 1422298:	10c00615 	stw	r3,24(r2)
 142229c:	e13ffd17 	ldw	r4,-12(fp)
 14222a0:	14222ec0 	call	14222ec <_ZN8AdsrCore4initEv>
 14222a4:	01400044 	movi	r5,1
 14222a8:	e13ffd17 	ldw	r4,-12(fp)
 14222ac:	14224f00 	call	14224f0 <_ZN8AdsrCore10select_envEi>
 14222b0:	0001883a 	nop
 14222b4:	e037883a 	mov	sp,fp
 14222b8:	dfc00117 	ldw	ra,4(sp)
 14222bc:	df000017 	ldw	fp,0(sp)
 14222c0:	dec00204 	addi	sp,sp,8
 14222c4:	f800283a 	ret

014222c8 <_ZN8AdsrCoreD1Ev>:
 14222c8:	defffe04 	addi	sp,sp,-8
 14222cc:	df000115 	stw	fp,4(sp)
 14222d0:	df000104 	addi	fp,sp,4
 14222d4:	e13fff15 	stw	r4,-4(fp)
 14222d8:	0001883a 	nop
 14222dc:	e037883a 	mov	sp,fp
 14222e0:	df000017 	ldw	fp,0(sp)
 14222e4:	dec00104 	addi	sp,sp,4
 14222e8:	f800283a 	ret

014222ec <_ZN8AdsrCore4initEv>:
 14222ec:	defffd04 	addi	sp,sp,-12
 14222f0:	dfc00215 	stw	ra,8(sp)
 14222f4:	df000115 	stw	fp,4(sp)
 14222f8:	df000104 	addi	fp,sp,4
 14222fc:	e13fff15 	stw	r4,-4(fp)
 1422300:	e0bfff17 	ldw	r2,-4(fp)
 1422304:	10800617 	ldw	r2,24(r2)
 1422308:	01400044 	movi	r5,1
 142230c:	1009883a 	mov	r4,r2
 1422310:	14235840 	call	1423584 <_ZN8DdfsCore14set_env_sourceEi>
 1422314:	e0bfff17 	ldw	r2,-4(fp)
 1422318:	10800617 	ldw	r2,24(r2)
 142231c:	000b883a 	mov	r5,zero
 1422320:	1009883a 	mov	r4,r2
 1422324:	14234f00 	call	14234f0 <_ZN8DdfsCore14set_fow_sourceEi>
 1422328:	e0bfff17 	ldw	r2,-4(fp)
 142232c:	10800617 	ldw	r2,24(r2)
 1422330:	000b883a 	mov	r5,zero
 1422334:	1009883a 	mov	r4,r2
 1422338:	14236180 	call	1423618 <_ZN8DdfsCore14set_pha_sourceEi>
 142233c:	e0bfff17 	ldw	r2,-4(fp)
 1422340:	10800617 	ldw	r2,24(r2)
 1422344:	01404184 	movi	r5,262
 1422348:	1009883a 	mov	r4,r2
 142234c:	14232d80 	call	14232d8 <_ZN8DdfsCore16set_carrier_freqEi>
 1422350:	e0bfff17 	ldw	r2,-4(fp)
 1422354:	10800617 	ldw	r2,24(r2)
 1422358:	000b883a 	mov	r5,zero
 142235c:	1009883a 	mov	r4,r2
 1422360:	14233740 	call	1423374 <_ZN8DdfsCore15set_offset_freqEi>
 1422364:	e0bfff17 	ldw	r2,-4(fp)
 1422368:	10800617 	ldw	r2,24(r2)
 142236c:	000b883a 	mov	r5,zero
 1422370:	1009883a 	mov	r4,r2
 1422374:	14234140 	call	1423414 <_ZN8DdfsCore16set_phase_degreeEi>
 1422378:	0001883a 	nop
 142237c:	e037883a 	mov	sp,fp
 1422380:	dfc00117 	ldw	ra,4(sp)
 1422384:	df000017 	ldw	fp,0(sp)
 1422388:	dec00204 	addi	sp,sp,8
 142238c:	f800283a 	ret

01422390 <_ZN8AdsrCore4idleEv>:
 1422390:	defffd04 	addi	sp,sp,-12
 1422394:	df000215 	stw	fp,8(sp)
 1422398:	df000204 	addi	fp,sp,8
 142239c:	e13fff15 	stw	r4,-4(fp)
 14223a0:	e0bfff17 	ldw	r2,-4(fp)
 14223a4:	10800017 	ldw	r2,0(r2)
 14223a8:	10800017 	ldw	r2,0(r2)
 14223ac:	1080004c 	andi	r2,r2,1
 14223b0:	e0bffe15 	stw	r2,-8(fp)
 14223b4:	e0bffe17 	ldw	r2,-8(fp)
 14223b8:	e037883a 	mov	sp,fp
 14223bc:	df000017 	ldw	fp,0(sp)
 14223c0:	dec00104 	addi	sp,sp,4
 14223c4:	f800283a 	ret

014223c8 <_ZN8AdsrCore5startEv>:
 14223c8:	defffe04 	addi	sp,sp,-8
 14223cc:	df000115 	stw	fp,4(sp)
 14223d0:	df000104 	addi	fp,sp,4
 14223d4:	e13fff15 	stw	r4,-4(fp)
 14223d8:	e0bfff17 	ldw	r2,-4(fp)
 14223dc:	10800017 	ldw	r2,0(r2)
 14223e0:	10000015 	stw	zero,0(r2)
 14223e4:	0001883a 	nop
 14223e8:	e037883a 	mov	sp,fp
 14223ec:	df000017 	ldw	fp,0(sp)
 14223f0:	dec00104 	addi	sp,sp,4
 14223f4:	f800283a 	ret

014223f8 <_ZN8AdsrCore5abortEv>:
 14223f8:	defffe04 	addi	sp,sp,-8
 14223fc:	df000115 	stw	fp,4(sp)
 1422400:	df000104 	addi	fp,sp,4
 1422404:	e13fff15 	stw	r4,-4(fp)
 1422408:	e0bfff17 	ldw	r2,-4(fp)
 142240c:	10800017 	ldw	r2,0(r2)
 1422410:	10800104 	addi	r2,r2,4
 1422414:	10000015 	stw	zero,0(r2)
 1422418:	0001883a 	nop
 142241c:	e037883a 	mov	sp,fp
 1422420:	df000017 	ldw	fp,0(sp)
 1422424:	dec00104 	addi	sp,sp,4
 1422428:	f800283a 	ret

0142242c <_ZN8AdsrCore6bypassEv>:
 142242c:	defffe04 	addi	sp,sp,-8
 1422430:	df000115 	stw	fp,4(sp)
 1422434:	df000104 	addi	fp,sp,4
 1422438:	e13fff15 	stw	r4,-4(fp)
 142243c:	e0bfff17 	ldw	r2,-4(fp)
 1422440:	00ffffc4 	movi	r3,-1
 1422444:	10c00115 	stw	r3,4(r2)
 1422448:	e0bfff17 	ldw	r2,-4(fp)
 142244c:	10800017 	ldw	r2,0(r2)
 1422450:	10800104 	addi	r2,r2,4
 1422454:	1007883a 	mov	r3,r2
 1422458:	00bfffc4 	movi	r2,-1
 142245c:	18800015 	stw	r2,0(r3)
 1422460:	0001883a 	nop
 1422464:	e037883a 	mov	sp,fp
 1422468:	df000017 	ldw	fp,0(sp)
 142246c:	dec00104 	addi	sp,sp,4
 1422470:	f800283a 	ret

01422474 <_ZN8AdsrCore7set_envEiiiif>:
 1422474:	defffa04 	addi	sp,sp,-24
 1422478:	dfc00515 	stw	ra,20(sp)
 142247c:	df000415 	stw	fp,16(sp)
 1422480:	df000404 	addi	fp,sp,16
 1422484:	e13ffc15 	stw	r4,-16(fp)
 1422488:	e17ffd15 	stw	r5,-12(fp)
 142248c:	e1bffe15 	stw	r6,-8(fp)
 1422490:	e1ffff15 	stw	r7,-4(fp)
 1422494:	e0bffc17 	ldw	r2,-16(fp)
 1422498:	e0fffd17 	ldw	r3,-12(fp)
 142249c:	10c00115 	stw	r3,4(r2)
 14224a0:	e0bffc17 	ldw	r2,-16(fp)
 14224a4:	e0fffe17 	ldw	r3,-8(fp)
 14224a8:	10c00215 	stw	r3,8(r2)
 14224ac:	e0bffc17 	ldw	r2,-16(fp)
 14224b0:	e0ffff17 	ldw	r3,-4(fp)
 14224b4:	10c00315 	stw	r3,12(r2)
 14224b8:	e0bffc17 	ldw	r2,-16(fp)
 14224bc:	e0c00217 	ldw	r3,8(fp)
 14224c0:	10c00415 	stw	r3,16(r2)
 14224c4:	e0bffc17 	ldw	r2,-16(fp)
 14224c8:	e0c00317 	ldw	r3,12(fp)
 14224cc:	10c00515 	stw	r3,20(r2)
 14224d0:	e13ffc17 	ldw	r4,-16(fp)
 14224d4:	142278c0 	call	142278c <_ZN8AdsrCore14write_adsr_regEv>
 14224d8:	0001883a 	nop
 14224dc:	e037883a 	mov	sp,fp
 14224e0:	dfc00117 	ldw	ra,4(sp)
 14224e4:	df000017 	ldw	fp,0(sp)
 14224e8:	dec00204 	addi	sp,sp,8
 14224ec:	f800283a 	ret

014224f0 <_ZN8AdsrCore10select_envEi>:
 14224f0:	defffa04 	addi	sp,sp,-24
 14224f4:	dfc00515 	stw	ra,20(sp)
 14224f8:	df000415 	stw	fp,16(sp)
 14224fc:	df000404 	addi	fp,sp,16
 1422500:	e13ffe15 	stw	r4,-8(fp)
 1422504:	e17fff15 	stw	r5,-4(fp)
 1422508:	e0bfff17 	ldw	r2,-4(fp)
 142250c:	10c00060 	cmpeqi	r3,r2,1
 1422510:	1800031e 	bne	r3,zero,1422520 <_ZN8AdsrCore10select_envEi+0x30>
 1422514:	108000a0 	cmpeqi	r2,r2,2
 1422518:	10000c1e 	bne	r2,zero,142254c <_ZN8AdsrCore10select_envEi+0x5c>
 142251c:	00001606 	br	1422578 <_ZN8AdsrCore10select_envEi+0x88>
 1422520:	008fd9b4 	movhi	r2,16230
 1422524:	10999984 	addi	r2,r2,26214
 1422528:	d8800115 	stw	r2,4(sp)
 142252c:	00800c84 	movi	r2,50
 1422530:	d8800015 	stw	r2,0(sp)
 1422534:	01c01904 	movi	r7,100
 1422538:	01800c84 	movi	r6,50
 142253c:	01401904 	movi	r5,100
 1422540:	e13ffe17 	ldw	r4,-8(fp)
 1422544:	14224740 	call	1422474 <_ZN8AdsrCore7set_envEiiiif>
 1422548:	00001606 	br	14225a4 <_ZN8AdsrCore10select_envEi+0xb4>
 142254c:	008fd9b4 	movhi	r2,16230
 1422550:	10999984 	addi	r2,r2,26214
 1422554:	d8800115 	stw	r2,4(sp)
 1422558:	00801904 	movi	r2,100
 142255c:	d8800015 	stw	r2,0(sp)
 1422560:	01c01904 	movi	r7,100
 1422564:	01800c84 	movi	r6,50
 1422568:	01400284 	movi	r5,10
 142256c:	e13ffe17 	ldw	r4,-8(fp)
 1422570:	14224740 	call	1422474 <_ZN8AdsrCore7set_envEiiiif>
 1422574:	00000b06 	br	14225a4 <_ZN8AdsrCore10select_envEi+0xb4>
 1422578:	008f7374 	movhi	r2,15821
 142257c:	10b33344 	addi	r2,r2,-13107
 1422580:	d8800115 	stw	r2,4(sp)
 1422584:	00801904 	movi	r2,100
 1422588:	d8800015 	stw	r2,0(sp)
 142258c:	01c01904 	movi	r7,100
 1422590:	01803204 	movi	r6,200
 1422594:	01400284 	movi	r5,10
 1422598:	e13ffe17 	ldw	r4,-8(fp)
 142259c:	14224740 	call	1422474 <_ZN8AdsrCore7set_envEiiiif>
 14225a0:	0001883a 	nop
 14225a4:	0001883a 	nop
 14225a8:	e037883a 	mov	sp,fp
 14225ac:	dfc00117 	ldw	ra,4(sp)
 14225b0:	df000017 	ldw	fp,0(sp)
 14225b4:	dec00204 	addi	sp,sp,8
 14225b8:	f800283a 	ret

014225bc <_ZN8AdsrCore9play_noteEiii>:
 14225bc:	defff604 	addi	sp,sp,-40
 14225c0:	dfc00915 	stw	ra,36(sp)
 14225c4:	df000815 	stw	fp,32(sp)
 14225c8:	df000804 	addi	fp,sp,32
 14225cc:	e13ffc15 	stw	r4,-16(fp)
 14225d0:	e17ffd15 	stw	r5,-12(fp)
 14225d4:	e1bffe15 	stw	r6,-8(fp)
 14225d8:	e1ffff15 	stw	r7,-4(fp)
 14225dc:	e1bffd17 	ldw	r6,-12(fp)
 14225e0:	e17ffe17 	ldw	r5,-8(fp)
 14225e4:	e13ffc17 	ldw	r4,-16(fp)
 14225e8:	14226980 	call	1422698 <_ZN8AdsrCore14calc_note_freqEii>
 14225ec:	e0bffb15 	stw	r2,-20(fp)
 14225f0:	e0bffc17 	ldw	r2,-16(fp)
 14225f4:	10800617 	ldw	r2,24(r2)
 14225f8:	e17ffb17 	ldw	r5,-20(fp)
 14225fc:	1009883a 	mov	r4,r2
 1422600:	14232d80 	call	14232d8 <_ZN8DdfsCore16set_carrier_freqEi>
 1422604:	e0bffc17 	ldw	r2,-16(fp)
 1422608:	10c00117 	ldw	r3,4(r2)
 142260c:	e0bffc17 	ldw	r2,-16(fp)
 1422610:	10800217 	ldw	r2,8(r2)
 1422614:	1887883a 	add	r3,r3,r2
 1422618:	e0bffc17 	ldw	r2,-16(fp)
 142261c:	10800417 	ldw	r2,16(r2)
 1422620:	1885883a 	add	r2,r3,r2
 1422624:	e0ffff17 	ldw	r3,-4(fp)
 1422628:	1885c83a 	sub	r2,r3,r2
 142262c:	e0bffa15 	stw	r2,-24(fp)
 1422630:	e0bffa17 	ldw	r2,-24(fp)
 1422634:	00800216 	blt	zero,r2,1422640 <_ZN8AdsrCore9play_noteEiii+0x84>
 1422638:	00800284 	movi	r2,10
 142263c:	e0bffa15 	stw	r2,-24(fp)
 1422640:	e0bffc17 	ldw	r2,-16(fp)
 1422644:	11400117 	ldw	r5,4(r2)
 1422648:	e0bffc17 	ldw	r2,-16(fp)
 142264c:	11800217 	ldw	r6,8(r2)
 1422650:	e0bffc17 	ldw	r2,-16(fp)
 1422654:	10800417 	ldw	r2,16(r2)
 1422658:	e13ffc17 	ldw	r4,-16(fp)
 142265c:	20c00517 	ldw	r3,20(r4)
 1422660:	d8c00115 	stw	r3,4(sp)
 1422664:	d8800015 	stw	r2,0(sp)
 1422668:	e1fffa17 	ldw	r7,-24(fp)
 142266c:	e13ffc17 	ldw	r4,-16(fp)
 1422670:	14224740 	call	1422474 <_ZN8AdsrCore7set_envEiiiif>
 1422674:	e0bffc17 	ldw	r2,-16(fp)
 1422678:	10800017 	ldw	r2,0(r2)
 142267c:	10000015 	stw	zero,0(r2)
 1422680:	0001883a 	nop
 1422684:	e037883a 	mov	sp,fp
 1422688:	dfc00117 	ldw	ra,4(sp)
 142268c:	df000017 	ldw	fp,0(sp)
 1422690:	dec00204 	addi	sp,sp,8
 1422694:	f800283a 	ret

01422698 <_ZN8AdsrCore14calc_note_freqEii>:
 1422698:	deffee04 	addi	sp,sp,-72
 142269c:	dfc01115 	stw	ra,68(sp)
 14226a0:	df001015 	stw	fp,64(sp)
 14226a4:	df001004 	addi	fp,sp,64
 14226a8:	e13ffd15 	stw	r4,-12(fp)
 14226ac:	e17ffe15 	stw	r5,-8(fp)
 14226b0:	e1bfff15 	stw	r6,-4(fp)
 14226b4:	009060f4 	movhi	r2,16771
 14226b8:	10b40504 	addi	r2,r2,-12268
 14226bc:	e0bff115 	stw	r2,-60(fp)
 14226c0:	009062f4 	movhi	r2,16779
 14226c4:	10a5d644 	addi	r2,r2,-26791
 14226c8:	e0bff215 	stw	r2,-56(fp)
 14226cc:	009064f4 	movhi	r2,16787
 14226d0:	10b54c84 	addi	r2,r2,-10958
 14226d4:	e0bff315 	stw	r2,-52(fp)
 14226d8:	00906734 	movhi	r2,16796
 14226dc:	10a40b84 	addi	r2,r2,-28626
 14226e0:	e0bff415 	stw	r2,-48(fp)
 14226e4:	00906974 	movhi	r2,16805
 14226e8:	10b41204 	addi	r2,r2,-12216
 14226ec:	e0bff515 	stw	r2,-44(fp)
 14226f0:	00906bf4 	movhi	r2,16815
 14226f4:	10a75244 	addi	r2,r2,-25271
 14226f8:	e0bff615 	stw	r2,-40(fp)
 14226fc:	00906e74 	movhi	r2,16825
 1422700:	10bfd8c4 	addi	r2,r2,-157
 1422704:	e0bff715 	stw	r2,-36(fp)
 1422708:	00907134 	movhi	r2,16836
 142270c:	10bfd8c4 	addi	r2,r2,-157
 1422710:	e0bff815 	stw	r2,-32(fp)
 1422714:	00907434 	movhi	r2,16848
 1422718:	10a9ba44 	addi	r2,r2,-22807
 142271c:	e0bff915 	stw	r2,-28(fp)
 1422720:	00907734 	movhi	r2,16860
 1422724:	e0bffa15 	stw	r2,-24(fp)
 1422728:	00907a74 	movhi	r2,16873
 142272c:	10853904 	addi	r2,r2,5348
 1422730:	e0bffb15 	stw	r2,-20(fp)
 1422734:	00907df4 	movhi	r2,16887
 1422738:	10bc4344 	addi	r2,r2,-3827
 142273c:	e0bffc15 	stw	r2,-16(fp)
 1422740:	e0bfff17 	ldw	r2,-4(fp)
 1422744:	1085883a 	add	r2,r2,r2
 1422748:	1085883a 	add	r2,r2,r2
 142274c:	e0fff004 	addi	r3,fp,-64
 1422750:	1885883a 	add	r2,r3,r2
 1422754:	10800104 	addi	r2,r2,4
 1422758:	10c00017 	ldw	r3,0(r2)
 142275c:	1809883a 	mov	r4,r3
 1422760:	1427a4c0 	call	1427a4c <__fixunssfsi>
 1422764:	1007883a 	mov	r3,r2
 1422768:	e0bffe17 	ldw	r2,-8(fp)
 142276c:	1884983a 	sll	r2,r3,r2
 1422770:	e0bff015 	stw	r2,-64(fp)
 1422774:	e0bff017 	ldw	r2,-64(fp)
 1422778:	e037883a 	mov	sp,fp
 142277c:	dfc00117 	ldw	ra,4(sp)
 1422780:	df000017 	ldw	fp,0(sp)
 1422784:	dec00204 	addi	sp,sp,8
 1422788:	f800283a 	ret

0142278c <_ZN8AdsrCore14write_adsr_regEv>:
 142278c:	defff904 	addi	sp,sp,-28
 1422790:	dfc00615 	stw	ra,24(sp)
 1422794:	df000515 	stw	fp,20(sp)
 1422798:	df000504 	addi	fp,sp,20
 142279c:	e13fff15 	stw	r4,-4(fp)
 14227a0:	00b0d414 	movui	r2,50000
 14227a4:	e0bffc15 	stw	r2,-16(fp)
 14227a8:	e0bfff17 	ldw	r2,-4(fp)
 14227ac:	10800117 	ldw	r2,4(r2)
 14227b0:	10bfffd8 	cmpnei	r2,r2,-1
 14227b4:	1000071e 	bne	r2,zero,14227d4 <_ZN8AdsrCore14write_adsr_regEv+0x48>
 14227b8:	e0bfff17 	ldw	r2,-4(fp)
 14227bc:	10800017 	ldw	r2,0(r2)
 14227c0:	10800104 	addi	r2,r2,4
 14227c4:	1007883a 	mov	r3,r2
 14227c8:	00bfffc4 	movi	r2,-1
 14227cc:	18800015 	stw	r2,0(r3)
 14227d0:	00006706 	br	1422970 <_ZN8AdsrCore14write_adsr_regEv+0x1e4>
 14227d4:	e0bfff17 	ldw	r2,-4(fp)
 14227d8:	10800117 	ldw	r2,4(r2)
 14227dc:	1000051e 	bne	r2,zero,14227f4 <_ZN8AdsrCore14write_adsr_regEv+0x68>
 14227e0:	e0bfff17 	ldw	r2,-4(fp)
 14227e4:	10800017 	ldw	r2,0(r2)
 14227e8:	10800104 	addi	r2,r2,4
 14227ec:	10000015 	stw	zero,0(r2)
 14227f0:	00005f06 	br	1422970 <_ZN8AdsrCore14write_adsr_regEv+0x1e4>
 14227f4:	e0bfff17 	ldw	r2,-4(fp)
 14227f8:	10c00517 	ldw	r3,20(r2)
 14227fc:	0153c034 	movhi	r5,20224
 1422800:	1809883a 	mov	r4,r3
 1422804:	1428db80 	call	1428db8 <__mulsf3>
 1422808:	1007883a 	mov	r3,r2
 142280c:	1805883a 	mov	r2,r3
 1422810:	1009883a 	mov	r4,r2
 1422814:	1427a4c0 	call	1427a4c <__fixunssfsi>
 1422818:	e0bffd15 	stw	r2,-12(fp)
 142281c:	e0bfff17 	ldw	r2,-4(fp)
 1422820:	10800017 	ldw	r2,0(r2)
 1422824:	10800504 	addi	r2,r2,20
 1422828:	1007883a 	mov	r3,r2
 142282c:	e0bffd17 	ldw	r2,-12(fp)
 1422830:	18800015 	stw	r2,0(r3)
 1422834:	e0bfff17 	ldw	r2,-4(fp)
 1422838:	10800117 	ldw	r2,4(r2)
 142283c:	0170d414 	movui	r5,50000
 1422840:	1009883a 	mov	r4,r2
 1422844:	14288940 	call	1428894 <__mulsi3>
 1422848:	e0bffe15 	stw	r2,-8(fp)
 142284c:	e17ffe17 	ldw	r5,-8(fp)
 1422850:	01200034 	movhi	r4,32768
 1422854:	213fffc4 	addi	r4,r4,-1
 1422858:	14287d80 	call	14287d8 <__udivsi3>
 142285c:	e0bffb15 	stw	r2,-20(fp)
 1422860:	e0bffb17 	ldw	r2,-20(fp)
 1422864:	1000021e 	bne	r2,zero,1422870 <_ZN8AdsrCore14write_adsr_regEv+0xe4>
 1422868:	00800044 	movi	r2,1
 142286c:	e0bffb15 	stw	r2,-20(fp)
 1422870:	e0bfff17 	ldw	r2,-4(fp)
 1422874:	10800017 	ldw	r2,0(r2)
 1422878:	10800104 	addi	r2,r2,4
 142287c:	1007883a 	mov	r3,r2
 1422880:	e0bffb17 	ldw	r2,-20(fp)
 1422884:	18800015 	stw	r2,0(r3)
 1422888:	14230700 	call	1423070 <debug_off>
 142288c:	e0bfff17 	ldw	r2,-4(fp)
 1422890:	10800217 	ldw	r2,8(r2)
 1422894:	0170d414 	movui	r5,50000
 1422898:	1009883a 	mov	r4,r2
 142289c:	14288940 	call	1428894 <__mulsi3>
 14228a0:	e0bffe15 	stw	r2,-8(fp)
 14228a4:	00a00034 	movhi	r2,32768
 14228a8:	10bfffc4 	addi	r2,r2,-1
 14228ac:	e0fffd17 	ldw	r3,-12(fp)
 14228b0:	10c5c83a 	sub	r2,r2,r3
 14228b4:	e17ffe17 	ldw	r5,-8(fp)
 14228b8:	1009883a 	mov	r4,r2
 14228bc:	14287d80 	call	14287d8 <__udivsi3>
 14228c0:	e0bffb15 	stw	r2,-20(fp)
 14228c4:	e0bffb17 	ldw	r2,-20(fp)
 14228c8:	1000021e 	bne	r2,zero,14228d4 <_ZN8AdsrCore14write_adsr_regEv+0x148>
 14228cc:	00800044 	movi	r2,1
 14228d0:	e0bffb15 	stw	r2,-20(fp)
 14228d4:	e0bfff17 	ldw	r2,-4(fp)
 14228d8:	10800017 	ldw	r2,0(r2)
 14228dc:	10800204 	addi	r2,r2,8
 14228e0:	1007883a 	mov	r3,r2
 14228e4:	e0bffb17 	ldw	r2,-20(fp)
 14228e8:	18800015 	stw	r2,0(r3)
 14228ec:	e0bfff17 	ldw	r2,-4(fp)
 14228f0:	10800317 	ldw	r2,12(r2)
 14228f4:	0170d414 	movui	r5,50000
 14228f8:	1009883a 	mov	r4,r2
 14228fc:	14288940 	call	1428894 <__mulsi3>
 1422900:	e0bffe15 	stw	r2,-8(fp)
 1422904:	e0bfff17 	ldw	r2,-4(fp)
 1422908:	10800017 	ldw	r2,0(r2)
 142290c:	10800304 	addi	r2,r2,12
 1422910:	1007883a 	mov	r3,r2
 1422914:	e0bffe17 	ldw	r2,-8(fp)
 1422918:	18800015 	stw	r2,0(r3)
 142291c:	14230700 	call	1423070 <debug_off>
 1422920:	e0bfff17 	ldw	r2,-4(fp)
 1422924:	10800417 	ldw	r2,16(r2)
 1422928:	0170d414 	movui	r5,50000
 142292c:	1009883a 	mov	r4,r2
 1422930:	14288940 	call	1428894 <__mulsi3>
 1422934:	e0bffe15 	stw	r2,-8(fp)
 1422938:	e17ffe17 	ldw	r5,-8(fp)
 142293c:	e13ffd17 	ldw	r4,-12(fp)
 1422940:	14287d80 	call	14287d8 <__udivsi3>
 1422944:	e0bffb15 	stw	r2,-20(fp)
 1422948:	e0bffb17 	ldw	r2,-20(fp)
 142294c:	1000021e 	bne	r2,zero,1422958 <_ZN8AdsrCore14write_adsr_regEv+0x1cc>
 1422950:	00800044 	movi	r2,1
 1422954:	e0bffb15 	stw	r2,-20(fp)
 1422958:	e0bfff17 	ldw	r2,-4(fp)
 142295c:	10800017 	ldw	r2,0(r2)
 1422960:	10800404 	addi	r2,r2,16
 1422964:	1007883a 	mov	r3,r2
 1422968:	e0bffb17 	ldw	r2,-20(fp)
 142296c:	18800015 	stw	r2,0(r3)
 1422970:	e037883a 	mov	sp,fp
 1422974:	dfc00117 	ldw	ra,4(sp)
 1422978:	df000017 	ldw	fp,0(sp)
 142297c:	dec00204 	addi	sp,sp,8
 1422980:	f800283a 	ret

01422984 <_ZN9BlinkSoftC1Ei>:
 1422984:	defffc04 	addi	sp,sp,-16
 1422988:	dfc00315 	stw	ra,12(sp)
 142298c:	df000215 	stw	fp,8(sp)
 1422990:	df000204 	addi	fp,sp,8
 1422994:	e13ffe15 	stw	r4,-8(fp)
 1422998:	e17fff15 	stw	r5,-4(fp)
 142299c:	e0bffe17 	ldw	r2,-8(fp)
 14229a0:	e0ffff17 	ldw	r3,-4(fp)
 14229a4:	10c00015 	stw	r3,0(r2)
 14229a8:	e0bffe17 	ldw	r2,-8(fp)
 14229ac:	10000115 	stw	zero,4(r2)
 14229b0:	1422ebc0 	call	1422ebc <now_ms>
 14229b4:	1007883a 	mov	r3,r2
 14229b8:	e0bffe17 	ldw	r2,-8(fp)
 14229bc:	10c00215 	stw	r3,8(r2)
 14229c0:	01400284 	movi	r5,10
 14229c4:	e13ffe17 	ldw	r4,-8(fp)
 14229c8:	1422a680 	call	1422a68 <_ZN9BlinkSoft8set_rateEi>
 14229cc:	e13ffe17 	ldw	r4,-8(fp)
 14229d0:	1422ab00 	call	1422ab0 <_ZN9BlinkSoft2goEv>
 14229d4:	0001883a 	nop
 14229d8:	e037883a 	mov	sp,fp
 14229dc:	dfc00117 	ldw	ra,4(sp)
 14229e0:	df000017 	ldw	fp,0(sp)
 14229e4:	dec00204 	addi	sp,sp,8
 14229e8:	f800283a 	ret

014229ec <_ZN9BlinkSoftC1Ev>:
 14229ec:	defffd04 	addi	sp,sp,-12
 14229f0:	dfc00215 	stw	ra,8(sp)
 14229f4:	df000115 	stw	fp,4(sp)
 14229f8:	df000104 	addi	fp,sp,4
 14229fc:	e13fff15 	stw	r4,-4(fp)
 1422a00:	e0bfff17 	ldw	r2,-4(fp)
 1422a04:	10000115 	stw	zero,4(r2)
 1422a08:	1422ebc0 	call	1422ebc <now_ms>
 1422a0c:	1007883a 	mov	r3,r2
 1422a10:	e0bfff17 	ldw	r2,-4(fp)
 1422a14:	10c00215 	stw	r3,8(r2)
 1422a18:	01400284 	movi	r5,10
 1422a1c:	e13fff17 	ldw	r4,-4(fp)
 1422a20:	1422a680 	call	1422a68 <_ZN9BlinkSoft8set_rateEi>
 1422a24:	e13fff17 	ldw	r4,-4(fp)
 1422a28:	1422ab00 	call	1422ab0 <_ZN9BlinkSoft2goEv>
 1422a2c:	0001883a 	nop
 1422a30:	e037883a 	mov	sp,fp
 1422a34:	dfc00117 	ldw	ra,4(sp)
 1422a38:	df000017 	ldw	fp,0(sp)
 1422a3c:	dec00204 	addi	sp,sp,8
 1422a40:	f800283a 	ret

01422a44 <_ZN9BlinkSoftD1Ev>:
 1422a44:	defffe04 	addi	sp,sp,-8
 1422a48:	df000115 	stw	fp,4(sp)
 1422a4c:	df000104 	addi	fp,sp,4
 1422a50:	e13fff15 	stw	r4,-4(fp)
 1422a54:	0001883a 	nop
 1422a58:	e037883a 	mov	sp,fp
 1422a5c:	df000017 	ldw	fp,0(sp)
 1422a60:	dec00104 	addi	sp,sp,4
 1422a64:	f800283a 	ret

01422a68 <_ZN9BlinkSoft8set_rateEi>:
 1422a68:	defffc04 	addi	sp,sp,-16
 1422a6c:	dfc00315 	stw	ra,12(sp)
 1422a70:	df000215 	stw	fp,8(sp)
 1422a74:	df000204 	addi	fp,sp,8
 1422a78:	e13ffe15 	stw	r4,-8(fp)
 1422a7c:	e17fff15 	stw	r5,-4(fp)
 1422a80:	e17fff17 	ldw	r5,-4(fp)
 1422a84:	0100fa04 	movi	r4,1000
 1422a88:	14286e00 	call	14286e0 <__divsi3>
 1422a8c:	1007883a 	mov	r3,r2
 1422a90:	e0bffe17 	ldw	r2,-8(fp)
 1422a94:	10c00315 	stw	r3,12(r2)
 1422a98:	0001883a 	nop
 1422a9c:	e037883a 	mov	sp,fp
 1422aa0:	dfc00117 	ldw	ra,4(sp)
 1422aa4:	df000017 	ldw	fp,0(sp)
 1422aa8:	dec00204 	addi	sp,sp,8
 1422aac:	f800283a 	ret

01422ab0 <_ZN9BlinkSoft2goEv>:
 1422ab0:	defffe04 	addi	sp,sp,-8
 1422ab4:	df000115 	stw	fp,4(sp)
 1422ab8:	df000104 	addi	fp,sp,4
 1422abc:	e13fff15 	stw	r4,-4(fp)
 1422ac0:	e0bfff17 	ldw	r2,-4(fp)
 1422ac4:	10000415 	stw	zero,16(r2)
 1422ac8:	0001883a 	nop
 1422acc:	e037883a 	mov	sp,fp
 1422ad0:	df000017 	ldw	fp,0(sp)
 1422ad4:	dec00104 	addi	sp,sp,4
 1422ad8:	f800283a 	ret

01422adc <_ZN9BlinkSoft4stopEv>:
 1422adc:	defffe04 	addi	sp,sp,-8
 1422ae0:	df000115 	stw	fp,4(sp)
 1422ae4:	df000104 	addi	fp,sp,4
 1422ae8:	e13fff15 	stw	r4,-4(fp)
 1422aec:	e0bfff17 	ldw	r2,-4(fp)
 1422af0:	00c00044 	movi	r3,1
 1422af4:	10c00415 	stw	r3,16(r2)
 1422af8:	0001883a 	nop
 1422afc:	e037883a 	mov	sp,fp
 1422b00:	df000017 	ldw	fp,0(sp)
 1422b04:	dec00104 	addi	sp,sp,4
 1422b08:	f800283a 	ret

01422b0c <_ZN9BlinkSoft11SetPositionEi>:
 1422b0c:	defffd04 	addi	sp,sp,-12
 1422b10:	df000215 	stw	fp,8(sp)
 1422b14:	df000204 	addi	fp,sp,8
 1422b18:	e13ffe15 	stw	r4,-8(fp)
 1422b1c:	e17fff15 	stw	r5,-4(fp)
 1422b20:	e0bffe17 	ldw	r2,-8(fp)
 1422b24:	e0ffff17 	ldw	r3,-4(fp)
 1422b28:	10c00015 	stw	r3,0(r2)
 1422b2c:	0001883a 	nop
 1422b30:	e037883a 	mov	sp,fp
 1422b34:	df000017 	ldw	fp,0(sp)
 1422b38:	dec00104 	addi	sp,sp,4
 1422b3c:	f800283a 	ret

01422b40 <_ZN9BlinkSoft15poll_and_toggleEv>:
 1422b40:	defffa04 	addi	sp,sp,-24
 1422b44:	dfc00515 	stw	ra,20(sp)
 1422b48:	df000415 	stw	fp,16(sp)
 1422b4c:	dc800315 	stw	r18,12(sp)
 1422b50:	dc400215 	stw	r17,8(sp)
 1422b54:	dc000115 	stw	r16,4(sp)
 1422b58:	df000404 	addi	fp,sp,16
 1422b5c:	e13ffc15 	stw	r4,-16(fp)
 1422b60:	e0bffc17 	ldw	r2,-16(fp)
 1422b64:	10800417 	ldw	r2,16(r2)
 1422b68:	10000c26 	beq	r2,zero,1422b9c <_ZN9BlinkSoft15poll_and_toggleEv+0x5c>
 1422b6c:	e0bffc17 	ldw	r2,-16(fp)
 1422b70:	00c00044 	movi	r3,1
 1422b74:	10c00115 	stw	r3,4(r2)
 1422b78:	e0bffc17 	ldw	r2,-16(fp)
 1422b7c:	10c00117 	ldw	r3,4(r2)
 1422b80:	e0bffc17 	ldw	r2,-16(fp)
 1422b84:	10800017 	ldw	r2,0(r2)
 1422b88:	100d883a 	mov	r6,r2
 1422b8c:	180b883a 	mov	r5,r3
 1422b90:	d122a304 	addi	r4,gp,-30068
 1422b94:	1423b680 	call	1423b68 <_ZN7GpoCore5writeEii>
 1422b98:	00003406 	br	1422c6c <_ZN9BlinkSoft15poll_and_toggleEv+0x12c>
 1422b9c:	1422ebc0 	call	1422ebc <now_ms>
 1422ba0:	1007883a 	mov	r3,r2
 1422ba4:	e0bffc17 	ldw	r2,-16(fp)
 1422ba8:	10800217 	ldw	r2,8(r2)
 1422bac:	1885c83a 	sub	r2,r3,r2
 1422bb0:	1009883a 	mov	r4,r2
 1422bb4:	142b83c0 	call	142b83c <__floatunsidf>
 1422bb8:	1021883a 	mov	r16,r2
 1422bbc:	1823883a 	mov	r17,r3
 1422bc0:	e0bffc17 	ldw	r2,-16(fp)
 1422bc4:	10800317 	ldw	r2,12(r2)
 1422bc8:	1009883a 	mov	r4,r2
 1422bcc:	142b7600 	call	142b760 <__floatsidf>
 1422bd0:	1011883a 	mov	r8,r2
 1422bd4:	1813883a 	mov	r9,r3
 1422bd8:	000d883a 	mov	r6,zero
 1422bdc:	01cff834 	movhi	r7,16352
 1422be0:	4009883a 	mov	r4,r8
 1422be4:	480b883a 	mov	r5,r9
 1422be8:	142a5780 	call	142a578 <__muldf3>
 1422bec:	1009883a 	mov	r4,r2
 1422bf0:	180b883a 	mov	r5,r3
 1422bf4:	2005883a 	mov	r2,r4
 1422bf8:	2807883a 	mov	r3,r5
 1422bfc:	04800044 	movi	r18,1
 1422c00:	100d883a 	mov	r6,r2
 1422c04:	180f883a 	mov	r7,r3
 1422c08:	8009883a 	mov	r4,r16
 1422c0c:	880b883a 	mov	r5,r17
 1422c10:	142a3a80 	call	142a3a8 <__gedf2>
 1422c14:	00800116 	blt	zero,r2,1422c1c <_ZN9BlinkSoft15poll_and_toggleEv+0xdc>
 1422c18:	0025883a 	mov	r18,zero
 1422c1c:	90803fcc 	andi	r2,r18,255
 1422c20:	10001226 	beq	r2,zero,1422c6c <_ZN9BlinkSoft15poll_and_toggleEv+0x12c>
 1422c24:	1422ebc0 	call	1422ebc <now_ms>
 1422c28:	1007883a 	mov	r3,r2
 1422c2c:	e0bffc17 	ldw	r2,-16(fp)
 1422c30:	10c00215 	stw	r3,8(r2)
 1422c34:	e0bffc17 	ldw	r2,-16(fp)
 1422c38:	10800117 	ldw	r2,4(r2)
 1422c3c:	1005003a 	cmpeq	r2,r2,zero
 1422c40:	10c03fcc 	andi	r3,r2,255
 1422c44:	e0bffc17 	ldw	r2,-16(fp)
 1422c48:	10c00115 	stw	r3,4(r2)
 1422c4c:	e0bffc17 	ldw	r2,-16(fp)
 1422c50:	10c00117 	ldw	r3,4(r2)
 1422c54:	e0bffc17 	ldw	r2,-16(fp)
 1422c58:	10800017 	ldw	r2,0(r2)
 1422c5c:	100d883a 	mov	r6,r2
 1422c60:	180b883a 	mov	r5,r3
 1422c64:	d122a304 	addi	r4,gp,-30068
 1422c68:	1423b680 	call	1423b68 <_ZN7GpoCore5writeEii>
 1422c6c:	0001883a 	nop
 1422c70:	e6fffd04 	addi	sp,fp,-12
 1422c74:	dfc00417 	ldw	ra,16(sp)
 1422c78:	df000317 	ldw	fp,12(sp)
 1422c7c:	dc800217 	ldw	r18,8(sp)
 1422c80:	dc400117 	ldw	r17,4(sp)
 1422c84:	dc000017 	ldw	r16,0(sp)
 1422c88:	dec00504 	addi	sp,sp,20
 1422c8c:	f800283a 	ret

01422c90 <main>:
 1422c90:	deffb304 	addi	sp,sp,-308
 1422c94:	dfc04c15 	stw	ra,304(sp)
 1422c98:	df004b15 	stw	fp,300(sp)
 1422c9c:	ddc04a15 	stw	r23,296(sp)
 1422ca0:	dd804915 	stw	r22,292(sp)
 1422ca4:	dd404815 	stw	r21,288(sp)
 1422ca8:	dd004715 	stw	r20,284(sp)
 1422cac:	dcc04615 	stw	r19,280(sp)
 1422cb0:	dc804515 	stw	r18,276(sp)
 1422cb4:	dc404415 	stw	r17,272(sp)
 1422cb8:	dc004315 	stw	r16,268(sp)
 1422cbc:	df004b04 	addi	fp,sp,300
 1422cc0:	008050b4 	movhi	r2,322
 1422cc4:	10991504 	addi	r2,r2,25684
 1422cc8:	e0bfe915 	stw	r2,-92(fp)
 1422ccc:	008050f4 	movhi	r2,323
 1422cd0:	10b6eb04 	addi	r2,r2,-9300
 1422cd4:	e0bfea15 	stw	r2,-88(fp)
 1422cd8:	e0bfeb04 	addi	r2,fp,-84
 1422cdc:	e0ffb504 	addi	r3,fp,-300
 1422ce0:	10c00015 	stw	r3,0(r2)
 1422ce4:	00c050b4 	movhi	r3,322
 1422ce8:	18cb6904 	addi	r3,r3,11684
 1422cec:	10c00115 	stw	r3,4(r2)
 1422cf0:	16c00215 	stw	sp,8(r2)
 1422cf4:	e0bfe304 	addi	r2,fp,-116
 1422cf8:	1009883a 	mov	r4,r2
 1422cfc:	142baec0 	call	142baec <_Unwind_SjLj_Register>
 1422d00:	e13fb604 	addi	r4,fp,-296
 1422d04:	e13ff415 	stw	r4,-48(fp)
 1422d08:	00800204 	movi	r2,8
 1422d0c:	e0bff115 	stw	r2,-60(fp)
 1422d10:	e0fff417 	ldw	r3,-48(fp)
 1422d14:	e0fff015 	stw	r3,-64(fp)
 1422d18:	e13ff117 	ldw	r4,-60(fp)
 1422d1c:	20bfffe0 	cmpeqi	r2,r4,-1
 1422d20:	10000b1e 	bne	r2,zero,1422d50 <main+0xc0>
 1422d24:	00800044 	movi	r2,1
 1422d28:	e0bfe415 	stw	r2,-112(fp)
 1422d2c:	e13ff017 	ldw	r4,-64(fp)
 1422d30:	14229ec0 	call	14229ec <_ZN9BlinkSoftC1Ev>
 1422d34:	e0bff017 	ldw	r2,-64(fp)
 1422d38:	10800504 	addi	r2,r2,20
 1422d3c:	e0bff015 	stw	r2,-64(fp)
 1422d40:	e0fff117 	ldw	r3,-60(fp)
 1422d44:	18ffffc4 	addi	r3,r3,-1
 1422d48:	e0fff115 	stw	r3,-60(fp)
 1422d4c:	003ff206 	br	1422d18 <__alt_data_end+0xfffe2d18>
 1422d50:	e03fb515 	stw	zero,-300(fp)
 1422d54:	e0bfb517 	ldw	r2,-300(fp)
 1422d58:	10800288 	cmpgei	r2,r2,10
 1422d5c:	1000101e 	bne	r2,zero,1422da0 <main+0x110>
 1422d60:	e13fb604 	addi	r4,fp,-296
 1422d64:	e13ff515 	stw	r4,-44(fp)
 1422d68:	01400504 	movi	r5,20
 1422d6c:	e13fb517 	ldw	r4,-300(fp)
 1422d70:	14288940 	call	1428894 <__mulsi3>
 1422d74:	e13ff517 	ldw	r4,-44(fp)
 1422d78:	2087883a 	add	r3,r4,r2
 1422d7c:	00800084 	movi	r2,2
 1422d80:	e0bfe415 	stw	r2,-112(fp)
 1422d84:	e17fb517 	ldw	r5,-300(fp)
 1422d88:	1809883a 	mov	r4,r3
 1422d8c:	1422b0c0 	call	1422b0c <_ZN9BlinkSoft11SetPositionEi>
 1422d90:	e0bfb517 	ldw	r2,-300(fp)
 1422d94:	10800044 	addi	r2,r2,1
 1422d98:	e0bfb515 	stw	r2,-300(fp)
 1422d9c:	003fed06 	br	1422d54 <__alt_data_end+0xfffe2d54>
 1422da0:	003fff06 	br	1422da0 <__alt_data_end+0xfffe2da0>
 1422da4:	e7004b04 	addi	fp,fp,300
 1422da8:	e0ffe517 	ldw	r3,-108(fp)
 1422dac:	e0bfe417 	ldw	r2,-112(fp)
 1422db0:	10000426 	beq	r2,zero,1422dc4 <main+0x134>
 1422db4:	10bfffc4 	addi	r2,r2,-1
 1422db8:	10001d26 	beq	r2,zero,1422e30 <main+0x1a0>
 1422dbc:	10bfffc4 	addi	r2,r2,-1
 1422dc0:	003b68fa 	trap	3
 1422dc4:	e0fff615 	stw	r3,-40(fp)
 1422dc8:	e0bff417 	ldw	r2,-48(fp)
 1422dcc:	10001326 	beq	r2,zero,1422e1c <main+0x18c>
 1422dd0:	00800204 	movi	r2,8
 1422dd4:	e0fff117 	ldw	r3,-60(fp)
 1422dd8:	10c5c83a 	sub	r2,r2,r3
 1422ddc:	01400504 	movi	r5,20
 1422de0:	1009883a 	mov	r4,r2
 1422de4:	14288940 	call	1428894 <__mulsi3>
 1422de8:	e13ff417 	ldw	r4,-48(fp)
 1422dec:	2085883a 	add	r2,r4,r2
 1422df0:	e0bff215 	stw	r2,-56(fp)
 1422df4:	e0bff217 	ldw	r2,-56(fp)
 1422df8:	e0fff417 	ldw	r3,-48(fp)
 1422dfc:	10c00726 	beq	r2,r3,1422e1c <main+0x18c>
 1422e00:	e13ff217 	ldw	r4,-56(fp)
 1422e04:	213ffb04 	addi	r4,r4,-20
 1422e08:	e13ff215 	stw	r4,-56(fp)
 1422e0c:	e03fe415 	stw	zero,-112(fp)
 1422e10:	e13ff217 	ldw	r4,-56(fp)
 1422e14:	1422a440 	call	1422a44 <_ZN9BlinkSoftD1Ev>
 1422e18:	003ff606 	br	1422df4 <__alt_data_end+0xfffe2df4>
 1422e1c:	e0fff617 	ldw	r3,-40(fp)
 1422e20:	00bfffc4 	movi	r2,-1
 1422e24:	e0bfe415 	stw	r2,-112(fp)
 1422e28:	1809883a 	mov	r4,r3
 1422e2c:	142bce80 	call	142bce8 <_Unwind_SjLj_Resume>
 1422e30:	e0fff715 	stw	r3,-36(fp)
 1422e34:	e0bfb604 	addi	r2,fp,-296
 1422e38:	e0bff315 	stw	r2,-52(fp)
 1422e3c:	e0fff317 	ldw	r3,-52(fp)
 1422e40:	18c02d04 	addi	r3,r3,180
 1422e44:	e0fff315 	stw	r3,-52(fp)
 1422e48:	e0bfb604 	addi	r2,fp,-296
 1422e4c:	e13ff317 	ldw	r4,-52(fp)
 1422e50:	20800726 	beq	r4,r2,1422e70 <main+0x1e0>
 1422e54:	e0bff317 	ldw	r2,-52(fp)
 1422e58:	10bffb04 	addi	r2,r2,-20
 1422e5c:	e0bff315 	stw	r2,-52(fp)
 1422e60:	e03fe415 	stw	zero,-112(fp)
 1422e64:	e13ff317 	ldw	r4,-52(fp)
 1422e68:	1422a440 	call	1422a44 <_ZN9BlinkSoftD1Ev>
 1422e6c:	003ff606 	br	1422e48 <__alt_data_end+0xfffe2e48>
 1422e70:	e0fff717 	ldw	r3,-36(fp)
 1422e74:	00bfffc4 	movi	r2,-1
 1422e78:	e0bfe415 	stw	r2,-112(fp)
 1422e7c:	1809883a 	mov	r4,r3
 1422e80:	142bce80 	call	142bce8 <_Unwind_SjLj_Resume>

01422e84 <now_us>:
 1422e84:	defffe04 	addi	sp,sp,-8
 1422e88:	dfc00115 	stw	ra,4(sp)
 1422e8c:	df000015 	stw	fp,0(sp)
 1422e90:	d839883a 	mov	fp,sp
 1422e94:	d1229f04 	addi	r4,gp,-30084
 1422e98:	1424fe40 	call	1424fe4 <_ZN9TimerCore9read_timeEv>
 1422e9c:	1009883a 	mov	r4,r2
 1422ea0:	180b883a 	mov	r5,r3
 1422ea4:	2005883a 	mov	r2,r4
 1422ea8:	e037883a 	mov	sp,fp
 1422eac:	dfc00117 	ldw	ra,4(sp)
 1422eb0:	df000017 	ldw	fp,0(sp)
 1422eb4:	dec00204 	addi	sp,sp,8
 1422eb8:	f800283a 	ret

01422ebc <now_ms>:
 1422ebc:	defffe04 	addi	sp,sp,-8
 1422ec0:	dfc00115 	stw	ra,4(sp)
 1422ec4:	df000015 	stw	fp,0(sp)
 1422ec8:	d839883a 	mov	fp,sp
 1422ecc:	d1229f04 	addi	r4,gp,-30084
 1422ed0:	1424fe40 	call	1424fe4 <_ZN9TimerCore9read_timeEv>
 1422ed4:	1009883a 	mov	r4,r2
 1422ed8:	180b883a 	mov	r5,r3
 1422edc:	2005883a 	mov	r2,r4
 1422ee0:	0140fa04 	movi	r5,1000
 1422ee4:	1009883a 	mov	r4,r2
 1422ee8:	14287d80 	call	14287d8 <__udivsi3>
 1422eec:	e037883a 	mov	sp,fp
 1422ef0:	dfc00117 	ldw	ra,4(sp)
 1422ef4:	df000017 	ldw	fp,0(sp)
 1422ef8:	dec00204 	addi	sp,sp,8
 1422efc:	f800283a 	ret

01422f00 <sleep_us>:
 1422f00:	defffd04 	addi	sp,sp,-12
 1422f04:	dfc00215 	stw	ra,8(sp)
 1422f08:	df000115 	stw	fp,4(sp)
 1422f0c:	df000104 	addi	fp,sp,4
 1422f10:	e13fff15 	stw	r4,-4(fp)
 1422f14:	e13fff17 	ldw	r4,-4(fp)
 1422f18:	2005883a 	mov	r2,r4
 1422f1c:	0007883a 	mov	r3,zero
 1422f20:	100b883a 	mov	r5,r2
 1422f24:	180d883a 	mov	r6,r3
 1422f28:	d1229f04 	addi	r4,gp,-30084
 1422f2c:	14250500 	call	1425050 <_ZN9TimerCore5sleepEy>
 1422f30:	0001883a 	nop
 1422f34:	e037883a 	mov	sp,fp
 1422f38:	dfc00117 	ldw	ra,4(sp)
 1422f3c:	df000017 	ldw	fp,0(sp)
 1422f40:	dec00204 	addi	sp,sp,8
 1422f44:	f800283a 	ret

01422f48 <sleep_ms>:
 1422f48:	defffb04 	addi	sp,sp,-20
 1422f4c:	dfc00415 	stw	ra,16(sp)
 1422f50:	df000315 	stw	fp,12(sp)
 1422f54:	dc400215 	stw	r17,8(sp)
 1422f58:	dc000115 	stw	r16,4(sp)
 1422f5c:	df000304 	addi	fp,sp,12
 1422f60:	e13ffd15 	stw	r4,-12(fp)
 1422f64:	0140fa04 	movi	r5,1000
 1422f68:	e13ffd17 	ldw	r4,-12(fp)
 1422f6c:	14288940 	call	1428894 <__mulsi3>
 1422f70:	1021883a 	mov	r16,r2
 1422f74:	0023883a 	mov	r17,zero
 1422f78:	800b883a 	mov	r5,r16
 1422f7c:	880d883a 	mov	r6,r17
 1422f80:	d1229f04 	addi	r4,gp,-30084
 1422f84:	14250500 	call	1425050 <_ZN9TimerCore5sleepEy>
 1422f88:	0001883a 	nop
 1422f8c:	e6fffe04 	addi	sp,fp,-8
 1422f90:	dfc00317 	ldw	ra,12(sp)
 1422f94:	df000217 	ldw	fp,8(sp)
 1422f98:	dc400117 	ldw	r17,4(sp)
 1422f9c:	dc000017 	ldw	r16,0(sp)
 1422fa0:	dec00404 	addi	sp,sp,16
 1422fa4:	f800283a 	ret

01422fa8 <debug_on>:
 1422fa8:	defffb04 	addi	sp,sp,-20
 1422fac:	dfc00415 	stw	ra,16(sp)
 1422fb0:	df000315 	stw	fp,12(sp)
 1422fb4:	df000304 	addi	fp,sp,12
 1422fb8:	e13ffd15 	stw	r4,-12(fp)
 1422fbc:	e17ffe15 	stw	r5,-8(fp)
 1422fc0:	e1bfff15 	stw	r6,-4(fp)
 1422fc4:	014050f4 	movhi	r5,323
 1422fc8:	29771404 	addi	r5,r5,-9136
 1422fcc:	d122a104 	addi	r4,gp,-30076
 1422fd0:	142530c0 	call	142530c <_ZN8UartCore4dispEPKc>
 1422fd4:	e17ffd17 	ldw	r5,-12(fp)
 1422fd8:	d122a104 	addi	r4,gp,-30076
 1422fdc:	142530c0 	call	142530c <_ZN8UartCore4dispEPKc>
 1422fe0:	e17ffe17 	ldw	r5,-8(fp)
 1422fe4:	d122a104 	addi	r4,gp,-30076
 1422fe8:	14255500 	call	1425550 <_ZN8UartCore4dispEi>
 1422fec:	014050f4 	movhi	r5,323
 1422ff0:	29771604 	addi	r5,r5,-9128
 1422ff4:	d122a104 	addi	r4,gp,-30076
 1422ff8:	142530c0 	call	142530c <_ZN8UartCore4dispEPKc>
 1422ffc:	01800404 	movi	r6,16
 1423000:	e17ffe17 	ldw	r5,-8(fp)
 1423004:	d122a104 	addi	r4,gp,-30076
 1423008:	14255940 	call	1425594 <_ZN8UartCore4dispEii>
 142300c:	014050f4 	movhi	r5,323
 1423010:	29771704 	addi	r5,r5,-9124
 1423014:	d122a104 	addi	r4,gp,-30076
 1423018:	142530c0 	call	142530c <_ZN8UartCore4dispEPKc>
 142301c:	e17fff17 	ldw	r5,-4(fp)
 1423020:	d122a104 	addi	r4,gp,-30076
 1423024:	14255500 	call	1425550 <_ZN8UartCore4dispEi>
 1423028:	014050f4 	movhi	r5,323
 142302c:	29771604 	addi	r5,r5,-9128
 1423030:	d122a104 	addi	r4,gp,-30076
 1423034:	142530c0 	call	142530c <_ZN8UartCore4dispEPKc>
 1423038:	01800404 	movi	r6,16
 142303c:	e17fff17 	ldw	r5,-4(fp)
 1423040:	d122a104 	addi	r4,gp,-30076
 1423044:	14255940 	call	1425594 <_ZN8UartCore4dispEii>
 1423048:	014050f4 	movhi	r5,323
 142304c:	29771904 	addi	r5,r5,-9116
 1423050:	d122a104 	addi	r4,gp,-30076
 1423054:	142530c0 	call	142530c <_ZN8UartCore4dispEPKc>
 1423058:	0001883a 	nop
 142305c:	e037883a 	mov	sp,fp
 1423060:	dfc00117 	ldw	ra,4(sp)
 1423064:	df000017 	ldw	fp,0(sp)
 1423068:	dec00204 	addi	sp,sp,8
 142306c:	f800283a 	ret

01423070 <debug_off>:
 1423070:	deffff04 	addi	sp,sp,-4
 1423074:	df000015 	stw	fp,0(sp)
 1423078:	d839883a 	mov	fp,sp
 142307c:	0001883a 	nop
 1423080:	e037883a 	mov	sp,fp
 1423084:	df000017 	ldw	fp,0(sp)
 1423088:	dec00104 	addi	sp,sp,4
 142308c:	f800283a 	ret

01423090 <map>:
 1423090:	defffa04 	addi	sp,sp,-24
 1423094:	dfc00515 	stw	ra,20(sp)
 1423098:	df000415 	stw	fp,16(sp)
 142309c:	df000404 	addi	fp,sp,16
 14230a0:	e13ffc15 	stw	r4,-16(fp)
 14230a4:	e17ffd15 	stw	r5,-12(fp)
 14230a8:	e1bffe15 	stw	r6,-8(fp)
 14230ac:	e1ffff15 	stw	r7,-4(fp)
 14230b0:	e0fffc17 	ldw	r3,-16(fp)
 14230b4:	e0bffd17 	ldw	r2,-12(fp)
 14230b8:	1889c83a 	sub	r4,r3,r2
 14230bc:	e0c00217 	ldw	r3,8(fp)
 14230c0:	e0bfff17 	ldw	r2,-4(fp)
 14230c4:	1885c83a 	sub	r2,r3,r2
 14230c8:	100b883a 	mov	r5,r2
 14230cc:	14288940 	call	1428894 <__mulsi3>
 14230d0:	1009883a 	mov	r4,r2
 14230d4:	e0fffe17 	ldw	r3,-8(fp)
 14230d8:	e0bffd17 	ldw	r2,-12(fp)
 14230dc:	1885c83a 	sub	r2,r3,r2
 14230e0:	100b883a 	mov	r5,r2
 14230e4:	14286e00 	call	14286e0 <__divsi3>
 14230e8:	1007883a 	mov	r3,r2
 14230ec:	e0bfff17 	ldw	r2,-4(fp)
 14230f0:	1885883a 	add	r2,r3,r2
 14230f4:	e037883a 	mov	sp,fp
 14230f8:	dfc00117 	ldw	ra,4(sp)
 14230fc:	df000017 	ldw	fp,0(sp)
 1423100:	dec00204 	addi	sp,sp,8
 1423104:	f800283a 	ret

01423108 <_Z41__static_initialization_and_destruction_0ii>:
 1423108:	defffc04 	addi	sp,sp,-16
 142310c:	dfc00315 	stw	ra,12(sp)
 1423110:	df000215 	stw	fp,8(sp)
 1423114:	df000204 	addi	fp,sp,8
 1423118:	e13ffe15 	stw	r4,-8(fp)
 142311c:	e17fff15 	stw	r5,-4(fp)
 1423120:	e0bffe17 	ldw	r2,-8(fp)
 1423124:	10800058 	cmpnei	r2,r2,1
 1423128:	10000a1e 	bne	r2,zero,1423154 <_Z41__static_initialization_and_destruction_0ii+0x4c>
 142312c:	e0ffff17 	ldw	r3,-4(fp)
 1423130:	00bfffd4 	movui	r2,65535
 1423134:	1880071e 	bne	r3,r2,1423154 <_Z41__static_initialization_and_destruction_0ii+0x4c>
 1423138:	01700034 	movhi	r5,49152
 142313c:	d1229f04 	addi	r4,gp,-30084
 1423140:	1424de40 	call	1424de4 <_ZN9TimerCoreC1Em>
 1423144:	01700034 	movhi	r5,49152
 1423148:	29402004 	addi	r5,r5,128
 142314c:	d122a104 	addi	r4,gp,-30076
 1423150:	14250e80 	call	14250e8 <_ZN8UartCoreC1Em>
 1423154:	e0bffe17 	ldw	r2,-8(fp)
 1423158:	1000071e 	bne	r2,zero,1423178 <_Z41__static_initialization_and_destruction_0ii+0x70>
 142315c:	e0ffff17 	ldw	r3,-4(fp)
 1423160:	00bfffd4 	movui	r2,65535
 1423164:	1880041e 	bne	r3,r2,1423178 <_Z41__static_initialization_and_destruction_0ii+0x70>
 1423168:	d122a104 	addi	r4,gp,-30076
 142316c:	14251300 	call	1425130 <_ZN8UartCoreD1Ev>
 1423170:	d1229f04 	addi	r4,gp,-30084
 1423174:	1424e500 	call	1424e50 <_ZN9TimerCoreD1Ev>
 1423178:	0001883a 	nop
 142317c:	e037883a 	mov	sp,fp
 1423180:	dfc00117 	ldw	ra,4(sp)
 1423184:	df000017 	ldw	fp,0(sp)
 1423188:	dec00204 	addi	sp,sp,8
 142318c:	f800283a 	ret

01423190 <_GLOBAL__sub_I__sys_timer>:
 1423190:	defffe04 	addi	sp,sp,-8
 1423194:	dfc00115 	stw	ra,4(sp)
 1423198:	df000015 	stw	fp,0(sp)
 142319c:	d839883a 	mov	fp,sp
 14231a0:	017fffd4 	movui	r5,65535
 14231a4:	01000044 	movi	r4,1
 14231a8:	14231080 	call	1423108 <_Z41__static_initialization_and_destruction_0ii>
 14231ac:	e037883a 	mov	sp,fp
 14231b0:	dfc00117 	ldw	ra,4(sp)
 14231b4:	df000017 	ldw	fp,0(sp)
 14231b8:	dec00204 	addi	sp,sp,8
 14231bc:	f800283a 	ret

014231c0 <_GLOBAL__sub_D__sys_timer>:
 14231c0:	defffe04 	addi	sp,sp,-8
 14231c4:	dfc00115 	stw	ra,4(sp)
 14231c8:	df000015 	stw	fp,0(sp)
 14231cc:	d839883a 	mov	fp,sp
 14231d0:	017fffd4 	movui	r5,65535
 14231d4:	0009883a 	mov	r4,zero
 14231d8:	14231080 	call	1423108 <_Z41__static_initialization_and_destruction_0ii>
 14231dc:	e037883a 	mov	sp,fp
 14231e0:	dfc00117 	ldw	ra,4(sp)
 14231e4:	df000017 	ldw	fp,0(sp)
 14231e8:	dec00204 	addi	sp,sp,8
 14231ec:	f800283a 	ret

014231f0 <_ZN8DdfsCoreC1Em>:
 14231f0:	defffc04 	addi	sp,sp,-16
 14231f4:	dfc00315 	stw	ra,12(sp)
 14231f8:	df000215 	stw	fp,8(sp)
 14231fc:	df000204 	addi	fp,sp,8
 1423200:	e13ffe15 	stw	r4,-8(fp)
 1423204:	e17fff15 	stw	r5,-4(fp)
 1423208:	e0bffe17 	ldw	r2,-8(fp)
 142320c:	e0ffff17 	ldw	r3,-4(fp)
 1423210:	10c00015 	stw	r3,0(r2)
 1423214:	e13ffe17 	ldw	r4,-8(fp)
 1423218:	14232580 	call	1423258 <_ZN8DdfsCore4initEv>
 142321c:	0001883a 	nop
 1423220:	e037883a 	mov	sp,fp
 1423224:	dfc00117 	ldw	ra,4(sp)
 1423228:	df000017 	ldw	fp,0(sp)
 142322c:	dec00204 	addi	sp,sp,8
 1423230:	f800283a 	ret

01423234 <_ZN8DdfsCoreD1Ev>:
 1423234:	defffe04 	addi	sp,sp,-8
 1423238:	df000115 	stw	fp,4(sp)
 142323c:	df000104 	addi	fp,sp,4
 1423240:	e13fff15 	stw	r4,-4(fp)
 1423244:	0001883a 	nop
 1423248:	e037883a 	mov	sp,fp
 142324c:	df000017 	ldw	fp,0(sp)
 1423250:	dec00104 	addi	sp,sp,4
 1423254:	f800283a 	ret

01423258 <_ZN8DdfsCore4initEv>:
 1423258:	defffd04 	addi	sp,sp,-12
 142325c:	dfc00215 	stw	ra,8(sp)
 1423260:	df000115 	stw	fp,4(sp)
 1423264:	df000104 	addi	fp,sp,4
 1423268:	e13fff15 	stw	r4,-4(fp)
 142326c:	000b883a 	mov	r5,zero
 1423270:	e13fff17 	ldw	r4,-4(fp)
 1423274:	14235840 	call	1423584 <_ZN8DdfsCore14set_env_sourceEi>
 1423278:	000b883a 	mov	r5,zero
 142327c:	e13fff17 	ldw	r4,-4(fp)
 1423280:	14234f00 	call	14234f0 <_ZN8DdfsCore14set_fow_sourceEi>
 1423284:	000b883a 	mov	r5,zero
 1423288:	e13fff17 	ldw	r4,-4(fp)
 142328c:	14236180 	call	1423618 <_ZN8DdfsCore14set_pha_sourceEi>
 1423290:	01404184 	movi	r5,262
 1423294:	e13fff17 	ldw	r4,-4(fp)
 1423298:	14232d80 	call	14232d8 <_ZN8DdfsCore16set_carrier_freqEi>
 142329c:	000b883a 	mov	r5,zero
 14232a0:	e13fff17 	ldw	r4,-4(fp)
 14232a4:	14233740 	call	1423374 <_ZN8DdfsCore15set_offset_freqEi>
 14232a8:	000b883a 	mov	r5,zero
 14232ac:	e13fff17 	ldw	r4,-4(fp)
 14232b0:	14234140 	call	1423414 <_ZN8DdfsCore16set_phase_degreeEi>
 14232b4:	014fe034 	movhi	r5,16256
 14232b8:	e13fff17 	ldw	r4,-4(fp)
 14232bc:	142347c0 	call	142347c <_ZN8DdfsCore7set_envEf>
 14232c0:	0001883a 	nop
 14232c4:	e037883a 	mov	sp,fp
 14232c8:	dfc00117 	ldw	ra,4(sp)
 14232cc:	df000017 	ldw	fp,0(sp)
 14232d0:	dec00204 	addi	sp,sp,8
 14232d4:	f800283a 	ret

014232d8 <_ZN8DdfsCore16set_carrier_freqEi>:
 14232d8:	defff904 	addi	sp,sp,-28
 14232dc:	dfc00615 	stw	ra,24(sp)
 14232e0:	df000515 	stw	fp,20(sp)
 14232e4:	df000504 	addi	fp,sp,20
 14232e8:	e13ffe15 	stw	r4,-8(fp)
 14232ec:	e17fff15 	stw	r5,-4(fp)
 14232f0:	00900034 	movhi	r2,16384
 14232f4:	e0bffb15 	stw	r2,-20(fp)
 14232f8:	e13ffb17 	ldw	r4,-20(fp)
 14232fc:	14298600 	call	1429860 <__floatunsisf>
 1423300:	1007883a 	mov	r3,r2
 1423304:	01530ff4 	movhi	r5,19519
 1423308:	296f0804 	addi	r5,r5,-17376
 142330c:	1809883a 	mov	r4,r3
 1423310:	14288bc0 	call	14288bc <__divsf3>
 1423314:	1007883a 	mov	r3,r2
 1423318:	e0fffc15 	stw	r3,-16(fp)
 142331c:	e13fff17 	ldw	r4,-4(fp)
 1423320:	142973c0 	call	142973c <__floatsisf>
 1423324:	1007883a 	mov	r3,r2
 1423328:	e17ffc17 	ldw	r5,-16(fp)
 142332c:	1809883a 	mov	r4,r3
 1423330:	1428db80 	call	1428db8 <__mulsf3>
 1423334:	1007883a 	mov	r3,r2
 1423338:	1805883a 	mov	r2,r3
 142333c:	1009883a 	mov	r4,r2
 1423340:	1427a4c0 	call	1427a4c <__fixunssfsi>
 1423344:	e0bffd15 	stw	r2,-12(fp)
 1423348:	e0bffe17 	ldw	r2,-8(fp)
 142334c:	10800017 	ldw	r2,0(r2)
 1423350:	1007883a 	mov	r3,r2
 1423354:	e0bffd17 	ldw	r2,-12(fp)
 1423358:	18800015 	stw	r2,0(r3)
 142335c:	0001883a 	nop
 1423360:	e037883a 	mov	sp,fp
 1423364:	dfc00117 	ldw	ra,4(sp)
 1423368:	df000017 	ldw	fp,0(sp)
 142336c:	dec00204 	addi	sp,sp,8
 1423370:	f800283a 	ret

01423374 <_ZN8DdfsCore15set_offset_freqEi>:
 1423374:	defff904 	addi	sp,sp,-28
 1423378:	dfc00615 	stw	ra,24(sp)
 142337c:	df000515 	stw	fp,20(sp)
 1423380:	df000504 	addi	fp,sp,20
 1423384:	e13ffe15 	stw	r4,-8(fp)
 1423388:	e17fff15 	stw	r5,-4(fp)
 142338c:	00900034 	movhi	r2,16384
 1423390:	e0bffb15 	stw	r2,-20(fp)
 1423394:	e13ffb17 	ldw	r4,-20(fp)
 1423398:	14298600 	call	1429860 <__floatunsisf>
 142339c:	1007883a 	mov	r3,r2
 14233a0:	01530ff4 	movhi	r5,19519
 14233a4:	296f0804 	addi	r5,r5,-17376
 14233a8:	1809883a 	mov	r4,r3
 14233ac:	14288bc0 	call	14288bc <__divsf3>
 14233b0:	1007883a 	mov	r3,r2
 14233b4:	e0fffc15 	stw	r3,-16(fp)
 14233b8:	e13fff17 	ldw	r4,-4(fp)
 14233bc:	142973c0 	call	142973c <__floatsisf>
 14233c0:	1007883a 	mov	r3,r2
 14233c4:	e17ffc17 	ldw	r5,-16(fp)
 14233c8:	1809883a 	mov	r4,r3
 14233cc:	1428db80 	call	1428db8 <__mulsf3>
 14233d0:	1007883a 	mov	r3,r2
 14233d4:	1805883a 	mov	r2,r3
 14233d8:	1009883a 	mov	r4,r2
 14233dc:	1427a4c0 	call	1427a4c <__fixunssfsi>
 14233e0:	e0bffd15 	stw	r2,-12(fp)
 14233e4:	e0bffe17 	ldw	r2,-8(fp)
 14233e8:	10800017 	ldw	r2,0(r2)
 14233ec:	10800104 	addi	r2,r2,4
 14233f0:	1007883a 	mov	r3,r2
 14233f4:	e0bffd17 	ldw	r2,-12(fp)
 14233f8:	18800015 	stw	r2,0(r3)
 14233fc:	0001883a 	nop
 1423400:	e037883a 	mov	sp,fp
 1423404:	dfc00117 	ldw	ra,4(sp)
 1423408:	df000017 	ldw	fp,0(sp)
 142340c:	dec00204 	addi	sp,sp,8
 1423410:	f800283a 	ret

01423414 <_ZN8DdfsCore16set_phase_degreeEi>:
 1423414:	defffb04 	addi	sp,sp,-20
 1423418:	dfc00415 	stw	ra,16(sp)
 142341c:	df000315 	stw	fp,12(sp)
 1423420:	df000304 	addi	fp,sp,12
 1423424:	e13ffe15 	stw	r4,-8(fp)
 1423428:	e17fff15 	stw	r5,-4(fp)
 142342c:	0140bef4 	movhi	r5,763
 1423430:	297c2004 	addi	r5,r5,-3968
 1423434:	e13fff17 	ldw	r4,-4(fp)
 1423438:	14288940 	call	1428894 <__mulsi3>
 142343c:	01405a04 	movi	r5,360
 1423440:	1009883a 	mov	r4,r2
 1423444:	14286e00 	call	14286e0 <__divsi3>
 1423448:	e0bffd15 	stw	r2,-12(fp)
 142344c:	e0bffe17 	ldw	r2,-8(fp)
 1423450:	10800017 	ldw	r2,0(r2)
 1423454:	10800204 	addi	r2,r2,8
 1423458:	1007883a 	mov	r3,r2
 142345c:	e0bffd17 	ldw	r2,-12(fp)
 1423460:	18800015 	stw	r2,0(r3)
 1423464:	0001883a 	nop
 1423468:	e037883a 	mov	sp,fp
 142346c:	dfc00117 	ldw	ra,4(sp)
 1423470:	df000017 	ldw	fp,0(sp)
 1423474:	dec00204 	addi	sp,sp,8
 1423478:	f800283a 	ret

0142347c <_ZN8DdfsCore7set_envEf>:
 142347c:	defffa04 	addi	sp,sp,-24
 1423480:	dfc00515 	stw	ra,20(sp)
 1423484:	df000415 	stw	fp,16(sp)
 1423488:	df000404 	addi	fp,sp,16
 142348c:	e13ffe15 	stw	r4,-8(fp)
 1423490:	e17fff15 	stw	r5,-4(fp)
 1423494:	0091a034 	movhi	r2,18048
 1423498:	e0bffc15 	stw	r2,-16(fp)
 142349c:	e17ffc17 	ldw	r5,-16(fp)
 14234a0:	e13fff17 	ldw	r4,-4(fp)
 14234a4:	1428db80 	call	1428db8 <__mulsf3>
 14234a8:	1007883a 	mov	r3,r2
 14234ac:	1805883a 	mov	r2,r3
 14234b0:	1009883a 	mov	r4,r2
 14234b4:	14296cc0 	call	14296cc <__fixsfsi>
 14234b8:	e0bffd15 	stw	r2,-12(fp)
 14234bc:	e0bffe17 	ldw	r2,-8(fp)
 14234c0:	10800017 	ldw	r2,0(r2)
 14234c4:	10800304 	addi	r2,r2,12
 14234c8:	1007883a 	mov	r3,r2
 14234cc:	e0bffd17 	ldw	r2,-12(fp)
 14234d0:	10bfffcc 	andi	r2,r2,65535
 14234d4:	18800015 	stw	r2,0(r3)
 14234d8:	0001883a 	nop
 14234dc:	e037883a 	mov	sp,fp
 14234e0:	dfc00117 	ldw	ra,4(sp)
 14234e4:	df000017 	ldw	fp,0(sp)
 14234e8:	dec00204 	addi	sp,sp,8
 14234ec:	f800283a 	ret

014234f0 <_ZN8DdfsCore14set_fow_sourceEi>:
 14234f0:	defffc04 	addi	sp,sp,-16
 14234f4:	df000315 	stw	fp,12(sp)
 14234f8:	df000304 	addi	fp,sp,12
 14234fc:	e13ffe15 	stw	r4,-8(fp)
 1423500:	e17fff15 	stw	r5,-4(fp)
 1423504:	e03ffd15 	stw	zero,-12(fp)
 1423508:	e0bfff17 	ldw	r2,-4(fp)
 142350c:	10800058 	cmpnei	r2,r2,1
 1423510:	1000021e 	bne	r2,zero,142351c <_ZN8DdfsCore14set_fow_sourceEi+0x2c>
 1423514:	00800044 	movi	r2,1
 1423518:	e0bffd15 	stw	r2,-12(fp)
 142351c:	e0bffd17 	ldw	r2,-12(fp)
 1423520:	10000626 	beq	r2,zero,142353c <_ZN8DdfsCore14set_fow_sourceEi+0x4c>
 1423524:	e0bffe17 	ldw	r2,-8(fp)
 1423528:	10800117 	ldw	r2,4(r2)
 142352c:	10c00094 	ori	r3,r2,2
 1423530:	e0bffe17 	ldw	r2,-8(fp)
 1423534:	10c00115 	stw	r3,4(r2)
 1423538:	00000606 	br	1423554 <_ZN8DdfsCore14set_fow_sourceEi+0x64>
 142353c:	e0bffe17 	ldw	r2,-8(fp)
 1423540:	10c00117 	ldw	r3,4(r2)
 1423544:	00bfff44 	movi	r2,-3
 1423548:	1886703a 	and	r3,r3,r2
 142354c:	e0bffe17 	ldw	r2,-8(fp)
 1423550:	10c00115 	stw	r3,4(r2)
 1423554:	e0bffe17 	ldw	r2,-8(fp)
 1423558:	10800017 	ldw	r2,0(r2)
 142355c:	10800404 	addi	r2,r2,16
 1423560:	1007883a 	mov	r3,r2
 1423564:	e0bffe17 	ldw	r2,-8(fp)
 1423568:	10800117 	ldw	r2,4(r2)
 142356c:	18800015 	stw	r2,0(r3)
 1423570:	0001883a 	nop
 1423574:	e037883a 	mov	sp,fp
 1423578:	df000017 	ldw	fp,0(sp)
 142357c:	dec00104 	addi	sp,sp,4
 1423580:	f800283a 	ret

01423584 <_ZN8DdfsCore14set_env_sourceEi>:
 1423584:	defffc04 	addi	sp,sp,-16
 1423588:	df000315 	stw	fp,12(sp)
 142358c:	df000304 	addi	fp,sp,12
 1423590:	e13ffe15 	stw	r4,-8(fp)
 1423594:	e17fff15 	stw	r5,-4(fp)
 1423598:	e03ffd15 	stw	zero,-12(fp)
 142359c:	e0bfff17 	ldw	r2,-4(fp)
 14235a0:	10800058 	cmpnei	r2,r2,1
 14235a4:	1000021e 	bne	r2,zero,14235b0 <_ZN8DdfsCore14set_env_sourceEi+0x2c>
 14235a8:	00800044 	movi	r2,1
 14235ac:	e0bffd15 	stw	r2,-12(fp)
 14235b0:	e0bffd17 	ldw	r2,-12(fp)
 14235b4:	10000626 	beq	r2,zero,14235d0 <_ZN8DdfsCore14set_env_sourceEi+0x4c>
 14235b8:	e0bffe17 	ldw	r2,-8(fp)
 14235bc:	10800117 	ldw	r2,4(r2)
 14235c0:	10c00054 	ori	r3,r2,1
 14235c4:	e0bffe17 	ldw	r2,-8(fp)
 14235c8:	10c00115 	stw	r3,4(r2)
 14235cc:	00000606 	br	14235e8 <_ZN8DdfsCore14set_env_sourceEi+0x64>
 14235d0:	e0bffe17 	ldw	r2,-8(fp)
 14235d4:	10c00117 	ldw	r3,4(r2)
 14235d8:	00bfff84 	movi	r2,-2
 14235dc:	1886703a 	and	r3,r3,r2
 14235e0:	e0bffe17 	ldw	r2,-8(fp)
 14235e4:	10c00115 	stw	r3,4(r2)
 14235e8:	e0bffe17 	ldw	r2,-8(fp)
 14235ec:	10800017 	ldw	r2,0(r2)
 14235f0:	10800404 	addi	r2,r2,16
 14235f4:	1007883a 	mov	r3,r2
 14235f8:	e0bffe17 	ldw	r2,-8(fp)
 14235fc:	10800117 	ldw	r2,4(r2)
 1423600:	18800015 	stw	r2,0(r3)
 1423604:	0001883a 	nop
 1423608:	e037883a 	mov	sp,fp
 142360c:	df000017 	ldw	fp,0(sp)
 1423610:	dec00104 	addi	sp,sp,4
 1423614:	f800283a 	ret

01423618 <_ZN8DdfsCore14set_pha_sourceEi>:
 1423618:	defffc04 	addi	sp,sp,-16
 142361c:	df000315 	stw	fp,12(sp)
 1423620:	df000304 	addi	fp,sp,12
 1423624:	e13ffe15 	stw	r4,-8(fp)
 1423628:	e17fff15 	stw	r5,-4(fp)
 142362c:	e03ffd15 	stw	zero,-12(fp)
 1423630:	e0bfff17 	ldw	r2,-4(fp)
 1423634:	10800058 	cmpnei	r2,r2,1
 1423638:	1000021e 	bne	r2,zero,1423644 <_ZN8DdfsCore14set_pha_sourceEi+0x2c>
 142363c:	00800044 	movi	r2,1
 1423640:	e0bffd15 	stw	r2,-12(fp)
 1423644:	e0bffd17 	ldw	r2,-12(fp)
 1423648:	10000626 	beq	r2,zero,1423664 <_ZN8DdfsCore14set_pha_sourceEi+0x4c>
 142364c:	e0bffe17 	ldw	r2,-8(fp)
 1423650:	10800117 	ldw	r2,4(r2)
 1423654:	10c00114 	ori	r3,r2,4
 1423658:	e0bffe17 	ldw	r2,-8(fp)
 142365c:	10c00115 	stw	r3,4(r2)
 1423660:	00000606 	br	142367c <_ZN8DdfsCore14set_pha_sourceEi+0x64>
 1423664:	e0bffe17 	ldw	r2,-8(fp)
 1423668:	10c00117 	ldw	r3,4(r2)
 142366c:	00bffec4 	movi	r2,-5
 1423670:	1886703a 	and	r3,r3,r2
 1423674:	e0bffe17 	ldw	r2,-8(fp)
 1423678:	10c00115 	stw	r3,4(r2)
 142367c:	e0bffe17 	ldw	r2,-8(fp)
 1423680:	10800017 	ldw	r2,0(r2)
 1423684:	10800404 	addi	r2,r2,16
 1423688:	1007883a 	mov	r3,r2
 142368c:	e0bffe17 	ldw	r2,-8(fp)
 1423690:	10800117 	ldw	r2,4(r2)
 1423694:	18800015 	stw	r2,0(r3)
 1423698:	0001883a 	nop
 142369c:	e037883a 	mov	sp,fp
 14236a0:	df000017 	ldw	fp,0(sp)
 14236a4:	dec00104 	addi	sp,sp,4
 14236a8:	f800283a 	ret

014236ac <_ZN8DdfsCore8read_pcmEv>:
 14236ac:	defffd04 	addi	sp,sp,-12
 14236b0:	df000215 	stw	fp,8(sp)
 14236b4:	df000204 	addi	fp,sp,8
 14236b8:	e13fff15 	stw	r4,-4(fp)
 14236bc:	e0bfff17 	ldw	r2,-4(fp)
 14236c0:	10800017 	ldw	r2,0(r2)
 14236c4:	10800017 	ldw	r2,0(r2)
 14236c8:	e0bffe15 	stw	r2,-8(fp)
 14236cc:	e0bffe17 	ldw	r2,-8(fp)
 14236d0:	e037883a 	mov	sp,fp
 14236d4:	df000017 	ldw	fp,0(sp)
 14236d8:	dec00104 	addi	sp,sp,4
 14236dc:	f800283a 	ret

014236e0 <_Z41__static_initialization_and_destruction_0ii>:
 14236e0:	defffc04 	addi	sp,sp,-16
 14236e4:	dfc00315 	stw	ra,12(sp)
 14236e8:	df000215 	stw	fp,8(sp)
 14236ec:	df000204 	addi	fp,sp,8
 14236f0:	e13ffe15 	stw	r4,-8(fp)
 14236f4:	e17fff15 	stw	r5,-4(fp)
 14236f8:	e0bffe17 	ldw	r2,-8(fp)
 14236fc:	10800058 	cmpnei	r2,r2,1
 1423700:	1000321e 	bne	r2,zero,14237cc <_Z41__static_initialization_and_destruction_0ii+0xec>
 1423704:	e0ffff17 	ldw	r3,-4(fp)
 1423708:	00bfffd4 	movui	r2,65535
 142370c:	18802f1e 	bne	r3,r2,14237cc <_Z41__static_initialization_and_destruction_0ii+0xec>
 1423710:	01700034 	movhi	r5,49152
 1423714:	29404004 	addi	r5,r5,256
 1423718:	d122a304 	addi	r4,gp,-30068
 142371c:	1423abc0 	call	1423abc <_ZN7GpoCoreC1Em>
 1423720:	01700034 	movhi	r5,49152
 1423724:	29406004 	addi	r5,r5,384
 1423728:	d122a504 	addi	r4,gp,-30060
 142372c:	14238b40 	call	14238b4 <_ZN7GpiCoreC1Em>
 1423730:	01700034 	movhi	r5,49152
 1423734:	2940a004 	addi	r5,r5,640
 1423738:	d122a604 	addi	r4,gp,-30056
 142373c:	1423db40 	call	1423db4 <_ZN8MadcCoreC1Em>
 1423740:	01700034 	movhi	r5,49152
 1423744:	2940c004 	addi	r5,r5,768
 1423748:	d122a704 	addi	r4,gp,-30052
 142374c:	1423bfc0 	call	1423bfc <_ZN7PwmCoreC1Em>
 1423750:	01700034 	movhi	r5,49152
 1423754:	2940e004 	addi	r5,r5,896
 1423758:	d122a904 	addi	r4,gp,-30044
 142375c:	142397c0 	call	142397c <_ZN12DebounceCoreC1Em>
 1423760:	01800204 	movi	r6,8
 1423764:	01700034 	movhi	r5,49152
 1423768:	29410004 	addi	r5,r5,1024
 142376c:	010050f4 	movhi	r4,323
 1423770:	213d2f04 	addi	r4,r4,-2884
 1423774:	14247940 	call	1424794 <_ZN8SsegCoreC1Emi>
 1423778:	01700034 	movhi	r5,49152
 142377c:	29418004 	addi	r5,r5,1536
 1423780:	d122aa04 	addi	r4,gp,-30040
 1423784:	14231f00 	call	14231f0 <_ZN8DdfsCoreC1Em>
 1423788:	d1a2aa04 	addi	r6,gp,-30040
 142378c:	01700034 	movhi	r5,49152
 1423790:	2941a004 	addi	r5,r5,1664
 1423794:	010050f4 	movhi	r4,323
 1423798:	213d3304 	addi	r4,r4,-2868
 142379c:	14222680 	call	1422268 <_ZN8AdsrCoreC1EmP8DdfsCore>
 14237a0:	01700034 	movhi	r5,49152
 14237a4:	29420004 	addi	r5,r5,2048
 14237a8:	d122ac04 	addi	r4,gp,-30032
 14237ac:	14250e80 	call	14250e8 <_ZN8UartCoreC1Em>
 14237b0:	01c00044 	movi	r7,1
 14237b4:	01804004 	movi	r6,256
 14237b8:	01700034 	movhi	r5,49152
 14237bc:	2941c004 	addi	r5,r5,1792
 14237c0:	010050f4 	movhi	r4,323
 14237c4:	213d3a04 	addi	r4,r4,-2840
 14237c8:	142580c0 	call	142580c <_ZN10Ws2812CoreC1Emii>
 14237cc:	e0bffe17 	ldw	r2,-8(fp)
 14237d0:	10001a1e 	bne	r2,zero,142383c <_Z41__static_initialization_and_destruction_0ii+0x15c>
 14237d4:	e0ffff17 	ldw	r3,-4(fp)
 14237d8:	00bfffd4 	movui	r2,65535
 14237dc:	1880171e 	bne	r3,r2,142383c <_Z41__static_initialization_and_destruction_0ii+0x15c>
 14237e0:	010050f4 	movhi	r4,323
 14237e4:	213d3a04 	addi	r4,r4,-2840
 14237e8:	14258780 	call	1425878 <_ZN10Ws2812CoreD1Ev>
 14237ec:	d122ac04 	addi	r4,gp,-30032
 14237f0:	14251300 	call	1425130 <_ZN8UartCoreD1Ev>
 14237f4:	010050f4 	movhi	r4,323
 14237f8:	213d3304 	addi	r4,r4,-2868
 14237fc:	14222c80 	call	14222c8 <_ZN8AdsrCoreD1Ev>
 1423800:	d122aa04 	addi	r4,gp,-30040
 1423804:	14232340 	call	1423234 <_ZN8DdfsCoreD1Ev>
 1423808:	010050f4 	movhi	r4,323
 142380c:	213d2f04 	addi	r4,r4,-2884
 1423810:	14248480 	call	1424848 <_ZN8SsegCoreD1Ev>
 1423814:	d122a904 	addi	r4,gp,-30044
 1423818:	14239b00 	call	14239b0 <_ZN12DebounceCoreD1Ev>
 142381c:	d122a704 	addi	r4,gp,-30052
 1423820:	1423c440 	call	1423c44 <_ZN7PwmCoreD1Ev>
 1423824:	d122a604 	addi	r4,gp,-30056
 1423828:	1423de80 	call	1423de8 <_ZN8MadcCoreD1Ev>
 142382c:	d122a504 	addi	r4,gp,-30060
 1423830:	14238e80 	call	14238e8 <_ZN7GpiCoreD1Ev>
 1423834:	d122a304 	addi	r4,gp,-30068
 1423838:	1423af80 	call	1423af8 <_ZN7GpoCoreD1Ev>
 142383c:	0001883a 	nop
 1423840:	e037883a 	mov	sp,fp
 1423844:	dfc00117 	ldw	ra,4(sp)
 1423848:	df000017 	ldw	fp,0(sp)
 142384c:	dec00204 	addi	sp,sp,8
 1423850:	f800283a 	ret

01423854 <_GLOBAL__sub_I_led>:
 1423854:	defffe04 	addi	sp,sp,-8
 1423858:	dfc00115 	stw	ra,4(sp)
 142385c:	df000015 	stw	fp,0(sp)
 1423860:	d839883a 	mov	fp,sp
 1423864:	017fffd4 	movui	r5,65535
 1423868:	01000044 	movi	r4,1
 142386c:	14236e00 	call	14236e0 <_Z41__static_initialization_and_destruction_0ii>
 1423870:	e037883a 	mov	sp,fp
 1423874:	dfc00117 	ldw	ra,4(sp)
 1423878:	df000017 	ldw	fp,0(sp)
 142387c:	dec00204 	addi	sp,sp,8
 1423880:	f800283a 	ret

01423884 <_GLOBAL__sub_D_led>:
 1423884:	defffe04 	addi	sp,sp,-8
 1423888:	dfc00115 	stw	ra,4(sp)
 142388c:	df000015 	stw	fp,0(sp)
 1423890:	d839883a 	mov	fp,sp
 1423894:	017fffd4 	movui	r5,65535
 1423898:	0009883a 	mov	r4,zero
 142389c:	14236e00 	call	14236e0 <_Z41__static_initialization_and_destruction_0ii>
 14238a0:	e037883a 	mov	sp,fp
 14238a4:	dfc00117 	ldw	ra,4(sp)
 14238a8:	df000017 	ldw	fp,0(sp)
 14238ac:	dec00204 	addi	sp,sp,8
 14238b0:	f800283a 	ret

014238b4 <_ZN7GpiCoreC1Em>:
 14238b4:	defffd04 	addi	sp,sp,-12
 14238b8:	df000215 	stw	fp,8(sp)
 14238bc:	df000204 	addi	fp,sp,8
 14238c0:	e13ffe15 	stw	r4,-8(fp)
 14238c4:	e17fff15 	stw	r5,-4(fp)
 14238c8:	e0bffe17 	ldw	r2,-8(fp)
 14238cc:	e0ffff17 	ldw	r3,-4(fp)
 14238d0:	10c00015 	stw	r3,0(r2)
 14238d4:	0001883a 	nop
 14238d8:	e037883a 	mov	sp,fp
 14238dc:	df000017 	ldw	fp,0(sp)
 14238e0:	dec00104 	addi	sp,sp,4
 14238e4:	f800283a 	ret

014238e8 <_ZN7GpiCoreD1Ev>:
 14238e8:	defffe04 	addi	sp,sp,-8
 14238ec:	df000115 	stw	fp,4(sp)
 14238f0:	df000104 	addi	fp,sp,4
 14238f4:	e13fff15 	stw	r4,-4(fp)
 14238f8:	0001883a 	nop
 14238fc:	e037883a 	mov	sp,fp
 1423900:	df000017 	ldw	fp,0(sp)
 1423904:	dec00104 	addi	sp,sp,4
 1423908:	f800283a 	ret

0142390c <_ZN7GpiCore4readEv>:
 142390c:	defffe04 	addi	sp,sp,-8
 1423910:	df000115 	stw	fp,4(sp)
 1423914:	df000104 	addi	fp,sp,4
 1423918:	e13fff15 	stw	r4,-4(fp)
 142391c:	e0bfff17 	ldw	r2,-4(fp)
 1423920:	10800017 	ldw	r2,0(r2)
 1423924:	10800017 	ldw	r2,0(r2)
 1423928:	e037883a 	mov	sp,fp
 142392c:	df000017 	ldw	fp,0(sp)
 1423930:	dec00104 	addi	sp,sp,4
 1423934:	f800283a 	ret

01423938 <_ZN7GpiCore4readEi>:
 1423938:	defffc04 	addi	sp,sp,-16
 142393c:	df000315 	stw	fp,12(sp)
 1423940:	df000304 	addi	fp,sp,12
 1423944:	e13ffe15 	stw	r4,-8(fp)
 1423948:	e17fff15 	stw	r5,-4(fp)
 142394c:	e0bffe17 	ldw	r2,-8(fp)
 1423950:	10800017 	ldw	r2,0(r2)
 1423954:	10800017 	ldw	r2,0(r2)
 1423958:	e0bffd15 	stw	r2,-12(fp)
 142395c:	e0fffd17 	ldw	r3,-12(fp)
 1423960:	e0bfff17 	ldw	r2,-4(fp)
 1423964:	1884d83a 	srl	r2,r3,r2
 1423968:	1080004c 	andi	r2,r2,1
 142396c:	e037883a 	mov	sp,fp
 1423970:	df000017 	ldw	fp,0(sp)
 1423974:	dec00104 	addi	sp,sp,4
 1423978:	f800283a 	ret

0142397c <_ZN12DebounceCoreC1Em>:
 142397c:	defffd04 	addi	sp,sp,-12
 1423980:	df000215 	stw	fp,8(sp)
 1423984:	df000204 	addi	fp,sp,8
 1423988:	e13ffe15 	stw	r4,-8(fp)
 142398c:	e17fff15 	stw	r5,-4(fp)
 1423990:	e0bffe17 	ldw	r2,-8(fp)
 1423994:	e0ffff17 	ldw	r3,-4(fp)
 1423998:	10c00015 	stw	r3,0(r2)
 142399c:	0001883a 	nop
 14239a0:	e037883a 	mov	sp,fp
 14239a4:	df000017 	ldw	fp,0(sp)
 14239a8:	dec00104 	addi	sp,sp,4
 14239ac:	f800283a 	ret

014239b0 <_ZN12DebounceCoreD1Ev>:
 14239b0:	defffe04 	addi	sp,sp,-8
 14239b4:	df000115 	stw	fp,4(sp)
 14239b8:	df000104 	addi	fp,sp,4
 14239bc:	e13fff15 	stw	r4,-4(fp)
 14239c0:	0001883a 	nop
 14239c4:	e037883a 	mov	sp,fp
 14239c8:	df000017 	ldw	fp,0(sp)
 14239cc:	dec00104 	addi	sp,sp,4
 14239d0:	f800283a 	ret

014239d4 <_ZN12DebounceCore4readEv>:
 14239d4:	defffe04 	addi	sp,sp,-8
 14239d8:	df000115 	stw	fp,4(sp)
 14239dc:	df000104 	addi	fp,sp,4
 14239e0:	e13fff15 	stw	r4,-4(fp)
 14239e4:	e0bfff17 	ldw	r2,-4(fp)
 14239e8:	10800017 	ldw	r2,0(r2)
 14239ec:	10800017 	ldw	r2,0(r2)
 14239f0:	e037883a 	mov	sp,fp
 14239f4:	df000017 	ldw	fp,0(sp)
 14239f8:	dec00104 	addi	sp,sp,4
 14239fc:	f800283a 	ret

01423a00 <_ZN12DebounceCore4readEi>:
 1423a00:	defffc04 	addi	sp,sp,-16
 1423a04:	df000315 	stw	fp,12(sp)
 1423a08:	df000304 	addi	fp,sp,12
 1423a0c:	e13ffe15 	stw	r4,-8(fp)
 1423a10:	e17fff15 	stw	r5,-4(fp)
 1423a14:	e0bffe17 	ldw	r2,-8(fp)
 1423a18:	10800017 	ldw	r2,0(r2)
 1423a1c:	10800017 	ldw	r2,0(r2)
 1423a20:	e0bffd15 	stw	r2,-12(fp)
 1423a24:	e0fffd17 	ldw	r3,-12(fp)
 1423a28:	e0bfff17 	ldw	r2,-4(fp)
 1423a2c:	1884d83a 	srl	r2,r3,r2
 1423a30:	1080004c 	andi	r2,r2,1
 1423a34:	e037883a 	mov	sp,fp
 1423a38:	df000017 	ldw	fp,0(sp)
 1423a3c:	dec00104 	addi	sp,sp,4
 1423a40:	f800283a 	ret

01423a44 <_ZN12DebounceCore7read_dbEv>:
 1423a44:	defffe04 	addi	sp,sp,-8
 1423a48:	df000115 	stw	fp,4(sp)
 1423a4c:	df000104 	addi	fp,sp,4
 1423a50:	e13fff15 	stw	r4,-4(fp)
 1423a54:	e0bfff17 	ldw	r2,-4(fp)
 1423a58:	10800017 	ldw	r2,0(r2)
 1423a5c:	10800104 	addi	r2,r2,4
 1423a60:	10800017 	ldw	r2,0(r2)
 1423a64:	e037883a 	mov	sp,fp
 1423a68:	df000017 	ldw	fp,0(sp)
 1423a6c:	dec00104 	addi	sp,sp,4
 1423a70:	f800283a 	ret

01423a74 <_ZN12DebounceCore7read_dbEi>:
 1423a74:	defffc04 	addi	sp,sp,-16
 1423a78:	df000315 	stw	fp,12(sp)
 1423a7c:	df000304 	addi	fp,sp,12
 1423a80:	e13ffe15 	stw	r4,-8(fp)
 1423a84:	e17fff15 	stw	r5,-4(fp)
 1423a88:	e0bffe17 	ldw	r2,-8(fp)
 1423a8c:	10800017 	ldw	r2,0(r2)
 1423a90:	10800104 	addi	r2,r2,4
 1423a94:	10800017 	ldw	r2,0(r2)
 1423a98:	e0bffd15 	stw	r2,-12(fp)
 1423a9c:	e0fffd17 	ldw	r3,-12(fp)
 1423aa0:	e0bfff17 	ldw	r2,-4(fp)
 1423aa4:	1884d83a 	srl	r2,r3,r2
 1423aa8:	1080004c 	andi	r2,r2,1
 1423aac:	e037883a 	mov	sp,fp
 1423ab0:	df000017 	ldw	fp,0(sp)
 1423ab4:	dec00104 	addi	sp,sp,4
 1423ab8:	f800283a 	ret

01423abc <_ZN7GpoCoreC1Em>:
 1423abc:	defffd04 	addi	sp,sp,-12
 1423ac0:	df000215 	stw	fp,8(sp)
 1423ac4:	df000204 	addi	fp,sp,8
 1423ac8:	e13ffe15 	stw	r4,-8(fp)
 1423acc:	e17fff15 	stw	r5,-4(fp)
 1423ad0:	e0bffe17 	ldw	r2,-8(fp)
 1423ad4:	e0ffff17 	ldw	r3,-4(fp)
 1423ad8:	10c00015 	stw	r3,0(r2)
 1423adc:	e0bffe17 	ldw	r2,-8(fp)
 1423ae0:	10000115 	stw	zero,4(r2)
 1423ae4:	0001883a 	nop
 1423ae8:	e037883a 	mov	sp,fp
 1423aec:	df000017 	ldw	fp,0(sp)
 1423af0:	dec00104 	addi	sp,sp,4
 1423af4:	f800283a 	ret

01423af8 <_ZN7GpoCoreD1Ev>:
 1423af8:	defffe04 	addi	sp,sp,-8
 1423afc:	df000115 	stw	fp,4(sp)
 1423b00:	df000104 	addi	fp,sp,4
 1423b04:	e13fff15 	stw	r4,-4(fp)
 1423b08:	0001883a 	nop
 1423b0c:	e037883a 	mov	sp,fp
 1423b10:	df000017 	ldw	fp,0(sp)
 1423b14:	dec00104 	addi	sp,sp,4
 1423b18:	f800283a 	ret

01423b1c <_ZN7GpoCore5writeEm>:
 1423b1c:	defffd04 	addi	sp,sp,-12
 1423b20:	df000215 	stw	fp,8(sp)
 1423b24:	df000204 	addi	fp,sp,8
 1423b28:	e13ffe15 	stw	r4,-8(fp)
 1423b2c:	e17fff15 	stw	r5,-4(fp)
 1423b30:	e0bffe17 	ldw	r2,-8(fp)
 1423b34:	e0ffff17 	ldw	r3,-4(fp)
 1423b38:	10c00115 	stw	r3,4(r2)
 1423b3c:	e0bffe17 	ldw	r2,-8(fp)
 1423b40:	10800017 	ldw	r2,0(r2)
 1423b44:	1007883a 	mov	r3,r2
 1423b48:	e0bffe17 	ldw	r2,-8(fp)
 1423b4c:	10800117 	ldw	r2,4(r2)
 1423b50:	18800015 	stw	r2,0(r3)
 1423b54:	0001883a 	nop
 1423b58:	e037883a 	mov	sp,fp
 1423b5c:	df000017 	ldw	fp,0(sp)
 1423b60:	dec00104 	addi	sp,sp,4
 1423b64:	f800283a 	ret

01423b68 <_ZN7GpoCore5writeEii>:
 1423b68:	defffc04 	addi	sp,sp,-16
 1423b6c:	df000315 	stw	fp,12(sp)
 1423b70:	df000304 	addi	fp,sp,12
 1423b74:	e13ffd15 	stw	r4,-12(fp)
 1423b78:	e17ffe15 	stw	r5,-8(fp)
 1423b7c:	e1bfff15 	stw	r6,-4(fp)
 1423b80:	e0bffe17 	ldw	r2,-8(fp)
 1423b84:	10000926 	beq	r2,zero,1423bac <_ZN7GpoCore5writeEii+0x44>
 1423b88:	e0bffd17 	ldw	r2,-12(fp)
 1423b8c:	10c00117 	ldw	r3,4(r2)
 1423b90:	01000044 	movi	r4,1
 1423b94:	e0bfff17 	ldw	r2,-4(fp)
 1423b98:	2084983a 	sll	r2,r4,r2
 1423b9c:	1886b03a 	or	r3,r3,r2
 1423ba0:	e0bffd17 	ldw	r2,-12(fp)
 1423ba4:	10c00115 	stw	r3,4(r2)
 1423ba8:	00000906 	br	1423bd0 <_ZN7GpoCore5writeEii+0x68>
 1423bac:	e0bffd17 	ldw	r2,-12(fp)
 1423bb0:	10c00117 	ldw	r3,4(r2)
 1423bb4:	01000044 	movi	r4,1
 1423bb8:	e0bfff17 	ldw	r2,-4(fp)
 1423bbc:	2084983a 	sll	r2,r4,r2
 1423bc0:	0084303a 	nor	r2,zero,r2
 1423bc4:	1886703a 	and	r3,r3,r2
 1423bc8:	e0bffd17 	ldw	r2,-12(fp)
 1423bcc:	10c00115 	stw	r3,4(r2)
 1423bd0:	e0bffd17 	ldw	r2,-12(fp)
 1423bd4:	10800017 	ldw	r2,0(r2)
 1423bd8:	1007883a 	mov	r3,r2
 1423bdc:	e0bffd17 	ldw	r2,-12(fp)
 1423be0:	10800117 	ldw	r2,4(r2)
 1423be4:	18800015 	stw	r2,0(r3)
 1423be8:	0001883a 	nop
 1423bec:	e037883a 	mov	sp,fp
 1423bf0:	df000017 	ldw	fp,0(sp)
 1423bf4:	dec00104 	addi	sp,sp,4
 1423bf8:	f800283a 	ret

01423bfc <_ZN7PwmCoreC1Em>:
 1423bfc:	defffc04 	addi	sp,sp,-16
 1423c00:	dfc00315 	stw	ra,12(sp)
 1423c04:	df000215 	stw	fp,8(sp)
 1423c08:	df000204 	addi	fp,sp,8
 1423c0c:	e13ffe15 	stw	r4,-8(fp)
 1423c10:	e17fff15 	stw	r5,-4(fp)
 1423c14:	e0bffe17 	ldw	r2,-8(fp)
 1423c18:	e0ffff17 	ldw	r3,-4(fp)
 1423c1c:	10c00015 	stw	r3,0(r2)
 1423c20:	0140fa04 	movi	r5,1000
 1423c24:	e13ffe17 	ldw	r4,-8(fp)
 1423c28:	1423c680 	call	1423c68 <_ZN7PwmCore8set_freqEi>
 1423c2c:	0001883a 	nop
 1423c30:	e037883a 	mov	sp,fp
 1423c34:	dfc00117 	ldw	ra,4(sp)
 1423c38:	df000017 	ldw	fp,0(sp)
 1423c3c:	dec00204 	addi	sp,sp,8
 1423c40:	f800283a 	ret

01423c44 <_ZN7PwmCoreD1Ev>:
 1423c44:	defffe04 	addi	sp,sp,-8
 1423c48:	df000115 	stw	fp,4(sp)
 1423c4c:	df000104 	addi	fp,sp,4
 1423c50:	e13fff15 	stw	r4,-4(fp)
 1423c54:	0001883a 	nop
 1423c58:	e037883a 	mov	sp,fp
 1423c5c:	df000017 	ldw	fp,0(sp)
 1423c60:	dec00104 	addi	sp,sp,4
 1423c64:	f800283a 	ret

01423c68 <_ZN7PwmCore8set_freqEi>:
 1423c68:	defffb04 	addi	sp,sp,-20
 1423c6c:	dfc00415 	stw	ra,16(sp)
 1423c70:	df000315 	stw	fp,12(sp)
 1423c74:	df000304 	addi	fp,sp,12
 1423c78:	e13ffe15 	stw	r4,-8(fp)
 1423c7c:	e17fff15 	stw	r5,-4(fp)
 1423c80:	e0bfff17 	ldw	r2,-4(fp)
 1423c84:	100b883a 	mov	r5,r2
 1423c88:	012faf14 	movui	r4,48828
 1423c8c:	14287d80 	call	14287d8 <__udivsi3>
 1423c90:	e0bffd15 	stw	r2,-12(fp)
 1423c94:	e0bffe17 	ldw	r2,-8(fp)
 1423c98:	10800017 	ldw	r2,0(r2)
 1423c9c:	1007883a 	mov	r3,r2
 1423ca0:	e0bffd17 	ldw	r2,-12(fp)
 1423ca4:	18800015 	stw	r2,0(r3)
 1423ca8:	0001883a 	nop
 1423cac:	e037883a 	mov	sp,fp
 1423cb0:	dfc00117 	ldw	ra,4(sp)
 1423cb4:	df000017 	ldw	fp,0(sp)
 1423cb8:	dec00204 	addi	sp,sp,8
 1423cbc:	f800283a 	ret

01423cc0 <_ZN7PwmCore8set_dutyEii>:
 1423cc0:	defffb04 	addi	sp,sp,-20
 1423cc4:	df000415 	stw	fp,16(sp)
 1423cc8:	df000404 	addi	fp,sp,16
 1423ccc:	e13ffd15 	stw	r4,-12(fp)
 1423cd0:	e17ffe15 	stw	r5,-8(fp)
 1423cd4:	e1bfff15 	stw	r6,-4(fp)
 1423cd8:	e0bffe17 	ldw	r2,-8(fp)
 1423cdc:	10810050 	cmplti	r2,r2,1025
 1423ce0:	1000031e 	bne	r2,zero,1423cf0 <_ZN7PwmCore8set_dutyEii+0x30>
 1423ce4:	00810004 	movi	r2,1024
 1423ce8:	e0bffc15 	stw	r2,-16(fp)
 1423cec:	00000206 	br	1423cf8 <_ZN7PwmCore8set_dutyEii+0x38>
 1423cf0:	e0bffe17 	ldw	r2,-8(fp)
 1423cf4:	e0bffc15 	stw	r2,-16(fp)
 1423cf8:	e0bffd17 	ldw	r2,-12(fp)
 1423cfc:	10c00017 	ldw	r3,0(r2)
 1423d00:	e0bfff17 	ldw	r2,-4(fp)
 1423d04:	10800404 	addi	r2,r2,16
 1423d08:	1085883a 	add	r2,r2,r2
 1423d0c:	1085883a 	add	r2,r2,r2
 1423d10:	1885883a 	add	r2,r3,r2
 1423d14:	1007883a 	mov	r3,r2
 1423d18:	e0bffc17 	ldw	r2,-16(fp)
 1423d1c:	18800015 	stw	r2,0(r3)
 1423d20:	0001883a 	nop
 1423d24:	e037883a 	mov	sp,fp
 1423d28:	df000017 	ldw	fp,0(sp)
 1423d2c:	dec00104 	addi	sp,sp,4
 1423d30:	f800283a 	ret

01423d34 <_ZN7PwmCore8set_dutyEdi>:
 1423d34:	defff904 	addi	sp,sp,-28
 1423d38:	dfc00615 	stw	ra,24(sp)
 1423d3c:	df000515 	stw	fp,20(sp)
 1423d40:	df000504 	addi	fp,sp,20
 1423d44:	e13ffc15 	stw	r4,-16(fp)
 1423d48:	e17ffd15 	stw	r5,-12(fp)
 1423d4c:	e1bffe15 	stw	r6,-8(fp)
 1423d50:	e1ffff15 	stw	r7,-4(fp)
 1423d54:	000d883a 	mov	r6,zero
 1423d58:	01d02434 	movhi	r7,16528
 1423d5c:	e13ffd17 	ldw	r4,-12(fp)
 1423d60:	e17ffe17 	ldw	r5,-8(fp)
 1423d64:	142a5780 	call	142a578 <__muldf3>
 1423d68:	1009883a 	mov	r4,r2
 1423d6c:	180b883a 	mov	r5,r3
 1423d70:	2005883a 	mov	r2,r4
 1423d74:	2807883a 	mov	r3,r5
 1423d78:	1009883a 	mov	r4,r2
 1423d7c:	180b883a 	mov	r5,r3
 1423d80:	142b6e00 	call	142b6e0 <__fixdfsi>
 1423d84:	e0bffb15 	stw	r2,-20(fp)
 1423d88:	14230700 	call	1423070 <debug_off>
 1423d8c:	e1bfff17 	ldw	r6,-4(fp)
 1423d90:	e17ffb17 	ldw	r5,-20(fp)
 1423d94:	e13ffc17 	ldw	r4,-16(fp)
 1423d98:	1423cc00 	call	1423cc0 <_ZN7PwmCore8set_dutyEii>
 1423d9c:	0001883a 	nop
 1423da0:	e037883a 	mov	sp,fp
 1423da4:	dfc00117 	ldw	ra,4(sp)
 1423da8:	df000017 	ldw	fp,0(sp)
 1423dac:	dec00204 	addi	sp,sp,8
 1423db0:	f800283a 	ret

01423db4 <_ZN8MadcCoreC1Em>:
 1423db4:	defffd04 	addi	sp,sp,-12
 1423db8:	df000215 	stw	fp,8(sp)
 1423dbc:	df000204 	addi	fp,sp,8
 1423dc0:	e13ffe15 	stw	r4,-8(fp)
 1423dc4:	e17fff15 	stw	r5,-4(fp)
 1423dc8:	e0bffe17 	ldw	r2,-8(fp)
 1423dcc:	e0ffff17 	ldw	r3,-4(fp)
 1423dd0:	10c00015 	stw	r3,0(r2)
 1423dd4:	0001883a 	nop
 1423dd8:	e037883a 	mov	sp,fp
 1423ddc:	df000017 	ldw	fp,0(sp)
 1423de0:	dec00104 	addi	sp,sp,4
 1423de4:	f800283a 	ret

01423de8 <_ZN8MadcCoreD1Ev>:
 1423de8:	defffe04 	addi	sp,sp,-8
 1423dec:	df000115 	stw	fp,4(sp)
 1423df0:	df000104 	addi	fp,sp,4
 1423df4:	e13fff15 	stw	r4,-4(fp)
 1423df8:	0001883a 	nop
 1423dfc:	e037883a 	mov	sp,fp
 1423e00:	df000017 	ldw	fp,0(sp)
 1423e04:	dec00104 	addi	sp,sp,4
 1423e08:	f800283a 	ret

01423e0c <_ZN8MadcCore16read_channel_rawEi>:
 1423e0c:	defffc04 	addi	sp,sp,-16
 1423e10:	df000315 	stw	fp,12(sp)
 1423e14:	df000304 	addi	fp,sp,12
 1423e18:	e13ffe15 	stw	r4,-8(fp)
 1423e1c:	e17fff15 	stw	r5,-4(fp)
 1423e20:	e0bffe17 	ldw	r2,-8(fp)
 1423e24:	10c00017 	ldw	r3,0(r2)
 1423e28:	e0bfff17 	ldw	r2,-4(fp)
 1423e2c:	1085883a 	add	r2,r2,r2
 1423e30:	1085883a 	add	r2,r2,r2
 1423e34:	1885883a 	add	r2,r3,r2
 1423e38:	10800017 	ldw	r2,0(r2)
 1423e3c:	1083ffcc 	andi	r2,r2,4095
 1423e40:	e0bffd0d 	sth	r2,-12(fp)
 1423e44:	e0bffd0b 	ldhu	r2,-12(fp)
 1423e48:	e037883a 	mov	sp,fp
 1423e4c:	df000017 	ldw	fp,0(sp)
 1423e50:	dec00104 	addi	sp,sp,4
 1423e54:	f800283a 	ret

01423e58 <_ZN8MadcCore11read_adc_inEi>:
 1423e58:	defff804 	addi	sp,sp,-32
 1423e5c:	dfc00715 	stw	ra,28(sp)
 1423e60:	df000615 	stw	fp,24(sp)
 1423e64:	df000604 	addi	fp,sp,24
 1423e68:	e13ffe15 	stw	r4,-8(fp)
 1423e6c:	e17fff15 	stw	r5,-4(fp)
 1423e70:	e17fff17 	ldw	r5,-4(fp)
 1423e74:	e13ffe17 	ldw	r4,-8(fp)
 1423e78:	1423e0c0 	call	1423e0c <_ZN8MadcCore16read_channel_rawEi>
 1423e7c:	10bfffcc 	andi	r2,r2,65535
 1423e80:	1009883a 	mov	r4,r2
 1423e84:	142b83c0 	call	142b83c <__floatunsidf>
 1423e88:	1009883a 	mov	r4,r2
 1423e8c:	180b883a 	mov	r5,r3
 1423e90:	e13ffa15 	stw	r4,-24(fp)
 1423e94:	e17ffb15 	stw	r5,-20(fp)
 1423e98:	000d883a 	mov	r6,zero
 1423e9c:	01d02c34 	movhi	r7,16560
 1423ea0:	e13ffa17 	ldw	r4,-24(fp)
 1423ea4:	e17ffb17 	ldw	r5,-20(fp)
 1423ea8:	14299500 	call	1429950 <__divdf3>
 1423eac:	1009883a 	mov	r4,r2
 1423eb0:	180b883a 	mov	r5,r3
 1423eb4:	2005883a 	mov	r2,r4
 1423eb8:	2807883a 	mov	r3,r5
 1423ebc:	000d883a 	mov	r6,zero
 1423ec0:	01d00534 	movhi	r7,16404
 1423ec4:	1009883a 	mov	r4,r2
 1423ec8:	180b883a 	mov	r5,r3
 1423ecc:	142a5780 	call	142a578 <__muldf3>
 1423ed0:	1009883a 	mov	r4,r2
 1423ed4:	180b883a 	mov	r5,r3
 1423ed8:	e13ffc15 	stw	r4,-16(fp)
 1423edc:	e17ffd15 	stw	r5,-12(fp)
 1423ee0:	e0bffc17 	ldw	r2,-16(fp)
 1423ee4:	e0fffd17 	ldw	r3,-12(fp)
 1423ee8:	1009883a 	mov	r4,r2
 1423eec:	180b883a 	mov	r5,r3
 1423ef0:	2005883a 	mov	r2,r4
 1423ef4:	2807883a 	mov	r3,r5
 1423ef8:	e037883a 	mov	sp,fp
 1423efc:	dfc00117 	ldw	ra,4(sp)
 1423f00:	df000017 	ldw	fp,0(sp)
 1423f04:	dec00204 	addi	sp,sp,8
 1423f08:	f800283a 	ret

01423f0c <_ZN8MadcCore14read_fpga_tempEv>:
 1423f0c:	defffe04 	addi	sp,sp,-8
 1423f10:	df000115 	stw	fp,4(sp)
 1423f14:	df000104 	addi	fp,sp,4
 1423f18:	e13fff15 	stw	r4,-4(fp)
 1423f1c:	0005883a 	mov	r2,zero
 1423f20:	00d00e74 	movhi	r3,16441
 1423f24:	1009883a 	mov	r4,r2
 1423f28:	180b883a 	mov	r5,r3
 1423f2c:	2005883a 	mov	r2,r4
 1423f30:	2807883a 	mov	r3,r5
 1423f34:	e037883a 	mov	sp,fp
 1423f38:	df000017 	ldw	fp,0(sp)
 1423f3c:	dec00104 	addi	sp,sp,4
 1423f40:	f800283a 	ret

01423f44 <_ZN5RtttlC1Ev>:
 1423f44:	defffc04 	addi	sp,sp,-16
 1423f48:	dfc00315 	stw	ra,12(sp)
 1423f4c:	df000215 	stw	fp,8(sp)
 1423f50:	df000204 	addi	fp,sp,8
 1423f54:	e13fff15 	stw	r4,-4(fp)
 1423f58:	008050f4 	movhi	r2,323
 1423f5c:	10b71b04 	addi	r2,r2,-9108
 1423f60:	e0bffe15 	stw	r2,-8(fp)
 1423f64:	e17ffe17 	ldw	r5,-8(fp)
 1423f68:	e13fff17 	ldw	r4,-4(fp)
 1423f6c:	1423fac0 	call	1423fac <_ZN5Rtttl12parse_headerEPc>
 1423f70:	0001883a 	nop
 1423f74:	e037883a 	mov	sp,fp
 1423f78:	dfc00117 	ldw	ra,4(sp)
 1423f7c:	df000017 	ldw	fp,0(sp)
 1423f80:	dec00204 	addi	sp,sp,8
 1423f84:	f800283a 	ret

01423f88 <_ZN5RtttlD1Ev>:
 1423f88:	defffe04 	addi	sp,sp,-8
 1423f8c:	df000115 	stw	fp,4(sp)
 1423f90:	df000104 	addi	fp,sp,4
 1423f94:	e13fff15 	stw	r4,-4(fp)
 1423f98:	0001883a 	nop
 1423f9c:	e037883a 	mov	sp,fp
 1423fa0:	df000017 	ldw	fp,0(sp)
 1423fa4:	dec00104 	addi	sp,sp,4
 1423fa8:	f800283a 	ret

01423fac <_ZN5Rtttl12parse_headerEPc>:
 1423fac:	defffa04 	addi	sp,sp,-24
 1423fb0:	dfc00515 	stw	ra,20(sp)
 1423fb4:	df000415 	stw	fp,16(sp)
 1423fb8:	df000404 	addi	fp,sp,16
 1423fbc:	e13ffe15 	stw	r4,-8(fp)
 1423fc0:	e17fff15 	stw	r5,-4(fp)
 1423fc4:	e03ffc15 	stw	zero,-16(fp)
 1423fc8:	00800f04 	movi	r2,60
 1423fcc:	e0bffd15 	stw	r2,-12(fp)
 1423fd0:	e0bffe17 	ldw	r2,-8(fp)
 1423fd4:	e0ffff17 	ldw	r3,-4(fp)
 1423fd8:	10c00615 	stw	r3,24(r2)
 1423fdc:	e0bffe17 	ldw	r2,-8(fp)
 1423fe0:	10800617 	ldw	r2,24(r2)
 1423fe4:	10800003 	ldbu	r2,0(r2)
 1423fe8:	10803fcc 	andi	r2,r2,255
 1423fec:	1080201c 	xori	r2,r2,128
 1423ff0:	10bfe004 	addi	r2,r2,-128
 1423ff4:	10800ea0 	cmpeqi	r2,r2,58
 1423ff8:	1000061e 	bne	r2,zero,1424014 <_ZN5Rtttl12parse_headerEPc+0x68>
 1423ffc:	e0bffe17 	ldw	r2,-8(fp)
 1424000:	10800617 	ldw	r2,24(r2)
 1424004:	10c00044 	addi	r3,r2,1
 1424008:	e0bffe17 	ldw	r2,-8(fp)
 142400c:	10c00615 	stw	r3,24(r2)
 1424010:	003ff206 	br	1423fdc <__alt_data_end+0xfffe3fdc>
 1424014:	e0bffe17 	ldw	r2,-8(fp)
 1424018:	10800617 	ldw	r2,24(r2)
 142401c:	10c00044 	addi	r3,r2,1
 1424020:	e0bffe17 	ldw	r2,-8(fp)
 1424024:	10c00615 	stw	r3,24(r2)
 1424028:	e0bffe17 	ldw	r2,-8(fp)
 142402c:	10800617 	ldw	r2,24(r2)
 1424030:	10800003 	ldbu	r2,0(r2)
 1424034:	10803fcc 	andi	r2,r2,255
 1424038:	1080201c 	xori	r2,r2,128
 142403c:	10bfe004 	addi	r2,r2,-128
 1424040:	10801918 	cmpnei	r2,r2,100
 1424044:	1000321e 	bne	r2,zero,1424110 <_ZN5Rtttl12parse_headerEPc+0x164>
 1424048:	e0bffe17 	ldw	r2,-8(fp)
 142404c:	10800617 	ldw	r2,24(r2)
 1424050:	10c00044 	addi	r3,r2,1
 1424054:	e0bffe17 	ldw	r2,-8(fp)
 1424058:	10c00615 	stw	r3,24(r2)
 142405c:	e0bffe17 	ldw	r2,-8(fp)
 1424060:	10800617 	ldw	r2,24(r2)
 1424064:	10c00044 	addi	r3,r2,1
 1424068:	e0bffe17 	ldw	r2,-8(fp)
 142406c:	10c00615 	stw	r3,24(r2)
 1424070:	e03ffc15 	stw	zero,-16(fp)
 1424074:	e0bffe17 	ldw	r2,-8(fp)
 1424078:	10800617 	ldw	r2,24(r2)
 142407c:	10800003 	ldbu	r2,0(r2)
 1424080:	10803fcc 	andi	r2,r2,255
 1424084:	1080201c 	xori	r2,r2,128
 1424088:	10bfe004 	addi	r2,r2,-128
 142408c:	100b883a 	mov	r5,r2
 1424090:	e13ffe17 	ldw	r4,-8(fp)
 1424094:	14247480 	call	1424748 <_ZN5Rtttl8is_digitEc>
 1424098:	1004c03a 	cmpne	r2,r2,zero
 142409c:	10803fcc 	andi	r2,r2,255
 14240a0:	10001326 	beq	r2,zero,14240f0 <_ZN5Rtttl12parse_headerEPc+0x144>
 14240a4:	01400284 	movi	r5,10
 14240a8:	e13ffc17 	ldw	r4,-16(fp)
 14240ac:	14288940 	call	1428894 <__mulsi3>
 14240b0:	1007883a 	mov	r3,r2
 14240b4:	e0bffe17 	ldw	r2,-8(fp)
 14240b8:	10800617 	ldw	r2,24(r2)
 14240bc:	10800003 	ldbu	r2,0(r2)
 14240c0:	10803fcc 	andi	r2,r2,255
 14240c4:	1080201c 	xori	r2,r2,128
 14240c8:	10bfe004 	addi	r2,r2,-128
 14240cc:	10bff404 	addi	r2,r2,-48
 14240d0:	1885883a 	add	r2,r3,r2
 14240d4:	e0bffc15 	stw	r2,-16(fp)
 14240d8:	e0bffe17 	ldw	r2,-8(fp)
 14240dc:	10800617 	ldw	r2,24(r2)
 14240e0:	10c00044 	addi	r3,r2,1
 14240e4:	e0bffe17 	ldw	r2,-8(fp)
 14240e8:	10c00615 	stw	r3,24(r2)
 14240ec:	003fe106 	br	1424074 <__alt_data_end+0xfffe4074>
 14240f0:	e0bffe17 	ldw	r2,-8(fp)
 14240f4:	e0fffc17 	ldw	r3,-16(fp)
 14240f8:	10c00015 	stw	r3,0(r2)
 14240fc:	e0bffe17 	ldw	r2,-8(fp)
 1424100:	10800617 	ldw	r2,24(r2)
 1424104:	10c00044 	addi	r3,r2,1
 1424108:	e0bffe17 	ldw	r2,-8(fp)
 142410c:	10c00615 	stw	r3,24(r2)
 1424110:	e0bffe17 	ldw	r2,-8(fp)
 1424114:	10800617 	ldw	r2,24(r2)
 1424118:	10800003 	ldbu	r2,0(r2)
 142411c:	10803fcc 	andi	r2,r2,255
 1424120:	1080201c 	xori	r2,r2,128
 1424124:	10bfe004 	addi	r2,r2,-128
 1424128:	10801bd8 	cmpnei	r2,r2,111
 142412c:	10001f1e 	bne	r2,zero,14241ac <_ZN5Rtttl12parse_headerEPc+0x200>
 1424130:	e0bffe17 	ldw	r2,-8(fp)
 1424134:	10800617 	ldw	r2,24(r2)
 1424138:	10c00044 	addi	r3,r2,1
 142413c:	e0bffe17 	ldw	r2,-8(fp)
 1424140:	10c00615 	stw	r3,24(r2)
 1424144:	e0bffe17 	ldw	r2,-8(fp)
 1424148:	10800617 	ldw	r2,24(r2)
 142414c:	10c00044 	addi	r3,r2,1
 1424150:	e0bffe17 	ldw	r2,-8(fp)
 1424154:	10c00615 	stw	r3,24(r2)
 1424158:	e0bffe17 	ldw	r2,-8(fp)
 142415c:	10800617 	ldw	r2,24(r2)
 1424160:	10800003 	ldbu	r2,0(r2)
 1424164:	10803fcc 	andi	r2,r2,255
 1424168:	1080201c 	xori	r2,r2,128
 142416c:	10bfe004 	addi	r2,r2,-128
 1424170:	10bff404 	addi	r2,r2,-48
 1424174:	e0bffc15 	stw	r2,-16(fp)
 1424178:	e0bffe17 	ldw	r2,-8(fp)
 142417c:	10800617 	ldw	r2,24(r2)
 1424180:	10c00044 	addi	r3,r2,1
 1424184:	e0bffe17 	ldw	r2,-8(fp)
 1424188:	10c00615 	stw	r3,24(r2)
 142418c:	e0bffe17 	ldw	r2,-8(fp)
 1424190:	e0fffc17 	ldw	r3,-16(fp)
 1424194:	10c00115 	stw	r3,4(r2)
 1424198:	e0bffe17 	ldw	r2,-8(fp)
 142419c:	10800617 	ldw	r2,24(r2)
 14241a0:	10c00044 	addi	r3,r2,1
 14241a4:	e0bffe17 	ldw	r2,-8(fp)
 14241a8:	10c00615 	stw	r3,24(r2)
 14241ac:	e0bffe17 	ldw	r2,-8(fp)
 14241b0:	10800617 	ldw	r2,24(r2)
 14241b4:	10800003 	ldbu	r2,0(r2)
 14241b8:	10803fcc 	andi	r2,r2,255
 14241bc:	1080201c 	xori	r2,r2,128
 14241c0:	10bfe004 	addi	r2,r2,-128
 14241c4:	10801898 	cmpnei	r2,r2,98
 14241c8:	1000311e 	bne	r2,zero,1424290 <_ZN5Rtttl12parse_headerEPc+0x2e4>
 14241cc:	e0bffe17 	ldw	r2,-8(fp)
 14241d0:	10800617 	ldw	r2,24(r2)
 14241d4:	10c00044 	addi	r3,r2,1
 14241d8:	e0bffe17 	ldw	r2,-8(fp)
 14241dc:	10c00615 	stw	r3,24(r2)
 14241e0:	e0bffe17 	ldw	r2,-8(fp)
 14241e4:	10800617 	ldw	r2,24(r2)
 14241e8:	10c00044 	addi	r3,r2,1
 14241ec:	e0bffe17 	ldw	r2,-8(fp)
 14241f0:	10c00615 	stw	r3,24(r2)
 14241f4:	e03ffc15 	stw	zero,-16(fp)
 14241f8:	e0bffe17 	ldw	r2,-8(fp)
 14241fc:	10800617 	ldw	r2,24(r2)
 1424200:	10800003 	ldbu	r2,0(r2)
 1424204:	10803fcc 	andi	r2,r2,255
 1424208:	1080201c 	xori	r2,r2,128
 142420c:	10bfe004 	addi	r2,r2,-128
 1424210:	100b883a 	mov	r5,r2
 1424214:	e13ffe17 	ldw	r4,-8(fp)
 1424218:	14247480 	call	1424748 <_ZN5Rtttl8is_digitEc>
 142421c:	1004c03a 	cmpne	r2,r2,zero
 1424220:	10803fcc 	andi	r2,r2,255
 1424224:	10001326 	beq	r2,zero,1424274 <_ZN5Rtttl12parse_headerEPc+0x2c8>
 1424228:	01400284 	movi	r5,10
 142422c:	e13ffc17 	ldw	r4,-16(fp)
 1424230:	14288940 	call	1428894 <__mulsi3>
 1424234:	1007883a 	mov	r3,r2
 1424238:	e0bffe17 	ldw	r2,-8(fp)
 142423c:	10800617 	ldw	r2,24(r2)
 1424240:	10800003 	ldbu	r2,0(r2)
 1424244:	10803fcc 	andi	r2,r2,255
 1424248:	1080201c 	xori	r2,r2,128
 142424c:	10bfe004 	addi	r2,r2,-128
 1424250:	10bff404 	addi	r2,r2,-48
 1424254:	1885883a 	add	r2,r3,r2
 1424258:	e0bffc15 	stw	r2,-16(fp)
 142425c:	e0bffe17 	ldw	r2,-8(fp)
 1424260:	10800617 	ldw	r2,24(r2)
 1424264:	10c00044 	addi	r3,r2,1
 1424268:	e0bffe17 	ldw	r2,-8(fp)
 142426c:	10c00615 	stw	r3,24(r2)
 1424270:	003fe106 	br	14241f8 <__alt_data_end+0xfffe41f8>
 1424274:	e0bffc17 	ldw	r2,-16(fp)
 1424278:	e0bffd15 	stw	r2,-12(fp)
 142427c:	e0bffe17 	ldw	r2,-8(fp)
 1424280:	10800617 	ldw	r2,24(r2)
 1424284:	10c00044 	addi	r3,r2,1
 1424288:	e0bffe17 	ldw	r2,-8(fp)
 142428c:	10c00615 	stw	r3,24(r2)
 1424290:	e17ffd17 	ldw	r5,-12(fp)
 1424294:	013a9814 	movui	r4,60000
 1424298:	14286e00 	call	14286e0 <__divsi3>
 142429c:	1085883a 	add	r2,r2,r2
 14242a0:	1085883a 	add	r2,r2,r2
 14242a4:	1007883a 	mov	r3,r2
 14242a8:	e0bffe17 	ldw	r2,-8(fp)
 14242ac:	10c00215 	stw	r3,8(r2)
 14242b0:	e0bffe17 	ldw	r2,-8(fp)
 14242b4:	10c00617 	ldw	r3,24(r2)
 14242b8:	e0bffe17 	ldw	r2,-8(fp)
 14242bc:	10c00715 	stw	r3,28(r2)
 14242c0:	0001883a 	nop
 14242c4:	e037883a 	mov	sp,fp
 14242c8:	dfc00117 	ldw	ra,4(sp)
 14242cc:	df000017 	ldw	fp,0(sp)
 14242d0:	dec00204 	addi	sp,sp,8
 14242d4:	f800283a 	ret

014242d8 <_ZN5Rtttl15parse_next_noteEv>:
 14242d8:	defffc04 	addi	sp,sp,-16
 14242dc:	dfc00315 	stw	ra,12(sp)
 14242e0:	df000215 	stw	fp,8(sp)
 14242e4:	df000204 	addi	fp,sp,8
 14242e8:	e13fff15 	stw	r4,-4(fp)
 14242ec:	e03ffe15 	stw	zero,-8(fp)
 14242f0:	e0bfff17 	ldw	r2,-4(fp)
 14242f4:	10800617 	ldw	r2,24(r2)
 14242f8:	1000021e 	bne	r2,zero,1424304 <_ZN5Rtttl15parse_next_noteEv+0x2c>
 14242fc:	00bfffc4 	movi	r2,-1
 1424300:	0000d106 	br	1424648 <_ZN5Rtttl15parse_next_noteEv+0x370>
 1424304:	e03ffe15 	stw	zero,-8(fp)
 1424308:	e0bfff17 	ldw	r2,-4(fp)
 142430c:	10800617 	ldw	r2,24(r2)
 1424310:	10800003 	ldbu	r2,0(r2)
 1424314:	10803fcc 	andi	r2,r2,255
 1424318:	1080201c 	xori	r2,r2,128
 142431c:	10bfe004 	addi	r2,r2,-128
 1424320:	100b883a 	mov	r5,r2
 1424324:	e13fff17 	ldw	r4,-4(fp)
 1424328:	14247480 	call	1424748 <_ZN5Rtttl8is_digitEc>
 142432c:	1004c03a 	cmpne	r2,r2,zero
 1424330:	10803fcc 	andi	r2,r2,255
 1424334:	10001326 	beq	r2,zero,1424384 <_ZN5Rtttl15parse_next_noteEv+0xac>
 1424338:	01400284 	movi	r5,10
 142433c:	e13ffe17 	ldw	r4,-8(fp)
 1424340:	14288940 	call	1428894 <__mulsi3>
 1424344:	1007883a 	mov	r3,r2
 1424348:	e0bfff17 	ldw	r2,-4(fp)
 142434c:	10800617 	ldw	r2,24(r2)
 1424350:	10800003 	ldbu	r2,0(r2)
 1424354:	10803fcc 	andi	r2,r2,255
 1424358:	1080201c 	xori	r2,r2,128
 142435c:	10bfe004 	addi	r2,r2,-128
 1424360:	10bff404 	addi	r2,r2,-48
 1424364:	1885883a 	add	r2,r3,r2
 1424368:	e0bffe15 	stw	r2,-8(fp)
 142436c:	e0bfff17 	ldw	r2,-4(fp)
 1424370:	10800617 	ldw	r2,24(r2)
 1424374:	10c00044 	addi	r3,r2,1
 1424378:	e0bfff17 	ldw	r2,-4(fp)
 142437c:	10c00615 	stw	r3,24(r2)
 1424380:	003fe106 	br	1424308 <__alt_data_end+0xfffe4308>
 1424384:	e0bffe17 	ldw	r2,-8(fp)
 1424388:	0080090e 	bge	zero,r2,14243b0 <_ZN5Rtttl15parse_next_noteEv+0xd8>
 142438c:	e0bfff17 	ldw	r2,-4(fp)
 1424390:	10800217 	ldw	r2,8(r2)
 1424394:	e17ffe17 	ldw	r5,-8(fp)
 1424398:	1009883a 	mov	r4,r2
 142439c:	14286e00 	call	14286e0 <__divsi3>
 14243a0:	1007883a 	mov	r3,r2
 14243a4:	e0bfff17 	ldw	r2,-4(fp)
 14243a8:	10c00515 	stw	r3,20(r2)
 14243ac:	00000a06 	br	14243d8 <_ZN5Rtttl15parse_next_noteEv+0x100>
 14243b0:	e0bfff17 	ldw	r2,-4(fp)
 14243b4:	10c00217 	ldw	r3,8(r2)
 14243b8:	e0bfff17 	ldw	r2,-4(fp)
 14243bc:	10800017 	ldw	r2,0(r2)
 14243c0:	100b883a 	mov	r5,r2
 14243c4:	1809883a 	mov	r4,r3
 14243c8:	14286e00 	call	14286e0 <__divsi3>
 14243cc:	1007883a 	mov	r3,r2
 14243d0:	e0bfff17 	ldw	r2,-4(fp)
 14243d4:	10c00515 	stw	r3,20(r2)
 14243d8:	e0bfff17 	ldw	r2,-4(fp)
 14243dc:	10800617 	ldw	r2,24(r2)
 14243e0:	10800003 	ldbu	r2,0(r2)
 14243e4:	10803fcc 	andi	r2,r2,255
 14243e8:	1080201c 	xori	r2,r2,128
 14243ec:	10bfe004 	addi	r2,r2,-128
 14243f0:	10bfe7c4 	addi	r2,r2,-97
 14243f4:	10c00428 	cmpgeui	r3,r2,16
 14243f8:	1800351e 	bne	r3,zero,14244d0 <_ZN5Rtttl15parse_next_noteEv+0x1f8>
 14243fc:	100690ba 	slli	r3,r2,2
 1424400:	008050b4 	movhi	r2,322
 1424404:	10910504 	addi	r2,r2,17428
 1424408:	1885883a 	add	r2,r3,r2
 142440c:	10800017 	ldw	r2,0(r2)
 1424410:	1000683a 	jmp	r2
 1424414:	014244a0 	cmpeqi	r5,zero,2322
 1424418:	014244b0 	cmpltui	r5,zero,2322
 142441c:	01424454 	movui	r5,2321
 1424420:	01424460 	cmpeqi	r5,zero,2321
 1424424:	01424470 	cmpltui	r5,zero,2321
 1424428:	01424480 	call	142448 <__alt_mem_onchip_flash_0_data-0x10bdbb8>
 142442c:	01424490 	cmplti	r5,zero,2322
 1424430:	014244d0 	cmplti	r5,zero,2323
 1424434:	014244d0 	cmplti	r5,zero,2323
 1424438:	014244d0 	cmplti	r5,zero,2323
 142443c:	014244d0 	cmplti	r5,zero,2323
 1424440:	014244d0 	cmplti	r5,zero,2323
 1424444:	014244d0 	cmplti	r5,zero,2323
 1424448:	014244d0 	cmplti	r5,zero,2323
 142444c:	014244d0 	cmplti	r5,zero,2323
 1424450:	014244c0 	call	14244c <__alt_mem_onchip_flash_0_data-0x10bdbb4>
 1424454:	e0bfff17 	ldw	r2,-4(fp)
 1424458:	10000415 	stw	zero,16(r2)
 142445c:	00001f06 	br	14244dc <_ZN5Rtttl15parse_next_noteEv+0x204>
 1424460:	e0bfff17 	ldw	r2,-4(fp)
 1424464:	00c00084 	movi	r3,2
 1424468:	10c00415 	stw	r3,16(r2)
 142446c:	00001b06 	br	14244dc <_ZN5Rtttl15parse_next_noteEv+0x204>
 1424470:	e0bfff17 	ldw	r2,-4(fp)
 1424474:	00c00104 	movi	r3,4
 1424478:	10c00415 	stw	r3,16(r2)
 142447c:	00001706 	br	14244dc <_ZN5Rtttl15parse_next_noteEv+0x204>
 1424480:	e0bfff17 	ldw	r2,-4(fp)
 1424484:	00c00144 	movi	r3,5
 1424488:	10c00415 	stw	r3,16(r2)
 142448c:	00001306 	br	14244dc <_ZN5Rtttl15parse_next_noteEv+0x204>
 1424490:	e0bfff17 	ldw	r2,-4(fp)
 1424494:	00c001c4 	movi	r3,7
 1424498:	10c00415 	stw	r3,16(r2)
 142449c:	00000f06 	br	14244dc <_ZN5Rtttl15parse_next_noteEv+0x204>
 14244a0:	e0bfff17 	ldw	r2,-4(fp)
 14244a4:	00c00244 	movi	r3,9
 14244a8:	10c00415 	stw	r3,16(r2)
 14244ac:	00000b06 	br	14244dc <_ZN5Rtttl15parse_next_noteEv+0x204>
 14244b0:	e0bfff17 	ldw	r2,-4(fp)
 14244b4:	00c002c4 	movi	r3,11
 14244b8:	10c00415 	stw	r3,16(r2)
 14244bc:	00000706 	br	14244dc <_ZN5Rtttl15parse_next_noteEv+0x204>
 14244c0:	e0bfff17 	ldw	r2,-4(fp)
 14244c4:	00ffffc4 	movi	r3,-1
 14244c8:	10c00415 	stw	r3,16(r2)
 14244cc:	00000306 	br	14244dc <_ZN5Rtttl15parse_next_noteEv+0x204>
 14244d0:	e0bfff17 	ldw	r2,-4(fp)
 14244d4:	00ffffc4 	movi	r3,-1
 14244d8:	10c00415 	stw	r3,16(r2)
 14244dc:	e0bfff17 	ldw	r2,-4(fp)
 14244e0:	10800617 	ldw	r2,24(r2)
 14244e4:	10c00044 	addi	r3,r2,1
 14244e8:	e0bfff17 	ldw	r2,-4(fp)
 14244ec:	10c00615 	stw	r3,24(r2)
 14244f0:	e0bfff17 	ldw	r2,-4(fp)
 14244f4:	10800617 	ldw	r2,24(r2)
 14244f8:	10800003 	ldbu	r2,0(r2)
 14244fc:	10803fcc 	andi	r2,r2,255
 1424500:	1080201c 	xori	r2,r2,128
 1424504:	10bfe004 	addi	r2,r2,-128
 1424508:	108008d8 	cmpnei	r2,r2,35
 142450c:	10000a1e 	bne	r2,zero,1424538 <_ZN5Rtttl15parse_next_noteEv+0x260>
 1424510:	e0bfff17 	ldw	r2,-4(fp)
 1424514:	10800417 	ldw	r2,16(r2)
 1424518:	10c00044 	addi	r3,r2,1
 142451c:	e0bfff17 	ldw	r2,-4(fp)
 1424520:	10c00415 	stw	r3,16(r2)
 1424524:	e0bfff17 	ldw	r2,-4(fp)
 1424528:	10800617 	ldw	r2,24(r2)
 142452c:	10c00044 	addi	r3,r2,1
 1424530:	e0bfff17 	ldw	r2,-4(fp)
 1424534:	10c00615 	stw	r3,24(r2)
 1424538:	e0bfff17 	ldw	r2,-4(fp)
 142453c:	10800617 	ldw	r2,24(r2)
 1424540:	10800003 	ldbu	r2,0(r2)
 1424544:	10803fcc 	andi	r2,r2,255
 1424548:	1080201c 	xori	r2,r2,128
 142454c:	10bfe004 	addi	r2,r2,-128
 1424550:	10800b98 	cmpnei	r2,r2,46
 1424554:	10000f1e 	bne	r2,zero,1424594 <_ZN5Rtttl15parse_next_noteEv+0x2bc>
 1424558:	e0bfff17 	ldw	r2,-4(fp)
 142455c:	10c00517 	ldw	r3,20(r2)
 1424560:	e0bfff17 	ldw	r2,-4(fp)
 1424564:	10800517 	ldw	r2,20(r2)
 1424568:	1008d7fa 	srli	r4,r2,31
 142456c:	2085883a 	add	r2,r4,r2
 1424570:	1005d07a 	srai	r2,r2,1
 1424574:	1887883a 	add	r3,r3,r2
 1424578:	e0bfff17 	ldw	r2,-4(fp)
 142457c:	10c00515 	stw	r3,20(r2)
 1424580:	e0bfff17 	ldw	r2,-4(fp)
 1424584:	10800617 	ldw	r2,24(r2)
 1424588:	10c00044 	addi	r3,r2,1
 142458c:	e0bfff17 	ldw	r2,-4(fp)
 1424590:	10c00615 	stw	r3,24(r2)
 1424594:	e0bfff17 	ldw	r2,-4(fp)
 1424598:	10800617 	ldw	r2,24(r2)
 142459c:	10800003 	ldbu	r2,0(r2)
 14245a0:	10803fcc 	andi	r2,r2,255
 14245a4:	1080201c 	xori	r2,r2,128
 14245a8:	10bfe004 	addi	r2,r2,-128
 14245ac:	100b883a 	mov	r5,r2
 14245b0:	e13fff17 	ldw	r4,-4(fp)
 14245b4:	14247480 	call	1424748 <_ZN5Rtttl8is_digitEc>
 14245b8:	1004c03a 	cmpne	r2,r2,zero
 14245bc:	10803fcc 	andi	r2,r2,255
 14245c0:	10000f26 	beq	r2,zero,1424600 <_ZN5Rtttl15parse_next_noteEv+0x328>
 14245c4:	e0bfff17 	ldw	r2,-4(fp)
 14245c8:	10800617 	ldw	r2,24(r2)
 14245cc:	10800003 	ldbu	r2,0(r2)
 14245d0:	10803fcc 	andi	r2,r2,255
 14245d4:	1080201c 	xori	r2,r2,128
 14245d8:	10bfe004 	addi	r2,r2,-128
 14245dc:	10fff404 	addi	r3,r2,-48
 14245e0:	e0bfff17 	ldw	r2,-4(fp)
 14245e4:	10c00315 	stw	r3,12(r2)
 14245e8:	e0bfff17 	ldw	r2,-4(fp)
 14245ec:	10800617 	ldw	r2,24(r2)
 14245f0:	10c00044 	addi	r3,r2,1
 14245f4:	e0bfff17 	ldw	r2,-4(fp)
 14245f8:	10c00615 	stw	r3,24(r2)
 14245fc:	00000406 	br	1424610 <_ZN5Rtttl15parse_next_noteEv+0x338>
 1424600:	e0bfff17 	ldw	r2,-4(fp)
 1424604:	10c00117 	ldw	r3,4(r2)
 1424608:	e0bfff17 	ldw	r2,-4(fp)
 142460c:	10c00315 	stw	r3,12(r2)
 1424610:	e0bfff17 	ldw	r2,-4(fp)
 1424614:	10800617 	ldw	r2,24(r2)
 1424618:	10800003 	ldbu	r2,0(r2)
 142461c:	10803fcc 	andi	r2,r2,255
 1424620:	1080201c 	xori	r2,r2,128
 1424624:	10bfe004 	addi	r2,r2,-128
 1424628:	10800b18 	cmpnei	r2,r2,44
 142462c:	1000051e 	bne	r2,zero,1424644 <_ZN5Rtttl15parse_next_noteEv+0x36c>
 1424630:	e0bfff17 	ldw	r2,-4(fp)
 1424634:	10800617 	ldw	r2,24(r2)
 1424638:	10c00044 	addi	r3,r2,1
 142463c:	e0bfff17 	ldw	r2,-4(fp)
 1424640:	10c00615 	stw	r3,24(r2)
 1424644:	0005883a 	mov	r2,zero
 1424648:	e037883a 	mov	sp,fp
 142464c:	dfc00117 	ldw	ra,4(sp)
 1424650:	df000017 	ldw	fp,0(sp)
 1424654:	dec00204 	addi	sp,sp,8
 1424658:	f800283a 	ret

0142465c <_ZN5Rtttl8read_octEv>:
 142465c:	defffe04 	addi	sp,sp,-8
 1424660:	df000115 	stw	fp,4(sp)
 1424664:	df000104 	addi	fp,sp,4
 1424668:	e13fff15 	stw	r4,-4(fp)
 142466c:	e0bfff17 	ldw	r2,-4(fp)
 1424670:	10800317 	ldw	r2,12(r2)
 1424674:	e037883a 	mov	sp,fp
 1424678:	df000017 	ldw	fp,0(sp)
 142467c:	dec00104 	addi	sp,sp,4
 1424680:	f800283a 	ret

01424684 <_ZN5Rtttl9read_noteEv>:
 1424684:	defffe04 	addi	sp,sp,-8
 1424688:	df000115 	stw	fp,4(sp)
 142468c:	df000104 	addi	fp,sp,4
 1424690:	e13fff15 	stw	r4,-4(fp)
 1424694:	e0bfff17 	ldw	r2,-4(fp)
 1424698:	10800417 	ldw	r2,16(r2)
 142469c:	e037883a 	mov	sp,fp
 14246a0:	df000017 	ldw	fp,0(sp)
 14246a4:	dec00104 	addi	sp,sp,4
 14246a8:	f800283a 	ret

014246ac <_ZN5Rtttl13read_intervalEv>:
 14246ac:	defffe04 	addi	sp,sp,-8
 14246b0:	df000115 	stw	fp,4(sp)
 14246b4:	df000104 	addi	fp,sp,4
 14246b8:	e13fff15 	stw	r4,-4(fp)
 14246bc:	e0bfff17 	ldw	r2,-4(fp)
 14246c0:	10800517 	ldw	r2,20(r2)
 14246c4:	e037883a 	mov	sp,fp
 14246c8:	df000017 	ldw	fp,0(sp)
 14246cc:	dec00104 	addi	sp,sp,4
 14246d0:	f800283a 	ret

014246d4 <_ZN5Rtttl6is_endEv>:
 14246d4:	defffe04 	addi	sp,sp,-8
 14246d8:	df000115 	stw	fp,4(sp)
 14246dc:	df000104 	addi	fp,sp,4
 14246e0:	e13fff15 	stw	r4,-4(fp)
 14246e4:	e0bfff17 	ldw	r2,-4(fp)
 14246e8:	10800617 	ldw	r2,24(r2)
 14246ec:	10800003 	ldbu	r2,0(r2)
 14246f0:	10803fcc 	andi	r2,r2,255
 14246f4:	1080201c 	xori	r2,r2,128
 14246f8:	10bfe004 	addi	r2,r2,-128
 14246fc:	1005003a 	cmpeq	r2,r2,zero
 1424700:	10803fcc 	andi	r2,r2,255
 1424704:	e037883a 	mov	sp,fp
 1424708:	df000017 	ldw	fp,0(sp)
 142470c:	dec00104 	addi	sp,sp,4
 1424710:	f800283a 	ret

01424714 <_ZN5Rtttl6rewindEv>:
 1424714:	defffe04 	addi	sp,sp,-8
 1424718:	df000115 	stw	fp,4(sp)
 142471c:	df000104 	addi	fp,sp,4
 1424720:	e13fff15 	stw	r4,-4(fp)
 1424724:	e0bfff17 	ldw	r2,-4(fp)
 1424728:	10c00717 	ldw	r3,28(r2)
 142472c:	e0bfff17 	ldw	r2,-4(fp)
 1424730:	10c00615 	stw	r3,24(r2)
 1424734:	0001883a 	nop
 1424738:	e037883a 	mov	sp,fp
 142473c:	df000017 	ldw	fp,0(sp)
 1424740:	dec00104 	addi	sp,sp,4
 1424744:	f800283a 	ret

01424748 <_ZN5Rtttl8is_digitEc>:
 1424748:	defffd04 	addi	sp,sp,-12
 142474c:	df000215 	stw	fp,8(sp)
 1424750:	df000204 	addi	fp,sp,8
 1424754:	e13ffe15 	stw	r4,-8(fp)
 1424758:	2805883a 	mov	r2,r5
 142475c:	e0bfff05 	stb	r2,-4(fp)
 1424760:	e0bfff07 	ldb	r2,-4(fp)
 1424764:	10800c10 	cmplti	r2,r2,48
 1424768:	1000051e 	bne	r2,zero,1424780 <_ZN5Rtttl8is_digitEc+0x38>
 142476c:	e0bfff07 	ldb	r2,-4(fp)
 1424770:	10800e88 	cmpgei	r2,r2,58
 1424774:	1000021e 	bne	r2,zero,1424780 <_ZN5Rtttl8is_digitEc+0x38>
 1424778:	00800044 	movi	r2,1
 142477c:	00000106 	br	1424784 <_ZN5Rtttl8is_digitEc+0x3c>
 1424780:	0005883a 	mov	r2,zero
 1424784:	e037883a 	mov	sp,fp
 1424788:	df000017 	ldw	fp,0(sp)
 142478c:	dec00104 	addi	sp,sp,4
 1424790:	f800283a 	ret

01424794 <_ZN8SsegCoreC1Emi>:
 1424794:	defff904 	addi	sp,sp,-28
 1424798:	dfc00615 	stw	ra,24(sp)
 142479c:	df000515 	stw	fp,20(sp)
 14247a0:	df000504 	addi	fp,sp,20
 14247a4:	e13ffd15 	stw	r4,-12(fp)
 14247a8:	e17ffe15 	stw	r5,-8(fp)
 14247ac:	e1bfff15 	stw	r6,-4(fp)
 14247b0:	00bfffc4 	movi	r2,-1
 14247b4:	e0bffb05 	stb	r2,-20(fp)
 14247b8:	00bffe44 	movi	r2,-7
 14247bc:	e0bffb45 	stb	r2,-19(fp)
 14247c0:	00bfe244 	movi	r2,-119
 14247c4:	e0bffb85 	stb	r2,-18(fp)
 14247c8:	00bfffc4 	movi	r2,-1
 14247cc:	e0bffbc5 	stb	r2,-17(fp)
 14247d0:	00bfffc4 	movi	r2,-1
 14247d4:	e0bffc05 	stb	r2,-16(fp)
 14247d8:	00bfffc4 	movi	r2,-1
 14247dc:	e0bffc45 	stb	r2,-15(fp)
 14247e0:	00bfffc4 	movi	r2,-1
 14247e4:	e0bffc85 	stb	r2,-14(fp)
 14247e8:	00bfffc4 	movi	r2,-1
 14247ec:	e0bffcc5 	stb	r2,-13(fp)
 14247f0:	e0bffd17 	ldw	r2,-12(fp)
 14247f4:	e0fffe17 	ldw	r3,-8(fp)
 14247f8:	10c00015 	stw	r3,0(r2)
 14247fc:	e0bfff17 	ldw	r2,-4(fp)
 1424800:	1007883a 	mov	r3,r2
 1424804:	e0bffd17 	ldw	r2,-12(fp)
 1424808:	10c00345 	stb	r3,13(r2)
 142480c:	e17ffb04 	addi	r5,fp,-20
 1424810:	e13ffd17 	ldw	r4,-12(fp)
 1424814:	1424a7c0 	call	1424a7c <_ZN8SsegCore10write_8ptnEPh>
 1424818:	01400084 	movi	r5,2
 142481c:	e13ffd17 	ldw	r4,-12(fp)
 1424820:	1424b540 	call	1424b54 <_ZN8SsegCore6set_dpEh>
 1424824:	01402004 	movi	r5,128
 1424828:	e13ffd17 	ldw	r4,-12(fp)
 142482c:	1424ba40 	call	1424ba4 <_ZN8SsegCore14set_brightnessEh>
 1424830:	0001883a 	nop
 1424834:	e037883a 	mov	sp,fp
 1424838:	dfc00117 	ldw	ra,4(sp)
 142483c:	df000017 	ldw	fp,0(sp)
 1424840:	dec00204 	addi	sp,sp,8
 1424844:	f800283a 	ret

01424848 <_ZN8SsegCoreD1Ev>:
 1424848:	defffe04 	addi	sp,sp,-8
 142484c:	df000115 	stw	fp,4(sp)
 1424850:	df000104 	addi	fp,sp,4
 1424854:	e13fff15 	stw	r4,-4(fp)
 1424858:	0001883a 	nop
 142485c:	e037883a 	mov	sp,fp
 1424860:	df000017 	ldw	fp,0(sp)
 1424864:	dec00104 	addi	sp,sp,4
 1424868:	f800283a 	ret

0142486c <_ZN8SsegCore9write_ledEv>:
 142486c:	defffb04 	addi	sp,sp,-20
 1424870:	df000415 	stw	fp,16(sp)
 1424874:	df000404 	addi	fp,sp,16
 1424878:	e13fff15 	stw	r4,-4(fp)
 142487c:	e03ffd15 	stw	zero,-12(fp)
 1424880:	e03ffc15 	stw	zero,-16(fp)
 1424884:	e0bffc17 	ldw	r2,-16(fp)
 1424888:	10800108 	cmpgei	r2,r2,4
 142488c:	1000101e 	bne	r2,zero,14248d0 <_ZN8SsegCore9write_ledEv+0x64>
 1424890:	e0bffd17 	ldw	r2,-12(fp)
 1424894:	1006923a 	slli	r3,r2,8
 1424898:	010000c4 	movi	r4,3
 142489c:	e0bffc17 	ldw	r2,-16(fp)
 14248a0:	2085c83a 	sub	r2,r4,r2
 14248a4:	e13fff17 	ldw	r4,-4(fp)
 14248a8:	2085883a 	add	r2,r4,r2
 14248ac:	10800104 	addi	r2,r2,4
 14248b0:	10800003 	ldbu	r2,0(r2)
 14248b4:	10803fcc 	andi	r2,r2,255
 14248b8:	1884b03a 	or	r2,r3,r2
 14248bc:	e0bffd15 	stw	r2,-12(fp)
 14248c0:	e0bffc17 	ldw	r2,-16(fp)
 14248c4:	10800044 	addi	r2,r2,1
 14248c8:	e0bffc15 	stw	r2,-16(fp)
 14248cc:	003fed06 	br	1424884 <__alt_data_end+0xfffe4884>
 14248d0:	e03ffc15 	stw	zero,-16(fp)
 14248d4:	e0bffc17 	ldw	r2,-16(fp)
 14248d8:	10800108 	cmpgei	r2,r2,4
 14248dc:	10001f1e 	bne	r2,zero,142495c <_ZN8SsegCore9write_ledEv+0xf0>
 14248e0:	e0bfff17 	ldw	r2,-4(fp)
 14248e4:	10800303 	ldbu	r2,12(r2)
 14248e8:	10c03fcc 	andi	r3,r2,255
 14248ec:	e0bffc17 	ldw	r2,-16(fp)
 14248f0:	1885d83a 	sra	r2,r3,r2
 14248f4:	1080004c 	andi	r2,r2,1
 14248f8:	e0bffe15 	stw	r2,-8(fp)
 14248fc:	e0bffe17 	ldw	r2,-8(fp)
 1424900:	10000926 	beq	r2,zero,1424928 <_ZN8SsegCore9write_ledEv+0xbc>
 1424904:	e0bffc17 	ldw	r2,-16(fp)
 1424908:	100490fa 	slli	r2,r2,3
 142490c:	108001c4 	addi	r2,r2,7
 1424910:	00c00044 	movi	r3,1
 1424914:	1884983a 	sll	r2,r3,r2
 1424918:	e0fffd17 	ldw	r3,-12(fp)
 142491c:	1884b03a 	or	r2,r3,r2
 1424920:	e0bffd15 	stw	r2,-12(fp)
 1424924:	00000906 	br	142494c <_ZN8SsegCore9write_ledEv+0xe0>
 1424928:	e0bffc17 	ldw	r2,-16(fp)
 142492c:	100490fa 	slli	r2,r2,3
 1424930:	108001c4 	addi	r2,r2,7
 1424934:	00c00044 	movi	r3,1
 1424938:	1884983a 	sll	r2,r3,r2
 142493c:	0084303a 	nor	r2,zero,r2
 1424940:	e0fffd17 	ldw	r3,-12(fp)
 1424944:	1884703a 	and	r2,r3,r2
 1424948:	e0bffd15 	stw	r2,-12(fp)
 142494c:	e0bffc17 	ldw	r2,-16(fp)
 1424950:	10800044 	addi	r2,r2,1
 1424954:	e0bffc15 	stw	r2,-16(fp)
 1424958:	003fde06 	br	14248d4 <__alt_data_end+0xfffe48d4>
 142495c:	e0bfff17 	ldw	r2,-4(fp)
 1424960:	10800017 	ldw	r2,0(r2)
 1424964:	1007883a 	mov	r3,r2
 1424968:	e0bffd17 	ldw	r2,-12(fp)
 142496c:	18800015 	stw	r2,0(r3)
 1424970:	e03ffc15 	stw	zero,-16(fp)
 1424974:	e0bffc17 	ldw	r2,-16(fp)
 1424978:	10800108 	cmpgei	r2,r2,4
 142497c:	1000101e 	bne	r2,zero,14249c0 <_ZN8SsegCore9write_ledEv+0x154>
 1424980:	e0bffd17 	ldw	r2,-12(fp)
 1424984:	1006923a 	slli	r3,r2,8
 1424988:	010001c4 	movi	r4,7
 142498c:	e0bffc17 	ldw	r2,-16(fp)
 1424990:	2085c83a 	sub	r2,r4,r2
 1424994:	e13fff17 	ldw	r4,-4(fp)
 1424998:	2085883a 	add	r2,r4,r2
 142499c:	10800104 	addi	r2,r2,4
 14249a0:	10800003 	ldbu	r2,0(r2)
 14249a4:	10803fcc 	andi	r2,r2,255
 14249a8:	1884b03a 	or	r2,r3,r2
 14249ac:	e0bffd15 	stw	r2,-12(fp)
 14249b0:	e0bffc17 	ldw	r2,-16(fp)
 14249b4:	10800044 	addi	r2,r2,1
 14249b8:	e0bffc15 	stw	r2,-16(fp)
 14249bc:	003fed06 	br	1424974 <__alt_data_end+0xfffe4974>
 14249c0:	e03ffc15 	stw	zero,-16(fp)
 14249c4:	e0bffc17 	ldw	r2,-16(fp)
 14249c8:	10800108 	cmpgei	r2,r2,4
 14249cc:	1000201e 	bne	r2,zero,1424a50 <_ZN8SsegCore9write_ledEv+0x1e4>
 14249d0:	e0bfff17 	ldw	r2,-4(fp)
 14249d4:	10800303 	ldbu	r2,12(r2)
 14249d8:	10c03fcc 	andi	r3,r2,255
 14249dc:	e0bffc17 	ldw	r2,-16(fp)
 14249e0:	10800104 	addi	r2,r2,4
 14249e4:	1885d83a 	sra	r2,r3,r2
 14249e8:	1080004c 	andi	r2,r2,1
 14249ec:	e0bffe15 	stw	r2,-8(fp)
 14249f0:	e0bffe17 	ldw	r2,-8(fp)
 14249f4:	10000926 	beq	r2,zero,1424a1c <_ZN8SsegCore9write_ledEv+0x1b0>
 14249f8:	e0bffc17 	ldw	r2,-16(fp)
 14249fc:	100490fa 	slli	r2,r2,3
 1424a00:	108001c4 	addi	r2,r2,7
 1424a04:	00c00044 	movi	r3,1
 1424a08:	1884983a 	sll	r2,r3,r2
 1424a0c:	e0fffd17 	ldw	r3,-12(fp)
 1424a10:	1884b03a 	or	r2,r3,r2
 1424a14:	e0bffd15 	stw	r2,-12(fp)
 1424a18:	00000906 	br	1424a40 <_ZN8SsegCore9write_ledEv+0x1d4>
 1424a1c:	e0bffc17 	ldw	r2,-16(fp)
 1424a20:	100490fa 	slli	r2,r2,3
 1424a24:	108001c4 	addi	r2,r2,7
 1424a28:	00c00044 	movi	r3,1
 1424a2c:	1884983a 	sll	r2,r3,r2
 1424a30:	0084303a 	nor	r2,zero,r2
 1424a34:	e0fffd17 	ldw	r3,-12(fp)
 1424a38:	1884703a 	and	r2,r3,r2
 1424a3c:	e0bffd15 	stw	r2,-12(fp)
 1424a40:	e0bffc17 	ldw	r2,-16(fp)
 1424a44:	10800044 	addi	r2,r2,1
 1424a48:	e0bffc15 	stw	r2,-16(fp)
 1424a4c:	003fdd06 	br	14249c4 <__alt_data_end+0xfffe49c4>
 1424a50:	e0bfff17 	ldw	r2,-4(fp)
 1424a54:	10800017 	ldw	r2,0(r2)
 1424a58:	10800104 	addi	r2,r2,4
 1424a5c:	1007883a 	mov	r3,r2
 1424a60:	e0bffd17 	ldw	r2,-12(fp)
 1424a64:	18800015 	stw	r2,0(r3)
 1424a68:	0001883a 	nop
 1424a6c:	e037883a 	mov	sp,fp
 1424a70:	df000017 	ldw	fp,0(sp)
 1424a74:	dec00104 	addi	sp,sp,4
 1424a78:	f800283a 	ret

01424a7c <_ZN8SsegCore10write_8ptnEPh>:
 1424a7c:	defffb04 	addi	sp,sp,-20
 1424a80:	dfc00415 	stw	ra,16(sp)
 1424a84:	df000315 	stw	fp,12(sp)
 1424a88:	df000304 	addi	fp,sp,12
 1424a8c:	e13ffe15 	stw	r4,-8(fp)
 1424a90:	e17fff15 	stw	r5,-4(fp)
 1424a94:	e03ffd15 	stw	zero,-12(fp)
 1424a98:	e0bffd17 	ldw	r2,-12(fp)
 1424a9c:	10800208 	cmpgei	r2,r2,8
 1424aa0:	10000e1e 	bne	r2,zero,1424adc <_ZN8SsegCore10write_8ptnEPh+0x60>
 1424aa4:	e0bfff17 	ldw	r2,-4(fp)
 1424aa8:	10c00003 	ldbu	r3,0(r2)
 1424aac:	e13ffe17 	ldw	r4,-8(fp)
 1424ab0:	e0bffd17 	ldw	r2,-12(fp)
 1424ab4:	2085883a 	add	r2,r4,r2
 1424ab8:	10800104 	addi	r2,r2,4
 1424abc:	10c00005 	stb	r3,0(r2)
 1424ac0:	e0bfff17 	ldw	r2,-4(fp)
 1424ac4:	10800044 	addi	r2,r2,1
 1424ac8:	e0bfff15 	stw	r2,-4(fp)
 1424acc:	e0bffd17 	ldw	r2,-12(fp)
 1424ad0:	10800044 	addi	r2,r2,1
 1424ad4:	e0bffd15 	stw	r2,-12(fp)
 1424ad8:	003fef06 	br	1424a98 <__alt_data_end+0xfffe4a98>
 1424adc:	e13ffe17 	ldw	r4,-8(fp)
 1424ae0:	142486c0 	call	142486c <_ZN8SsegCore9write_ledEv>
 1424ae4:	0001883a 	nop
 1424ae8:	e037883a 	mov	sp,fp
 1424aec:	dfc00117 	ldw	ra,4(sp)
 1424af0:	df000017 	ldw	fp,0(sp)
 1424af4:	dec00204 	addi	sp,sp,8
 1424af8:	f800283a 	ret

01424afc <_ZN8SsegCore10write_1ptnEhi>:
 1424afc:	defffb04 	addi	sp,sp,-20
 1424b00:	dfc00415 	stw	ra,16(sp)
 1424b04:	df000315 	stw	fp,12(sp)
 1424b08:	df000304 	addi	fp,sp,12
 1424b0c:	e13ffd15 	stw	r4,-12(fp)
 1424b10:	2805883a 	mov	r2,r5
 1424b14:	e1bfff15 	stw	r6,-4(fp)
 1424b18:	e0bffe05 	stb	r2,-8(fp)
 1424b1c:	e0fffd17 	ldw	r3,-12(fp)
 1424b20:	e0bfff17 	ldw	r2,-4(fp)
 1424b24:	1885883a 	add	r2,r3,r2
 1424b28:	10800104 	addi	r2,r2,4
 1424b2c:	e0fffe03 	ldbu	r3,-8(fp)
 1424b30:	10c00005 	stb	r3,0(r2)
 1424b34:	e13ffd17 	ldw	r4,-12(fp)
 1424b38:	142486c0 	call	142486c <_ZN8SsegCore9write_ledEv>
 1424b3c:	0001883a 	nop
 1424b40:	e037883a 	mov	sp,fp
 1424b44:	dfc00117 	ldw	ra,4(sp)
 1424b48:	df000017 	ldw	fp,0(sp)
 1424b4c:	dec00204 	addi	sp,sp,8
 1424b50:	f800283a 	ret

01424b54 <_ZN8SsegCore6set_dpEh>:
 1424b54:	defffc04 	addi	sp,sp,-16
 1424b58:	dfc00315 	stw	ra,12(sp)
 1424b5c:	df000215 	stw	fp,8(sp)
 1424b60:	df000204 	addi	fp,sp,8
 1424b64:	e13ffe15 	stw	r4,-8(fp)
 1424b68:	2805883a 	mov	r2,r5
 1424b6c:	e0bfff05 	stb	r2,-4(fp)
 1424b70:	e0bfff03 	ldbu	r2,-4(fp)
 1424b74:	0084303a 	nor	r2,zero,r2
 1424b78:	1007883a 	mov	r3,r2
 1424b7c:	e0bffe17 	ldw	r2,-8(fp)
 1424b80:	10c00305 	stb	r3,12(r2)
 1424b84:	e13ffe17 	ldw	r4,-8(fp)
 1424b88:	142486c0 	call	142486c <_ZN8SsegCore9write_ledEv>
 1424b8c:	0001883a 	nop
 1424b90:	e037883a 	mov	sp,fp
 1424b94:	dfc00117 	ldw	ra,4(sp)
 1424b98:	df000017 	ldw	fp,0(sp)
 1424b9c:	dec00204 	addi	sp,sp,8
 1424ba0:	f800283a 	ret

01424ba4 <_ZN8SsegCore14set_brightnessEh>:
 1424ba4:	defffd04 	addi	sp,sp,-12
 1424ba8:	df000215 	stw	fp,8(sp)
 1424bac:	df000204 	addi	fp,sp,8
 1424bb0:	e13ffe15 	stw	r4,-8(fp)
 1424bb4:	2805883a 	mov	r2,r5
 1424bb8:	e0bfff05 	stb	r2,-4(fp)
 1424bbc:	e0bffe17 	ldw	r2,-8(fp)
 1424bc0:	10800017 	ldw	r2,0(r2)
 1424bc4:	10800204 	addi	r2,r2,8
 1424bc8:	1007883a 	mov	r3,r2
 1424bcc:	e0bfff03 	ldbu	r2,-4(fp)
 1424bd0:	18800015 	stw	r2,0(r3)
 1424bd4:	0001883a 	nop
 1424bd8:	e037883a 	mov	sp,fp
 1424bdc:	df000017 	ldw	fp,0(sp)
 1424be0:	dec00104 	addi	sp,sp,4
 1424be4:	f800283a 	ret

01424be8 <_ZN8SsegCore3h2sEi>:
 1424be8:	defffc04 	addi	sp,sp,-16
 1424bec:	df000315 	stw	fp,12(sp)
 1424bf0:	df000304 	addi	fp,sp,12
 1424bf4:	e13ffe15 	stw	r4,-8(fp)
 1424bf8:	e17fff15 	stw	r5,-4(fp)
 1424bfc:	e0bfff17 	ldw	r2,-4(fp)
 1424c00:	10800408 	cmpgei	r2,r2,16
 1424c04:	1000071e 	bne	r2,zero,1424c24 <_ZN8SsegCore3h2sEi+0x3c>
 1424c08:	008050f4 	movhi	r2,323
 1424c0c:	10b733c4 	addi	r2,r2,-9009
 1424c10:	e0ffff17 	ldw	r3,-4(fp)
 1424c14:	10c5883a 	add	r2,r2,r3
 1424c18:	10800003 	ldbu	r2,0(r2)
 1424c1c:	e0bffd05 	stb	r2,-12(fp)
 1424c20:	00000206 	br	1424c2c <_ZN8SsegCore3h2sEi+0x44>
 1424c24:	00bfffc4 	movi	r2,-1
 1424c28:	e0bffd05 	stb	r2,-12(fp)
 1424c2c:	e0bffd03 	ldbu	r2,-12(fp)
 1424c30:	e037883a 	mov	sp,fp
 1424c34:	df000017 	ldw	fp,0(sp)
 1424c38:	dec00104 	addi	sp,sp,4
 1424c3c:	f800283a 	ret

01424c40 <_ZN8SsegCore6i2ssegEiiiiii>:
 1424c40:	defff504 	addi	sp,sp,-44
 1424c44:	dfc00a15 	stw	ra,40(sp)
 1424c48:	df000915 	stw	fp,36(sp)
 1424c4c:	df000904 	addi	fp,sp,36
 1424c50:	e13ffc15 	stw	r4,-16(fp)
 1424c54:	e17ffd15 	stw	r5,-12(fp)
 1424c58:	e1bffe15 	stw	r6,-8(fp)
 1424c5c:	e1ffff15 	stw	r7,-4(fp)
 1424c60:	e0bffe17 	ldw	r2,-8(fp)
 1424c64:	10800298 	cmpnei	r2,r2,10
 1424c68:	10000a1e 	bne	r2,zero,1424c94 <_ZN8SsegCore6i2ssegEiiiiii+0x54>
 1424c6c:	e0800417 	ldw	r2,16(fp)
 1424c70:	10000826 	beq	r2,zero,1424c94 <_ZN8SsegCore6i2ssegEiiiiii+0x54>
 1424c74:	e0bffd17 	ldw	r2,-12(fp)
 1424c78:	1000060e 	bge	r2,zero,1424c94 <_ZN8SsegCore6i2ssegEiiiiii+0x54>
 1424c7c:	e0bffd17 	ldw	r2,-12(fp)
 1424c80:	0085c83a 	sub	r2,zero,r2
 1424c84:	e0bff915 	stw	r2,-28(fp)
 1424c88:	00800fc4 	movi	r2,63
 1424c8c:	e0bffa05 	stb	r2,-24(fp)
 1424c90:	00000406 	br	1424ca4 <_ZN8SsegCore6i2ssegEiiiiii+0x64>
 1424c94:	e0bffd17 	ldw	r2,-12(fp)
 1424c98:	e0bff915 	stw	r2,-28(fp)
 1424c9c:	00bfffc4 	movi	r2,-1
 1424ca0:	e0bffa05 	stb	r2,-24(fp)
 1424ca4:	e03ff715 	stw	zero,-36(fp)
 1424ca8:	e0800217 	ldw	r2,8(fp)
 1424cac:	e0bff815 	stw	r2,-32(fp)
 1424cb0:	e0fffe17 	ldw	r3,-8(fp)
 1424cb4:	e0bff917 	ldw	r2,-28(fp)
 1424cb8:	180b883a 	mov	r5,r3
 1424cbc:	1009883a 	mov	r4,r2
 1424cc0:	142883c0 	call	142883c <__umodsi3>
 1424cc4:	e0bffb15 	stw	r2,-20(fp)
 1424cc8:	e17ffb17 	ldw	r5,-20(fp)
 1424ccc:	e13ffc17 	ldw	r4,-16(fp)
 1424cd0:	1424be80 	call	1424be8 <_ZN8SsegCore3h2sEi>
 1424cd4:	1009883a 	mov	r4,r2
 1424cd8:	e0fffc17 	ldw	r3,-16(fp)
 1424cdc:	e0bff817 	ldw	r2,-32(fp)
 1424ce0:	1885883a 	add	r2,r3,r2
 1424ce4:	10800104 	addi	r2,r2,4
 1424ce8:	11000005 	stb	r4,0(r2)
 1424cec:	e0bffe17 	ldw	r2,-8(fp)
 1424cf0:	100b883a 	mov	r5,r2
 1424cf4:	e13ff917 	ldw	r4,-28(fp)
 1424cf8:	14287d80 	call	14287d8 <__udivsi3>
 1424cfc:	e0bff915 	stw	r2,-28(fp)
 1424d00:	e0bff717 	ldw	r2,-36(fp)
 1424d04:	10800044 	addi	r2,r2,1
 1424d08:	e0bff715 	stw	r2,-36(fp)
 1424d0c:	e0bff817 	ldw	r2,-32(fp)
 1424d10:	10800044 	addi	r2,r2,1
 1424d14:	e0bff815 	stw	r2,-32(fp)
 1424d18:	e0bff917 	ldw	r2,-28(fp)
 1424d1c:	10000a26 	beq	r2,zero,1424d48 <_ZN8SsegCore6i2ssegEiiiiii+0x108>
 1424d20:	e0fff717 	ldw	r3,-36(fp)
 1424d24:	e0bfff17 	ldw	r2,-4(fp)
 1424d28:	1884983a 	sll	r2,r3,r2
 1424d2c:	10000626 	beq	r2,zero,1424d48 <_ZN8SsegCore6i2ssegEiiiiii+0x108>
 1424d30:	e0bffc17 	ldw	r2,-16(fp)
 1424d34:	10800343 	ldbu	r2,13(r2)
 1424d38:	10803fcc 	andi	r2,r2,255
 1424d3c:	e0fff817 	ldw	r3,-32(fp)
 1424d40:	1880010e 	bge	r3,r2,1424d48 <_ZN8SsegCore6i2ssegEiiiiii+0x108>
 1424d44:	003fda06 	br	1424cb0 <__alt_data_end+0xfffe4cb0>
 1424d48:	e0fff717 	ldw	r3,-36(fp)
 1424d4c:	e0bfff17 	ldw	r2,-4(fp)
 1424d50:	1880130e 	bge	r3,r2,1424da0 <_ZN8SsegCore6i2ssegEiiiiii+0x160>
 1424d54:	e0800317 	ldw	r2,12(fp)
 1424d58:	10000426 	beq	r2,zero,1424d6c <_ZN8SsegCore6i2ssegEiiiiii+0x12c>
 1424d5c:	000b883a 	mov	r5,zero
 1424d60:	e13ffc17 	ldw	r4,-16(fp)
 1424d64:	1424be80 	call	1424be8 <_ZN8SsegCore3h2sEi>
 1424d68:	00000106 	br	1424d70 <_ZN8SsegCore6i2ssegEiiiiii+0x130>
 1424d6c:	00bfffc4 	movi	r2,-1
 1424d70:	e13ffc17 	ldw	r4,-16(fp)
 1424d74:	e0fff817 	ldw	r3,-32(fp)
 1424d78:	20c7883a 	add	r3,r4,r3
 1424d7c:	18c00104 	addi	r3,r3,4
 1424d80:	18800005 	stb	r2,0(r3)
 1424d84:	e0bff717 	ldw	r2,-36(fp)
 1424d88:	10800044 	addi	r2,r2,1
 1424d8c:	e0bff715 	stw	r2,-36(fp)
 1424d90:	e0bff817 	ldw	r2,-32(fp)
 1424d94:	10800044 	addi	r2,r2,1
 1424d98:	e0bff815 	stw	r2,-32(fp)
 1424d9c:	003fea06 	br	1424d48 <__alt_data_end+0xfffe4d48>
 1424da0:	e0800417 	ldw	r2,16(fp)
 1424da4:	10000726 	beq	r2,zero,1424dc4 <_ZN8SsegCore6i2ssegEiiiiii+0x184>
 1424da8:	e0bfff17 	ldw	r2,-4(fp)
 1424dac:	10bfffc4 	addi	r2,r2,-1
 1424db0:	e0fffc17 	ldw	r3,-16(fp)
 1424db4:	1885883a 	add	r2,r3,r2
 1424db8:	10800104 	addi	r2,r2,4
 1424dbc:	e0fffa03 	ldbu	r3,-24(fp)
 1424dc0:	10c00005 	stb	r3,0(r2)
 1424dc4:	e13ffc17 	ldw	r4,-16(fp)
 1424dc8:	142486c0 	call	142486c <_ZN8SsegCore9write_ledEv>
 1424dcc:	0001883a 	nop
 1424dd0:	e037883a 	mov	sp,fp
 1424dd4:	dfc00117 	ldw	ra,4(sp)
 1424dd8:	df000017 	ldw	fp,0(sp)
 1424ddc:	dec00204 	addi	sp,sp,8
 1424de0:	f800283a 	ret

01424de4 <_ZN9TimerCoreC1Em>:
 1424de4:	defffc04 	addi	sp,sp,-16
 1424de8:	dfc00315 	stw	ra,12(sp)
 1424dec:	df000215 	stw	fp,8(sp)
 1424df0:	df000204 	addi	fp,sp,8
 1424df4:	e13ffe15 	stw	r4,-8(fp)
 1424df8:	e17fff15 	stw	r5,-4(fp)
 1424dfc:	e0bffe17 	ldw	r2,-8(fp)
 1424e00:	e0ffff17 	ldw	r3,-4(fp)
 1424e04:	10c00015 	stw	r3,0(r2)
 1424e08:	e0bffe17 	ldw	r2,-8(fp)
 1424e0c:	00c00044 	movi	r3,1
 1424e10:	10c00115 	stw	r3,4(r2)
 1424e14:	e13ffe17 	ldw	r4,-8(fp)
 1424e18:	1424f200 	call	1424f20 <_ZN9TimerCore5clearEv>
 1424e1c:	e0bffe17 	ldw	r2,-8(fp)
 1424e20:	10800017 	ldw	r2,0(r2)
 1424e24:	10800204 	addi	r2,r2,8
 1424e28:	1007883a 	mov	r3,r2
 1424e2c:	e0bffe17 	ldw	r2,-8(fp)
 1424e30:	10800117 	ldw	r2,4(r2)
 1424e34:	18800015 	stw	r2,0(r3)
 1424e38:	0001883a 	nop
 1424e3c:	e037883a 	mov	sp,fp
 1424e40:	dfc00117 	ldw	ra,4(sp)
 1424e44:	df000017 	ldw	fp,0(sp)
 1424e48:	dec00204 	addi	sp,sp,8
 1424e4c:	f800283a 	ret

01424e50 <_ZN9TimerCoreD1Ev>:
 1424e50:	defffe04 	addi	sp,sp,-8
 1424e54:	df000115 	stw	fp,4(sp)
 1424e58:	df000104 	addi	fp,sp,4
 1424e5c:	e13fff15 	stw	r4,-4(fp)
 1424e60:	0001883a 	nop
 1424e64:	e037883a 	mov	sp,fp
 1424e68:	df000017 	ldw	fp,0(sp)
 1424e6c:	dec00104 	addi	sp,sp,4
 1424e70:	f800283a 	ret

01424e74 <_ZN9TimerCore5pauseEv>:
 1424e74:	defffe04 	addi	sp,sp,-8
 1424e78:	df000115 	stw	fp,4(sp)
 1424e7c:	df000104 	addi	fp,sp,4
 1424e80:	e13fff15 	stw	r4,-4(fp)
 1424e84:	e0bfff17 	ldw	r2,-4(fp)
 1424e88:	10c00117 	ldw	r3,4(r2)
 1424e8c:	00bfff84 	movi	r2,-2
 1424e90:	1886703a 	and	r3,r3,r2
 1424e94:	e0bfff17 	ldw	r2,-4(fp)
 1424e98:	10c00115 	stw	r3,4(r2)
 1424e9c:	e0bfff17 	ldw	r2,-4(fp)
 1424ea0:	10800017 	ldw	r2,0(r2)
 1424ea4:	10800204 	addi	r2,r2,8
 1424ea8:	1007883a 	mov	r3,r2
 1424eac:	e0bfff17 	ldw	r2,-4(fp)
 1424eb0:	10800117 	ldw	r2,4(r2)
 1424eb4:	18800015 	stw	r2,0(r3)
 1424eb8:	0001883a 	nop
 1424ebc:	e037883a 	mov	sp,fp
 1424ec0:	df000017 	ldw	fp,0(sp)
 1424ec4:	dec00104 	addi	sp,sp,4
 1424ec8:	f800283a 	ret

01424ecc <_ZN9TimerCore2goEv>:
 1424ecc:	defffe04 	addi	sp,sp,-8
 1424ed0:	df000115 	stw	fp,4(sp)
 1424ed4:	df000104 	addi	fp,sp,4
 1424ed8:	e13fff15 	stw	r4,-4(fp)
 1424edc:	e0bfff17 	ldw	r2,-4(fp)
 1424ee0:	10800117 	ldw	r2,4(r2)
 1424ee4:	10c00054 	ori	r3,r2,1
 1424ee8:	e0bfff17 	ldw	r2,-4(fp)
 1424eec:	10c00115 	stw	r3,4(r2)
 1424ef0:	e0bfff17 	ldw	r2,-4(fp)
 1424ef4:	10800017 	ldw	r2,0(r2)
 1424ef8:	10800204 	addi	r2,r2,8
 1424efc:	1007883a 	mov	r3,r2
 1424f00:	e0bfff17 	ldw	r2,-4(fp)
 1424f04:	10800117 	ldw	r2,4(r2)
 1424f08:	18800015 	stw	r2,0(r3)
 1424f0c:	0001883a 	nop
 1424f10:	e037883a 	mov	sp,fp
 1424f14:	df000017 	ldw	fp,0(sp)
 1424f18:	dec00104 	addi	sp,sp,4
 1424f1c:	f800283a 	ret

01424f20 <_ZN9TimerCore5clearEv>:
 1424f20:	defffd04 	addi	sp,sp,-12
 1424f24:	df000215 	stw	fp,8(sp)
 1424f28:	df000204 	addi	fp,sp,8
 1424f2c:	e13fff15 	stw	r4,-4(fp)
 1424f30:	e0bfff17 	ldw	r2,-4(fp)
 1424f34:	10800117 	ldw	r2,4(r2)
 1424f38:	10800094 	ori	r2,r2,2
 1424f3c:	e0bffe15 	stw	r2,-8(fp)
 1424f40:	e0bfff17 	ldw	r2,-4(fp)
 1424f44:	10800017 	ldw	r2,0(r2)
 1424f48:	10800204 	addi	r2,r2,8
 1424f4c:	1007883a 	mov	r3,r2
 1424f50:	e0bffe17 	ldw	r2,-8(fp)
 1424f54:	18800015 	stw	r2,0(r3)
 1424f58:	0001883a 	nop
 1424f5c:	e037883a 	mov	sp,fp
 1424f60:	df000017 	ldw	fp,0(sp)
 1424f64:	dec00104 	addi	sp,sp,4
 1424f68:	f800283a 	ret

01424f6c <_ZN9TimerCore9read_tickEv>:
 1424f6c:	defffa04 	addi	sp,sp,-24
 1424f70:	df000515 	stw	fp,20(sp)
 1424f74:	df000504 	addi	fp,sp,20
 1424f78:	e13fff15 	stw	r4,-4(fp)
 1424f7c:	e13fff17 	ldw	r4,-4(fp)
 1424f80:	21000017 	ldw	r4,0(r4)
 1424f84:	21000017 	ldw	r4,0(r4)
 1424f88:	e13ffb15 	stw	r4,-20(fp)
 1424f8c:	e03ffc15 	stw	zero,-16(fp)
 1424f90:	e13fff17 	ldw	r4,-4(fp)
 1424f94:	21000017 	ldw	r4,0(r4)
 1424f98:	21000104 	addi	r4,r4,4
 1424f9c:	21000017 	ldw	r4,0(r4)
 1424fa0:	e13ffd15 	stw	r4,-12(fp)
 1424fa4:	e03ffe15 	stw	zero,-8(fp)
 1424fa8:	e13ffd17 	ldw	r4,-12(fp)
 1424fac:	2006983a 	sll	r3,r4,zero
 1424fb0:	0005883a 	mov	r2,zero
 1424fb4:	e13ffb17 	ldw	r4,-20(fp)
 1424fb8:	208ab03a 	or	r5,r4,r2
 1424fbc:	e13ffc17 	ldw	r4,-16(fp)
 1424fc0:	20ccb03a 	or	r6,r4,r3
 1424fc4:	2807883a 	mov	r3,r5
 1424fc8:	3009883a 	mov	r4,r6
 1424fcc:	1805883a 	mov	r2,r3
 1424fd0:	2007883a 	mov	r3,r4
 1424fd4:	e037883a 	mov	sp,fp
 1424fd8:	df000017 	ldw	fp,0(sp)
 1424fdc:	dec00104 	addi	sp,sp,4
 1424fe0:	f800283a 	ret

01424fe4 <_ZN9TimerCore9read_timeEv>:
 1424fe4:	defffd04 	addi	sp,sp,-12
 1424fe8:	dfc00215 	stw	ra,8(sp)
 1424fec:	df000115 	stw	fp,4(sp)
 1424ff0:	df000104 	addi	fp,sp,4
 1424ff4:	e13fff15 	stw	r4,-4(fp)
 1424ff8:	e13fff17 	ldw	r4,-4(fp)
 1424ffc:	1424f6c0 	call	1424f6c <_ZN9TimerCore9read_tickEv>
 1425000:	1011883a 	mov	r8,r2
 1425004:	1813883a 	mov	r9,r3
 1425008:	01800c84 	movi	r6,50
 142500c:	000f883a 	mov	r7,zero
 1425010:	4009883a 	mov	r4,r8
 1425014:	480b883a 	mov	r5,r9
 1425018:	1427b200 	call	1427b20 <__udivdi3>
 142501c:	100f883a 	mov	r7,r2
 1425020:	1811883a 	mov	r8,r3
 1425024:	380b883a 	mov	r5,r7
 1425028:	400d883a 	mov	r6,r8
 142502c:	2807883a 	mov	r3,r5
 1425030:	3009883a 	mov	r4,r6
 1425034:	1805883a 	mov	r2,r3
 1425038:	2007883a 	mov	r3,r4
 142503c:	e037883a 	mov	sp,fp
 1425040:	dfc00117 	ldw	ra,4(sp)
 1425044:	df000017 	ldw	fp,0(sp)
 1425048:	dec00204 	addi	sp,sp,8
 142504c:	f800283a 	ret

01425050 <_ZN9TimerCore5sleepEy>:
 1425050:	defff704 	addi	sp,sp,-36
 1425054:	dfc00815 	stw	ra,32(sp)
 1425058:	df000715 	stw	fp,28(sp)
 142505c:	df000704 	addi	fp,sp,28
 1425060:	e13ffd15 	stw	r4,-12(fp)
 1425064:	e17ffe15 	stw	r5,-8(fp)
 1425068:	e1bfff15 	stw	r6,-4(fp)
 142506c:	e13ffd17 	ldw	r4,-12(fp)
 1425070:	1424fe40 	call	1424fe4 <_ZN9TimerCore9read_timeEv>
 1425074:	e0bff915 	stw	r2,-28(fp)
 1425078:	e0fffa15 	stw	r3,-24(fp)
 142507c:	e13ffd17 	ldw	r4,-12(fp)
 1425080:	1424fe40 	call	1424fe4 <_ZN9TimerCore9read_timeEv>
 1425084:	e0bffb15 	stw	r2,-20(fp)
 1425088:	e0fffc15 	stw	r3,-16(fp)
 142508c:	e13ffb17 	ldw	r4,-20(fp)
 1425090:	e17ffc17 	ldw	r5,-16(fp)
 1425094:	e1bff917 	ldw	r6,-28(fp)
 1425098:	e1fffa17 	ldw	r7,-24(fp)
 142509c:	2185c83a 	sub	r2,r4,r6
 14250a0:	2091803a 	cmpltu	r8,r4,r2
 14250a4:	29c7c83a 	sub	r3,r5,r7
 14250a8:	1a09c83a 	sub	r4,r3,r8
 14250ac:	2007883a 	mov	r3,r4
 14250b0:	1009883a 	mov	r4,r2
 14250b4:	180b883a 	mov	r5,r3
 14250b8:	e0bfff17 	ldw	r2,-4(fp)
 14250bc:	28bfef36 	bltu	r5,r2,142507c <__alt_data_end+0xfffe507c>
 14250c0:	e0bfff17 	ldw	r2,-4(fp)
 14250c4:	1140021e 	bne	r2,r5,14250d0 <_ZN9TimerCore5sleepEy+0x80>
 14250c8:	e0bffe17 	ldw	r2,-8(fp)
 14250cc:	20bfeb36 	bltu	r4,r2,142507c <__alt_data_end+0xfffe507c>
 14250d0:	0001883a 	nop
 14250d4:	e037883a 	mov	sp,fp
 14250d8:	dfc00117 	ldw	ra,4(sp)
 14250dc:	df000017 	ldw	fp,0(sp)
 14250e0:	dec00204 	addi	sp,sp,8
 14250e4:	f800283a 	ret

014250e8 <_ZN8UartCoreC1Em>:
 14250e8:	defffc04 	addi	sp,sp,-16
 14250ec:	dfc00315 	stw	ra,12(sp)
 14250f0:	df000215 	stw	fp,8(sp)
 14250f4:	df000204 	addi	fp,sp,8
 14250f8:	e13ffe15 	stw	r4,-8(fp)
 14250fc:	e17fff15 	stw	r5,-4(fp)
 1425100:	e0bffe17 	ldw	r2,-8(fp)
 1425104:	e0ffff17 	ldw	r3,-4(fp)
 1425108:	10c00015 	stw	r3,0(r2)
 142510c:	01496004 	movi	r5,9600
 1425110:	e13ffe17 	ldw	r4,-8(fp)
 1425114:	14251540 	call	1425154 <_ZN8UartCore13set_baud_rateEi>
 1425118:	0001883a 	nop
 142511c:	e037883a 	mov	sp,fp
 1425120:	dfc00117 	ldw	ra,4(sp)
 1425124:	df000017 	ldw	fp,0(sp)
 1425128:	dec00204 	addi	sp,sp,8
 142512c:	f800283a 	ret

01425130 <_ZN8UartCoreD1Ev>:
 1425130:	defffe04 	addi	sp,sp,-8
 1425134:	df000115 	stw	fp,4(sp)
 1425138:	df000104 	addi	fp,sp,4
 142513c:	e13fff15 	stw	r4,-4(fp)
 1425140:	0001883a 	nop
 1425144:	e037883a 	mov	sp,fp
 1425148:	df000017 	ldw	fp,0(sp)
 142514c:	dec00104 	addi	sp,sp,4
 1425150:	f800283a 	ret

01425154 <_ZN8UartCore13set_baud_rateEi>:
 1425154:	defffb04 	addi	sp,sp,-20
 1425158:	dfc00415 	stw	ra,16(sp)
 142515c:	df000315 	stw	fp,12(sp)
 1425160:	df000304 	addi	fp,sp,12
 1425164:	e13ffe15 	stw	r4,-8(fp)
 1425168:	e17fff15 	stw	r5,-4(fp)
 142516c:	e17fff17 	ldw	r5,-4(fp)
 1425170:	01000c34 	movhi	r4,48
 1425174:	212bc204 	addi	r4,r4,-20728
 1425178:	14286e00 	call	14286e0 <__divsi3>
 142517c:	10bfffc4 	addi	r2,r2,-1
 1425180:	e0bffd15 	stw	r2,-12(fp)
 1425184:	e0bffe17 	ldw	r2,-8(fp)
 1425188:	10800017 	ldw	r2,0(r2)
 142518c:	10800104 	addi	r2,r2,4
 1425190:	1007883a 	mov	r3,r2
 1425194:	e0bffd17 	ldw	r2,-12(fp)
 1425198:	18800015 	stw	r2,0(r3)
 142519c:	0001883a 	nop
 14251a0:	e037883a 	mov	sp,fp
 14251a4:	dfc00117 	ldw	ra,4(sp)
 14251a8:	df000017 	ldw	fp,0(sp)
 14251ac:	dec00204 	addi	sp,sp,8
 14251b0:	f800283a 	ret

014251b4 <_ZN8UartCore13rx_fifo_emptyEv>:
 14251b4:	defffc04 	addi	sp,sp,-16
 14251b8:	df000315 	stw	fp,12(sp)
 14251bc:	df000304 	addi	fp,sp,12
 14251c0:	e13fff15 	stw	r4,-4(fp)
 14251c4:	e0bfff17 	ldw	r2,-4(fp)
 14251c8:	10800017 	ldw	r2,0(r2)
 14251cc:	10800017 	ldw	r2,0(r2)
 14251d0:	e0bffd15 	stw	r2,-12(fp)
 14251d4:	e0bffd17 	ldw	r2,-12(fp)
 14251d8:	1080400c 	andi	r2,r2,256
 14251dc:	1005d23a 	srai	r2,r2,8
 14251e0:	e0bffe15 	stw	r2,-8(fp)
 14251e4:	e0bffe17 	ldw	r2,-8(fp)
 14251e8:	e037883a 	mov	sp,fp
 14251ec:	df000017 	ldw	fp,0(sp)
 14251f0:	dec00104 	addi	sp,sp,4
 14251f4:	f800283a 	ret

014251f8 <_ZN8UartCore12tx_fifo_fullEv>:
 14251f8:	defffc04 	addi	sp,sp,-16
 14251fc:	df000315 	stw	fp,12(sp)
 1425200:	df000304 	addi	fp,sp,12
 1425204:	e13fff15 	stw	r4,-4(fp)
 1425208:	e0bfff17 	ldw	r2,-4(fp)
 142520c:	10800017 	ldw	r2,0(r2)
 1425210:	10800017 	ldw	r2,0(r2)
 1425214:	e0bffd15 	stw	r2,-12(fp)
 1425218:	e0bffd17 	ldw	r2,-12(fp)
 142521c:	1080800c 	andi	r2,r2,512
 1425220:	1005d27a 	srai	r2,r2,9
 1425224:	e0bffe15 	stw	r2,-8(fp)
 1425228:	e0bffe17 	ldw	r2,-8(fp)
 142522c:	e037883a 	mov	sp,fp
 1425230:	df000017 	ldw	fp,0(sp)
 1425234:	dec00104 	addi	sp,sp,4
 1425238:	f800283a 	ret

0142523c <_ZN8UartCore7tx_byteEh>:
 142523c:	defffc04 	addi	sp,sp,-16
 1425240:	dfc00315 	stw	ra,12(sp)
 1425244:	df000215 	stw	fp,8(sp)
 1425248:	df000204 	addi	fp,sp,8
 142524c:	e13ffe15 	stw	r4,-8(fp)
 1425250:	2805883a 	mov	r2,r5
 1425254:	e0bfff05 	stb	r2,-4(fp)
 1425258:	e13ffe17 	ldw	r4,-8(fp)
 142525c:	14251f80 	call	14251f8 <_ZN8UartCore12tx_fifo_fullEv>
 1425260:	1004c03a 	cmpne	r2,r2,zero
 1425264:	10803fcc 	andi	r2,r2,255
 1425268:	10000126 	beq	r2,zero,1425270 <_ZN8UartCore7tx_byteEh+0x34>
 142526c:	003ffa06 	br	1425258 <__alt_data_end+0xfffe5258>
 1425270:	e0bffe17 	ldw	r2,-8(fp)
 1425274:	10800017 	ldw	r2,0(r2)
 1425278:	10800204 	addi	r2,r2,8
 142527c:	1007883a 	mov	r3,r2
 1425280:	e0bfff03 	ldbu	r2,-4(fp)
 1425284:	18800015 	stw	r2,0(r3)
 1425288:	0001883a 	nop
 142528c:	e037883a 	mov	sp,fp
 1425290:	dfc00117 	ldw	ra,4(sp)
 1425294:	df000017 	ldw	fp,0(sp)
 1425298:	dec00204 	addi	sp,sp,8
 142529c:	f800283a 	ret

014252a0 <_ZN8UartCore7rx_byteEv>:
 14252a0:	defffc04 	addi	sp,sp,-16
 14252a4:	dfc00315 	stw	ra,12(sp)
 14252a8:	df000215 	stw	fp,8(sp)
 14252ac:	df000204 	addi	fp,sp,8
 14252b0:	e13fff15 	stw	r4,-4(fp)
 14252b4:	e13fff17 	ldw	r4,-4(fp)
 14252b8:	14251b40 	call	14251b4 <_ZN8UartCore13rx_fifo_emptyEv>
 14252bc:	1004c03a 	cmpne	r2,r2,zero
 14252c0:	10803fcc 	andi	r2,r2,255
 14252c4:	10000226 	beq	r2,zero,14252d0 <_ZN8UartCore7rx_byteEv+0x30>
 14252c8:	00bfffc4 	movi	r2,-1
 14252cc:	00000a06 	br	14252f8 <_ZN8UartCore7rx_byteEv+0x58>
 14252d0:	e0bfff17 	ldw	r2,-4(fp)
 14252d4:	10800017 	ldw	r2,0(r2)
 14252d8:	10800017 	ldw	r2,0(r2)
 14252dc:	10803fcc 	andi	r2,r2,255
 14252e0:	e0bffe15 	stw	r2,-8(fp)
 14252e4:	e0bfff17 	ldw	r2,-4(fp)
 14252e8:	10800017 	ldw	r2,0(r2)
 14252ec:	10800304 	addi	r2,r2,12
 14252f0:	10000015 	stw	zero,0(r2)
 14252f4:	e0bffe17 	ldw	r2,-8(fp)
 14252f8:	e037883a 	mov	sp,fp
 14252fc:	dfc00117 	ldw	ra,4(sp)
 1425300:	df000017 	ldw	fp,0(sp)
 1425304:	dec00204 	addi	sp,sp,8
 1425308:	f800283a 	ret

0142530c <_ZN8UartCore4dispEPKc>:
 142530c:	defffc04 	addi	sp,sp,-16
 1425310:	dfc00315 	stw	ra,12(sp)
 1425314:	df000215 	stw	fp,8(sp)
 1425318:	df000204 	addi	fp,sp,8
 142531c:	e13ffe15 	stw	r4,-8(fp)
 1425320:	e17fff15 	stw	r5,-4(fp)
 1425324:	e17fff17 	ldw	r5,-4(fp)
 1425328:	e13ffe17 	ldw	r4,-8(fp)
 142532c:	142579c0 	call	142579c <_ZN8UartCore8disp_strEPKc>
 1425330:	0001883a 	nop
 1425334:	e037883a 	mov	sp,fp
 1425338:	dfc00117 	ldw	ra,4(sp)
 142533c:	df000017 	ldw	fp,0(sp)
 1425340:	dec00204 	addi	sp,sp,8
 1425344:	f800283a 	ret

01425348 <_ZN8UartCore4dispEc>:
 1425348:	defffc04 	addi	sp,sp,-16
 142534c:	dfc00315 	stw	ra,12(sp)
 1425350:	df000215 	stw	fp,8(sp)
 1425354:	df000204 	addi	fp,sp,8
 1425358:	e13ffe15 	stw	r4,-8(fp)
 142535c:	2805883a 	mov	r2,r5
 1425360:	e0bfff05 	stb	r2,-4(fp)
 1425364:	e0bfff03 	ldbu	r2,-4(fp)
 1425368:	10803fcc 	andi	r2,r2,255
 142536c:	100b883a 	mov	r5,r2
 1425370:	e13ffe17 	ldw	r4,-8(fp)
 1425374:	142523c0 	call	142523c <_ZN8UartCore7tx_byteEh>
 1425378:	0001883a 	nop
 142537c:	e037883a 	mov	sp,fp
 1425380:	dfc00117 	ldw	ra,4(sp)
 1425384:	df000017 	ldw	fp,0(sp)
 1425388:	dec00204 	addi	sp,sp,8
 142538c:	f800283a 	ret

01425390 <_ZN8UartCore4dispEiii>:
 1425390:	deffec04 	addi	sp,sp,-80
 1425394:	dfc01315 	stw	ra,76(sp)
 1425398:	df001215 	stw	fp,72(sp)
 142539c:	df001204 	addi	fp,sp,72
 14253a0:	e13ffc15 	stw	r4,-16(fp)
 14253a4:	e17ffd15 	stw	r5,-12(fp)
 14253a8:	e1bffe15 	stw	r6,-8(fp)
 14253ac:	e1ffff15 	stw	r7,-4(fp)
 14253b0:	e0bffe17 	ldw	r2,-8(fp)
 14253b4:	108000a0 	cmpeqi	r2,r2,2
 14253b8:	1000081e 	bne	r2,zero,14253dc <_ZN8UartCore4dispEiii+0x4c>
 14253bc:	e0bffe17 	ldw	r2,-8(fp)
 14253c0:	10800220 	cmpeqi	r2,r2,8
 14253c4:	1000051e 	bne	r2,zero,14253dc <_ZN8UartCore4dispEiii+0x4c>
 14253c8:	e0bffe17 	ldw	r2,-8(fp)
 14253cc:	10800420 	cmpeqi	r2,r2,16
 14253d0:	1000021e 	bne	r2,zero,14253dc <_ZN8UartCore4dispEiii+0x4c>
 14253d4:	00800284 	movi	r2,10
 14253d8:	e0bffe15 	stw	r2,-8(fp)
 14253dc:	e0bfff17 	ldw	r2,-4(fp)
 14253e0:	10800850 	cmplti	r2,r2,33
 14253e4:	1000021e 	bne	r2,zero,14253f0 <_ZN8UartCore4dispEiii+0x60>
 14253e8:	00800804 	movi	r2,32
 14253ec:	e0bfff15 	stw	r2,-4(fp)
 14253f0:	e0bffe17 	ldw	r2,-8(fp)
 14253f4:	10800298 	cmpnei	r2,r2,10
 14253f8:	1000081e 	bne	r2,zero,142541c <_ZN8UartCore4dispEiii+0x8c>
 14253fc:	e0bffd17 	ldw	r2,-12(fp)
 1425400:	1000060e 	bge	r2,zero,142541c <_ZN8UartCore4dispEiii+0x8c>
 1425404:	e0bffd17 	ldw	r2,-12(fp)
 1425408:	0085c83a 	sub	r2,zero,r2
 142540c:	e0bff115 	stw	r2,-60(fp)
 1425410:	00800b44 	movi	r2,45
 1425414:	e0bfef45 	stb	r2,-67(fp)
 1425418:	00000406 	br	142542c <_ZN8UartCore4dispEiii+0x9c>
 142541c:	e0bffd17 	ldw	r2,-12(fp)
 1425420:	e0bff115 	stw	r2,-60(fp)
 1425424:	00800804 	movi	r2,32
 1425428:	e0bfef45 	stb	r2,-67(fp)
 142542c:	e0bff304 	addi	r2,fp,-52
 1425430:	10800844 	addi	r2,r2,33
 1425434:	e0bfee15 	stw	r2,-72(fp)
 1425438:	e0bfee17 	ldw	r2,-72(fp)
 142543c:	10000005 	stb	zero,0(r2)
 1425440:	e03ff015 	stw	zero,-64(fp)
 1425444:	e0bfee17 	ldw	r2,-72(fp)
 1425448:	10bfffc4 	addi	r2,r2,-1
 142544c:	e0bfee15 	stw	r2,-72(fp)
 1425450:	e0fffe17 	ldw	r3,-8(fp)
 1425454:	e0bff117 	ldw	r2,-60(fp)
 1425458:	180b883a 	mov	r5,r3
 142545c:	1009883a 	mov	r4,r2
 1425460:	142883c0 	call	142883c <__umodsi3>
 1425464:	e0bff215 	stw	r2,-56(fp)
 1425468:	e0bffe17 	ldw	r2,-8(fp)
 142546c:	100b883a 	mov	r5,r2
 1425470:	e13ff117 	ldw	r4,-60(fp)
 1425474:	14287d80 	call	14287d8 <__udivsi3>
 1425478:	e0bff115 	stw	r2,-60(fp)
 142547c:	e0bff217 	ldw	r2,-56(fp)
 1425480:	10800288 	cmpgei	r2,r2,10
 1425484:	1000041e 	bne	r2,zero,1425498 <_ZN8UartCore4dispEiii+0x108>
 1425488:	e0bff217 	ldw	r2,-56(fp)
 142548c:	10800c04 	addi	r2,r2,48
 1425490:	e0bfef05 	stb	r2,-68(fp)
 1425494:	00000306 	br	14254a4 <_ZN8UartCore4dispEiii+0x114>
 1425498:	e0bff217 	ldw	r2,-56(fp)
 142549c:	108015c4 	addi	r2,r2,87
 14254a0:	e0bfef05 	stb	r2,-68(fp)
 14254a4:	e0bfee17 	ldw	r2,-72(fp)
 14254a8:	e0ffef03 	ldbu	r3,-68(fp)
 14254ac:	10c00005 	stb	r3,0(r2)
 14254b0:	e0bff017 	ldw	r2,-64(fp)
 14254b4:	10800044 	addi	r2,r2,1
 14254b8:	e0bff015 	stw	r2,-64(fp)
 14254bc:	e0bff117 	ldw	r2,-60(fp)
 14254c0:	10000126 	beq	r2,zero,14254c8 <_ZN8UartCore4dispEiii+0x138>
 14254c4:	003fdf06 	br	1425444 <__alt_data_end+0xfffe5444>
 14254c8:	e0bfef47 	ldb	r2,-67(fp)
 14254cc:	10800b58 	cmpnei	r2,r2,45
 14254d0:	1000091e 	bne	r2,zero,14254f8 <_ZN8UartCore4dispEiii+0x168>
 14254d4:	e0bfee17 	ldw	r2,-72(fp)
 14254d8:	10bfffc4 	addi	r2,r2,-1
 14254dc:	e0bfee15 	stw	r2,-72(fp)
 14254e0:	e0bfee17 	ldw	r2,-72(fp)
 14254e4:	e0ffef43 	ldbu	r3,-67(fp)
 14254e8:	10c00005 	stb	r3,0(r2)
 14254ec:	e0bff017 	ldw	r2,-64(fp)
 14254f0:	10800044 	addi	r2,r2,1
 14254f4:	e0bff015 	stw	r2,-64(fp)
 14254f8:	e0fff017 	ldw	r3,-64(fp)
 14254fc:	e0bfff17 	ldw	r2,-4(fp)
 1425500:	18800a0e 	bge	r3,r2,142552c <_ZN8UartCore4dispEiii+0x19c>
 1425504:	e0bfee17 	ldw	r2,-72(fp)
 1425508:	10bfffc4 	addi	r2,r2,-1
 142550c:	e0bfee15 	stw	r2,-72(fp)
 1425510:	e0bfee17 	ldw	r2,-72(fp)
 1425514:	00c00804 	movi	r3,32
 1425518:	10c00005 	stb	r3,0(r2)
 142551c:	e0bff017 	ldw	r2,-64(fp)
 1425520:	10800044 	addi	r2,r2,1
 1425524:	e0bff015 	stw	r2,-64(fp)
 1425528:	003ff306 	br	14254f8 <__alt_data_end+0xfffe54f8>
 142552c:	e17fee17 	ldw	r5,-72(fp)
 1425530:	e13ffc17 	ldw	r4,-16(fp)
 1425534:	142579c0 	call	142579c <_ZN8UartCore8disp_strEPKc>
 1425538:	0001883a 	nop
 142553c:	e037883a 	mov	sp,fp
 1425540:	dfc00117 	ldw	ra,4(sp)
 1425544:	df000017 	ldw	fp,0(sp)
 1425548:	dec00204 	addi	sp,sp,8
 142554c:	f800283a 	ret

01425550 <_ZN8UartCore4dispEi>:
 1425550:	defffc04 	addi	sp,sp,-16
 1425554:	dfc00315 	stw	ra,12(sp)
 1425558:	df000215 	stw	fp,8(sp)
 142555c:	df000204 	addi	fp,sp,8
 1425560:	e13ffe15 	stw	r4,-8(fp)
 1425564:	e17fff15 	stw	r5,-4(fp)
 1425568:	000f883a 	mov	r7,zero
 142556c:	01800284 	movi	r6,10
 1425570:	e17fff17 	ldw	r5,-4(fp)
 1425574:	e13ffe17 	ldw	r4,-8(fp)
 1425578:	14253900 	call	1425390 <_ZN8UartCore4dispEiii>
 142557c:	0001883a 	nop
 1425580:	e037883a 	mov	sp,fp
 1425584:	dfc00117 	ldw	ra,4(sp)
 1425588:	df000017 	ldw	fp,0(sp)
 142558c:	dec00204 	addi	sp,sp,8
 1425590:	f800283a 	ret

01425594 <_ZN8UartCore4dispEii>:
 1425594:	defffb04 	addi	sp,sp,-20
 1425598:	dfc00415 	stw	ra,16(sp)
 142559c:	df000315 	stw	fp,12(sp)
 14255a0:	df000304 	addi	fp,sp,12
 14255a4:	e13ffd15 	stw	r4,-12(fp)
 14255a8:	e17ffe15 	stw	r5,-8(fp)
 14255ac:	e1bfff15 	stw	r6,-4(fp)
 14255b0:	000f883a 	mov	r7,zero
 14255b4:	e1bfff17 	ldw	r6,-4(fp)
 14255b8:	e17ffe17 	ldw	r5,-8(fp)
 14255bc:	e13ffd17 	ldw	r4,-12(fp)
 14255c0:	14253900 	call	1425390 <_ZN8UartCore4dispEiii>
 14255c4:	0001883a 	nop
 14255c8:	e037883a 	mov	sp,fp
 14255cc:	dfc00117 	ldw	ra,4(sp)
 14255d0:	df000017 	ldw	fp,0(sp)
 14255d4:	dec00204 	addi	sp,sp,8
 14255d8:	f800283a 	ret

014255dc <_ZN8UartCore4dispEdi>:
 14255dc:	defff304 	addi	sp,sp,-52
 14255e0:	dfc00c15 	stw	ra,48(sp)
 14255e4:	df000b15 	stw	fp,44(sp)
 14255e8:	df000b04 	addi	fp,sp,44
 14255ec:	e13ffc15 	stw	r4,-16(fp)
 14255f0:	e17ffd15 	stw	r5,-12(fp)
 14255f4:	e1bffe15 	stw	r6,-8(fp)
 14255f8:	e1ffff15 	stw	r7,-4(fp)
 14255fc:	e0bffd17 	ldw	r2,-12(fp)
 1425600:	e0bff515 	stw	r2,-44(fp)
 1425604:	e0bffe17 	ldw	r2,-8(fp)
 1425608:	e0bff615 	stw	r2,-40(fp)
 142560c:	000d883a 	mov	r6,zero
 1425610:	000f883a 	mov	r7,zero
 1425614:	e13ffd17 	ldw	r4,-12(fp)
 1425618:	e17ffe17 	ldw	r5,-8(fp)
 142561c:	142a4840 	call	142a484 <__ledf2>
 1425620:	1000090e 	bge	r2,zero,1425648 <_ZN8UartCore4dispEdi+0x6c>
 1425624:	e0bffd17 	ldw	r2,-12(fp)
 1425628:	e0bff515 	stw	r2,-44(fp)
 142562c:	e0bffe17 	ldw	r2,-8(fp)
 1425630:	10a0003c 	xorhi	r2,r2,32768
 1425634:	e0bff615 	stw	r2,-40(fp)
 1425638:	014050f4 	movhi	r5,323
 142563c:	29773804 	addi	r5,r5,-8992
 1425640:	e13ffc17 	ldw	r4,-16(fp)
 1425644:	142579c0 	call	142579c <_ZN8UartCore8disp_strEPKc>
 1425648:	e13ff517 	ldw	r4,-44(fp)
 142564c:	e17ff617 	ldw	r5,-40(fp)
 1425650:	142b6e00 	call	142b6e0 <__fixdfsi>
 1425654:	e0bffa15 	stw	r2,-24(fp)
 1425658:	e17ffa17 	ldw	r5,-24(fp)
 142565c:	e13ffc17 	ldw	r4,-16(fp)
 1425660:	14255500 	call	1425550 <_ZN8UartCore4dispEi>
 1425664:	014050f4 	movhi	r5,323
 1425668:	29773904 	addi	r5,r5,-8988
 142566c:	e13ffc17 	ldw	r4,-16(fp)
 1425670:	142579c0 	call	142579c <_ZN8UartCore8disp_strEPKc>
 1425674:	e13ffa17 	ldw	r4,-24(fp)
 1425678:	142b7600 	call	142b760 <__floatsidf>
 142567c:	1009883a 	mov	r4,r2
 1425680:	180b883a 	mov	r5,r3
 1425684:	200d883a 	mov	r6,r4
 1425688:	280f883a 	mov	r7,r5
 142568c:	e13ff517 	ldw	r4,-44(fp)
 1425690:	e17ff617 	ldw	r5,-40(fp)
 1425694:	142ade40 	call	142ade4 <__subdf3>
 1425698:	1009883a 	mov	r4,r2
 142569c:	180b883a 	mov	r5,r3
 14256a0:	e13ff715 	stw	r4,-36(fp)
 14256a4:	e17ff815 	stw	r5,-32(fp)
 14256a8:	e03ff915 	stw	zero,-28(fp)
 14256ac:	e0fff917 	ldw	r3,-28(fp)
 14256b0:	e0bfff17 	ldw	r2,-4(fp)
 14256b4:	1880210e 	bge	r3,r2,142573c <_ZN8UartCore4dispEdi+0x160>
 14256b8:	000d883a 	mov	r6,zero
 14256bc:	01d00934 	movhi	r7,16420
 14256c0:	e13ff717 	ldw	r4,-36(fp)
 14256c4:	e17ff817 	ldw	r5,-32(fp)
 14256c8:	142a5780 	call	142a578 <__muldf3>
 14256cc:	1009883a 	mov	r4,r2
 14256d0:	180b883a 	mov	r5,r3
 14256d4:	e13ff715 	stw	r4,-36(fp)
 14256d8:	e17ff815 	stw	r5,-32(fp)
 14256dc:	e13ff717 	ldw	r4,-36(fp)
 14256e0:	e17ff817 	ldw	r5,-32(fp)
 14256e4:	142b6e00 	call	142b6e0 <__fixdfsi>
 14256e8:	e0bffb15 	stw	r2,-20(fp)
 14256ec:	e17ffb17 	ldw	r5,-20(fp)
 14256f0:	e13ffc17 	ldw	r4,-16(fp)
 14256f4:	14255500 	call	1425550 <_ZN8UartCore4dispEi>
 14256f8:	e13ffb17 	ldw	r4,-20(fp)
 14256fc:	142b7600 	call	142b760 <__floatsidf>
 1425700:	1009883a 	mov	r4,r2
 1425704:	180b883a 	mov	r5,r3
 1425708:	200d883a 	mov	r6,r4
 142570c:	280f883a 	mov	r7,r5
 1425710:	e13ff717 	ldw	r4,-36(fp)
 1425714:	e17ff817 	ldw	r5,-32(fp)
 1425718:	142ade40 	call	142ade4 <__subdf3>
 142571c:	1009883a 	mov	r4,r2
 1425720:	180b883a 	mov	r5,r3
 1425724:	e13ff715 	stw	r4,-36(fp)
 1425728:	e17ff815 	stw	r5,-32(fp)
 142572c:	e0bff917 	ldw	r2,-28(fp)
 1425730:	10800044 	addi	r2,r2,1
 1425734:	e0bff915 	stw	r2,-28(fp)
 1425738:	003fdc06 	br	14256ac <__alt_data_end+0xfffe56ac>
 142573c:	0001883a 	nop
 1425740:	e037883a 	mov	sp,fp
 1425744:	dfc00117 	ldw	ra,4(sp)
 1425748:	df000017 	ldw	fp,0(sp)
 142574c:	dec00204 	addi	sp,sp,8
 1425750:	f800283a 	ret

01425754 <_ZN8UartCore4dispEd>:
 1425754:	defffb04 	addi	sp,sp,-20
 1425758:	dfc00415 	stw	ra,16(sp)
 142575c:	df000315 	stw	fp,12(sp)
 1425760:	df000304 	addi	fp,sp,12
 1425764:	e13ffd15 	stw	r4,-12(fp)
 1425768:	e17ffe15 	stw	r5,-8(fp)
 142576c:	e1bfff15 	stw	r6,-4(fp)
 1425770:	01c000c4 	movi	r7,3
 1425774:	e17ffe17 	ldw	r5,-8(fp)
 1425778:	e1bfff17 	ldw	r6,-4(fp)
 142577c:	e13ffd17 	ldw	r4,-12(fp)
 1425780:	14255dc0 	call	14255dc <_ZN8UartCore4dispEdi>
 1425784:	0001883a 	nop
 1425788:	e037883a 	mov	sp,fp
 142578c:	dfc00117 	ldw	ra,4(sp)
 1425790:	df000017 	ldw	fp,0(sp)
 1425794:	dec00204 	addi	sp,sp,8
 1425798:	f800283a 	ret

0142579c <_ZN8UartCore8disp_strEPKc>:
 142579c:	defffc04 	addi	sp,sp,-16
 14257a0:	dfc00315 	stw	ra,12(sp)
 14257a4:	df000215 	stw	fp,8(sp)
 14257a8:	df000204 	addi	fp,sp,8
 14257ac:	e13ffe15 	stw	r4,-8(fp)
 14257b0:	e17fff15 	stw	r5,-4(fp)
 14257b4:	e0bfff17 	ldw	r2,-4(fp)
 14257b8:	10800003 	ldbu	r2,0(r2)
 14257bc:	10803fcc 	andi	r2,r2,255
 14257c0:	1080201c 	xori	r2,r2,128
 14257c4:	10bfe004 	addi	r2,r2,-128
 14257c8:	10000a26 	beq	r2,zero,14257f4 <_ZN8UartCore8disp_strEPKc+0x58>
 14257cc:	e0bfff17 	ldw	r2,-4(fp)
 14257d0:	10800003 	ldbu	r2,0(r2)
 14257d4:	10803fcc 	andi	r2,r2,255
 14257d8:	100b883a 	mov	r5,r2
 14257dc:	e13ffe17 	ldw	r4,-8(fp)
 14257e0:	142523c0 	call	142523c <_ZN8UartCore7tx_byteEh>
 14257e4:	e0bfff17 	ldw	r2,-4(fp)
 14257e8:	10800044 	addi	r2,r2,1
 14257ec:	e0bfff15 	stw	r2,-4(fp)
 14257f0:	003ff006 	br	14257b4 <__alt_data_end+0xfffe57b4>
 14257f4:	0001883a 	nop
 14257f8:	e037883a 	mov	sp,fp
 14257fc:	dfc00117 	ldw	ra,4(sp)
 1425800:	df000017 	ldw	fp,0(sp)
 1425804:	dec00204 	addi	sp,sp,8
 1425808:	f800283a 	ret

0142580c <_ZN10Ws2812CoreC1Emii>:
 142580c:	defffa04 	addi	sp,sp,-24
 1425810:	dfc00515 	stw	ra,20(sp)
 1425814:	df000415 	stw	fp,16(sp)
 1425818:	df000404 	addi	fp,sp,16
 142581c:	e13ffc15 	stw	r4,-16(fp)
 1425820:	e17ffd15 	stw	r5,-12(fp)
 1425824:	e1bffe15 	stw	r6,-8(fp)
 1425828:	e1ffff15 	stw	r7,-4(fp)
 142582c:	e0bffc17 	ldw	r2,-16(fp)
 1425830:	e0fffd17 	ldw	r3,-12(fp)
 1425834:	10c00015 	stw	r3,0(r2)
 1425838:	e0bffc17 	ldw	r2,-16(fp)
 142583c:	e0fffe17 	ldw	r3,-8(fp)
 1425840:	10c00115 	stw	r3,4(r2)
 1425844:	e0bffc17 	ldw	r2,-16(fp)
 1425848:	e0ffff17 	ldw	r3,-4(fp)
 142584c:	10c00215 	stw	r3,8(r2)
 1425850:	000b883a 	mov	r5,zero
 1425854:	018ff434 	movhi	r6,16336
 1425858:	e13ffc17 	ldw	r4,-16(fp)
 142585c:	142589c0 	call	142589c <_ZN10Ws2812Core14set_brightnessEd>
 1425860:	0001883a 	nop
 1425864:	e037883a 	mov	sp,fp
 1425868:	dfc00117 	ldw	ra,4(sp)
 142586c:	df000017 	ldw	fp,0(sp)
 1425870:	dec00204 	addi	sp,sp,8
 1425874:	f800283a 	ret

01425878 <_ZN10Ws2812CoreD1Ev>:
 1425878:	defffe04 	addi	sp,sp,-8
 142587c:	df000115 	stw	fp,4(sp)
 1425880:	df000104 	addi	fp,sp,4
 1425884:	e13fff15 	stw	r4,-4(fp)
 1425888:	0001883a 	nop
 142588c:	e037883a 	mov	sp,fp
 1425890:	df000017 	ldw	fp,0(sp)
 1425894:	dec00104 	addi	sp,sp,4
 1425898:	f800283a 	ret

0142589c <_ZN10Ws2812Core14set_brightnessEd>:
 142589c:	defffb04 	addi	sp,sp,-20
 14258a0:	dfc00415 	stw	ra,16(sp)
 14258a4:	df000315 	stw	fp,12(sp)
 14258a8:	df000304 	addi	fp,sp,12
 14258ac:	e13ffd15 	stw	r4,-12(fp)
 14258b0:	e17ffe15 	stw	r5,-8(fp)
 14258b4:	e1bfff15 	stw	r6,-4(fp)
 14258b8:	000d883a 	mov	r6,zero
 14258bc:	01cffc34 	movhi	r7,16368
 14258c0:	e13ffe17 	ldw	r4,-8(fp)
 14258c4:	e17fff17 	ldw	r5,-4(fp)
 14258c8:	142a3a80 	call	142a3a8 <__gedf2>
 14258cc:	0080050e 	bge	zero,r2,14258e4 <_ZN10Ws2812Core14set_brightnessEd+0x48>
 14258d0:	e0bffd17 	ldw	r2,-12(fp)
 14258d4:	10000315 	stw	zero,12(r2)
 14258d8:	00cffc34 	movhi	r3,16368
 14258dc:	10c00415 	stw	r3,16(r2)
 14258e0:	00001006 	br	1425924 <_ZN10Ws2812Core14set_brightnessEd+0x88>
 14258e4:	000d883a 	mov	r6,zero
 14258e8:	000f883a 	mov	r7,zero
 14258ec:	e13ffe17 	ldw	r4,-8(fp)
 14258f0:	e17fff17 	ldw	r5,-4(fp)
 14258f4:	142a4840 	call	142a484 <__ledf2>
 14258f8:	1000040e 	bge	r2,zero,142590c <_ZN10Ws2812Core14set_brightnessEd+0x70>
 14258fc:	e0bffd17 	ldw	r2,-12(fp)
 1425900:	10000315 	stw	zero,12(r2)
 1425904:	10000415 	stw	zero,16(r2)
 1425908:	00000606 	br	1425924 <_ZN10Ws2812Core14set_brightnessEd+0x88>
 142590c:	e0bffd17 	ldw	r2,-12(fp)
 1425910:	e0fffe17 	ldw	r3,-8(fp)
 1425914:	10c00315 	stw	r3,12(r2)
 1425918:	e0ffff17 	ldw	r3,-4(fp)
 142591c:	10c00415 	stw	r3,16(r2)
 1425920:	0001883a 	nop
 1425924:	e037883a 	mov	sp,fp
 1425928:	dfc00117 	ldw	ra,4(sp)
 142592c:	df000017 	ldw	fp,0(sp)
 1425930:	dec00204 	addi	sp,sp,8
 1425934:	f800283a 	ret

01425938 <_ZN10Ws2812Core6wr_pixEiii>:
 1425938:	defff704 	addi	sp,sp,-36
 142593c:	dfc00815 	stw	ra,32(sp)
 1425940:	df000715 	stw	fp,28(sp)
 1425944:	df000704 	addi	fp,sp,28
 1425948:	e13ffc15 	stw	r4,-16(fp)
 142594c:	e17ffd15 	stw	r5,-12(fp)
 1425950:	e1bffe15 	stw	r6,-8(fp)
 1425954:	e1ffff15 	stw	r7,-4(fp)
 1425958:	e0bfff17 	ldw	r2,-4(fp)
 142595c:	e0bffb05 	stb	r2,-20(fp)
 1425960:	e0bfff17 	ldw	r2,-4(fp)
 1425964:	1005d23a 	srai	r2,r2,8
 1425968:	e0bffb45 	stb	r2,-19(fp)
 142596c:	e0bfff17 	ldw	r2,-4(fp)
 1425970:	1005d43a 	srai	r2,r2,16
 1425974:	e0bffb85 	stb	r2,-18(fp)
 1425978:	e13ffb83 	ldbu	r4,-18(fp)
 142597c:	e0bffb43 	ldbu	r2,-19(fp)
 1425980:	e0fffb03 	ldbu	r3,-20(fp)
 1425984:	d8c00115 	stw	r3,4(sp)
 1425988:	d8800015 	stw	r2,0(sp)
 142598c:	200f883a 	mov	r7,r4
 1425990:	e1bffe17 	ldw	r6,-8(fp)
 1425994:	e17ffd17 	ldw	r5,-12(fp)
 1425998:	e13ffc17 	ldw	r4,-16(fp)
 142599c:	14259b80 	call	14259b8 <_ZN10Ws2812Core6wr_pixEiihhh>
 14259a0:	0001883a 	nop
 14259a4:	e037883a 	mov	sp,fp
 14259a8:	dfc00117 	ldw	ra,4(sp)
 14259ac:	df000017 	ldw	fp,0(sp)
 14259b0:	dec00204 	addi	sp,sp,8
 14259b4:	f800283a 	ret

014259b8 <_ZN10Ws2812Core6wr_pixEiihhh>:
 14259b8:	defff104 	addi	sp,sp,-60
 14259bc:	dfc00e15 	stw	ra,56(sp)
 14259c0:	df000d15 	stw	fp,52(sp)
 14259c4:	df000d04 	addi	fp,sp,52
 14259c8:	e13ffa15 	stw	r4,-24(fp)
 14259cc:	e17ffb15 	stw	r5,-20(fp)
 14259d0:	e1bffc15 	stw	r6,-16(fp)
 14259d4:	3809883a 	mov	r4,r7
 14259d8:	e0c00217 	ldw	r3,8(fp)
 14259dc:	e0800317 	ldw	r2,12(fp)
 14259e0:	e13ffd05 	stb	r4,-12(fp)
 14259e4:	e0fffe05 	stb	r3,-8(fp)
 14259e8:	e0bfff05 	stb	r2,-4(fp)
 14259ec:	e0bffa17 	ldw	r2,-24(fp)
 14259f0:	10800117 	ldw	r2,4(r2)
 14259f4:	10bfffc4 	addi	r2,r2,-1
 14259f8:	e0fffb17 	ldw	r3,-20(fp)
 14259fc:	1880010e 	bge	r3,r2,1425a04 <_ZN10Ws2812Core6wr_pixEiihhh+0x4c>
 1425a00:	1805883a 	mov	r2,r3
 1425a04:	e0bff315 	stw	r2,-52(fp)
 1425a08:	e0bffa17 	ldw	r2,-24(fp)
 1425a0c:	10800217 	ldw	r2,8(r2)
 1425a10:	10bfffc4 	addi	r2,r2,-1
 1425a14:	e0fffc17 	ldw	r3,-16(fp)
 1425a18:	1880010e 	bge	r3,r2,1425a20 <_ZN10Ws2812Core6wr_pixEiihhh+0x68>
 1425a1c:	1805883a 	mov	r2,r3
 1425a20:	e0bff415 	stw	r2,-48(fp)
 1425a24:	e0bffa17 	ldw	r2,-24(fp)
 1425a28:	10800117 	ldw	r2,4(r2)
 1425a2c:	e17ff417 	ldw	r5,-48(fp)
 1425a30:	1009883a 	mov	r4,r2
 1425a34:	14288940 	call	1428894 <__mulsi3>
 1425a38:	1007883a 	mov	r3,r2
 1425a3c:	e0bff317 	ldw	r2,-52(fp)
 1425a40:	1885883a 	add	r2,r3,r2
 1425a44:	e0bff515 	stw	r2,-44(fp)
 1425a48:	e0bffd03 	ldbu	r2,-12(fp)
 1425a4c:	1009883a 	mov	r4,r2
 1425a50:	142b7600 	call	142b760 <__floatsidf>
 1425a54:	1011883a 	mov	r8,r2
 1425a58:	1813883a 	mov	r9,r3
 1425a5c:	e13ffa17 	ldw	r4,-24(fp)
 1425a60:	20800317 	ldw	r2,12(r4)
 1425a64:	20c00417 	ldw	r3,16(r4)
 1425a68:	100d883a 	mov	r6,r2
 1425a6c:	180f883a 	mov	r7,r3
 1425a70:	4009883a 	mov	r4,r8
 1425a74:	480b883a 	mov	r5,r9
 1425a78:	142a5780 	call	142a578 <__muldf3>
 1425a7c:	1009883a 	mov	r4,r2
 1425a80:	180b883a 	mov	r5,r3
 1425a84:	2005883a 	mov	r2,r4
 1425a88:	2807883a 	mov	r3,r5
 1425a8c:	1009883a 	mov	r4,r2
 1425a90:	180b883a 	mov	r5,r3
 1425a94:	1427aac0 	call	1427aac <__fixunsdfsi>
 1425a98:	e0bff615 	stw	r2,-40(fp)
 1425a9c:	e0bffe03 	ldbu	r2,-8(fp)
 1425aa0:	1009883a 	mov	r4,r2
 1425aa4:	142b7600 	call	142b760 <__floatsidf>
 1425aa8:	1011883a 	mov	r8,r2
 1425aac:	1813883a 	mov	r9,r3
 1425ab0:	e13ffa17 	ldw	r4,-24(fp)
 1425ab4:	20800317 	ldw	r2,12(r4)
 1425ab8:	20c00417 	ldw	r3,16(r4)
 1425abc:	100d883a 	mov	r6,r2
 1425ac0:	180f883a 	mov	r7,r3
 1425ac4:	4009883a 	mov	r4,r8
 1425ac8:	480b883a 	mov	r5,r9
 1425acc:	142a5780 	call	142a578 <__muldf3>
 1425ad0:	1009883a 	mov	r4,r2
 1425ad4:	180b883a 	mov	r5,r3
 1425ad8:	2005883a 	mov	r2,r4
 1425adc:	2807883a 	mov	r3,r5
 1425ae0:	1009883a 	mov	r4,r2
 1425ae4:	180b883a 	mov	r5,r3
 1425ae8:	1427aac0 	call	1427aac <__fixunsdfsi>
 1425aec:	e0bff715 	stw	r2,-36(fp)
 1425af0:	e0bfff03 	ldbu	r2,-4(fp)
 1425af4:	1009883a 	mov	r4,r2
 1425af8:	142b7600 	call	142b760 <__floatsidf>
 1425afc:	1011883a 	mov	r8,r2
 1425b00:	1813883a 	mov	r9,r3
 1425b04:	e13ffa17 	ldw	r4,-24(fp)
 1425b08:	20800317 	ldw	r2,12(r4)
 1425b0c:	20c00417 	ldw	r3,16(r4)
 1425b10:	100d883a 	mov	r6,r2
 1425b14:	180f883a 	mov	r7,r3
 1425b18:	4009883a 	mov	r4,r8
 1425b1c:	480b883a 	mov	r5,r9
 1425b20:	142a5780 	call	142a578 <__muldf3>
 1425b24:	1009883a 	mov	r4,r2
 1425b28:	180b883a 	mov	r5,r3
 1425b2c:	2005883a 	mov	r2,r4
 1425b30:	2807883a 	mov	r3,r5
 1425b34:	1009883a 	mov	r4,r2
 1425b38:	180b883a 	mov	r5,r3
 1425b3c:	1427aac0 	call	1427aac <__fixunsdfsi>
 1425b40:	e0bff815 	stw	r2,-32(fp)
 1425b44:	e0bff617 	ldw	r2,-40(fp)
 1425b48:	1006943a 	slli	r3,r2,16
 1425b4c:	e0bff717 	ldw	r2,-36(fp)
 1425b50:	1004923a 	slli	r2,r2,8
 1425b54:	1886b03a 	or	r3,r3,r2
 1425b58:	e0bff817 	ldw	r2,-32(fp)
 1425b5c:	1884b03a 	or	r2,r3,r2
 1425b60:	e0bff915 	stw	r2,-28(fp)
 1425b64:	e0bffa17 	ldw	r2,-24(fp)
 1425b68:	10800017 	ldw	r2,0(r2)
 1425b6c:	1007883a 	mov	r3,r2
 1425b70:	e0bff517 	ldw	r2,-44(fp)
 1425b74:	18800015 	stw	r2,0(r3)
 1425b78:	e0bffa17 	ldw	r2,-24(fp)
 1425b7c:	10800017 	ldw	r2,0(r2)
 1425b80:	10800104 	addi	r2,r2,4
 1425b84:	1007883a 	mov	r3,r2
 1425b88:	e0bff917 	ldw	r2,-28(fp)
 1425b8c:	18800015 	stw	r2,0(r3)
 1425b90:	0001883a 	nop
 1425b94:	e037883a 	mov	sp,fp
 1425b98:	dfc00117 	ldw	ra,4(sp)
 1425b9c:	df000017 	ldw	fp,0(sp)
 1425ba0:	dec00204 	addi	sp,sp,8
 1425ba4:	f800283a 	ret

01425ba8 <_ZN10Ws2812Core10clr_matrixEi>:
 1425ba8:	defffa04 	addi	sp,sp,-24
 1425bac:	dfc00515 	stw	ra,20(sp)
 1425bb0:	df000415 	stw	fp,16(sp)
 1425bb4:	df000404 	addi	fp,sp,16
 1425bb8:	e13ffe15 	stw	r4,-8(fp)
 1425bbc:	e17fff15 	stw	r5,-4(fp)
 1425bc0:	e03ffc15 	stw	zero,-16(fp)
 1425bc4:	e0bffe17 	ldw	r2,-8(fp)
 1425bc8:	10800117 	ldw	r2,4(r2)
 1425bcc:	e0fffc17 	ldw	r3,-16(fp)
 1425bd0:	1880120e 	bge	r3,r2,1425c1c <_ZN10Ws2812Core10clr_matrixEi+0x74>
 1425bd4:	e03ffd15 	stw	zero,-12(fp)
 1425bd8:	e0bffe17 	ldw	r2,-8(fp)
 1425bdc:	10800217 	ldw	r2,8(r2)
 1425be0:	e0fffc17 	ldw	r3,-16(fp)
 1425be4:	1880090e 	bge	r3,r2,1425c0c <_ZN10Ws2812Core10clr_matrixEi+0x64>
 1425be8:	e1ffff17 	ldw	r7,-4(fp)
 1425bec:	e1bffd17 	ldw	r6,-12(fp)
 1425bf0:	e17ffc17 	ldw	r5,-16(fp)
 1425bf4:	e13ffe17 	ldw	r4,-8(fp)
 1425bf8:	14259380 	call	1425938 <_ZN10Ws2812Core6wr_pixEiii>
 1425bfc:	e0bffd17 	ldw	r2,-12(fp)
 1425c00:	10800044 	addi	r2,r2,1
 1425c04:	e0bffd15 	stw	r2,-12(fp)
 1425c08:	003ff306 	br	1425bd8 <__alt_data_end+0xfffe5bd8>
 1425c0c:	e0bffc17 	ldw	r2,-16(fp)
 1425c10:	10800044 	addi	r2,r2,1
 1425c14:	e0bffc15 	stw	r2,-16(fp)
 1425c18:	003fea06 	br	1425bc4 <__alt_data_end+0xfffe5bc4>
 1425c1c:	0001883a 	nop
 1425c20:	e037883a 	mov	sp,fp
 1425c24:	dfc00117 	ldw	ra,4(sp)
 1425c28:	df000017 	ldw	fp,0(sp)
 1425c2c:	dec00204 	addi	sp,sp,8
 1425c30:	f800283a 	ret

01425c34 <_ZL21size_of_encoded_valueh>:
 1425c34:	deffff04 	addi	sp,sp,-4
 1425c38:	dfc00015 	stw	ra,0(sp)
 1425c3c:	20c03fcc 	andi	r3,r4,255
 1425c40:	00803fc4 	movi	r2,255
 1425c44:	18802026 	beq	r3,r2,1425cc8 <_ZL21size_of_encoded_valueh+0x94>
 1425c48:	210001cc 	andi	r4,r4,7
 1425c4c:	00800144 	movi	r2,5
 1425c50:	11001c36 	bltu	r2,r4,1425cc4 <_ZL21size_of_encoded_valueh+0x90>
 1425c54:	200890ba 	slli	r4,r4,2
 1425c58:	008050b4 	movhi	r2,322
 1425c5c:	10971b04 	addi	r2,r2,23660
 1425c60:	2089883a 	add	r4,r4,r2
 1425c64:	20800017 	ldw	r2,0(r4)
 1425c68:	1000683a 	jmp	r2
 1425c6c:	01425c84 	movi	r5,2418
 1425c70:	01425cc4 	movi	r5,2419
 1425c74:	01425c94 	movui	r5,2418
 1425c78:	01425c84 	movi	r5,2418
 1425c7c:	01425cb4 	movhi	r5,2418
 1425c80:	01425ca4 	muli	r5,zero,2418
 1425c84:	00800104 	movi	r2,4
 1425c88:	dfc00017 	ldw	ra,0(sp)
 1425c8c:	dec00104 	addi	sp,sp,4
 1425c90:	f800283a 	ret
 1425c94:	00800084 	movi	r2,2
 1425c98:	dfc00017 	ldw	ra,0(sp)
 1425c9c:	dec00104 	addi	sp,sp,4
 1425ca0:	f800283a 	ret
 1425ca4:	00800044 	movi	r2,1
 1425ca8:	dfc00017 	ldw	ra,0(sp)
 1425cac:	dec00104 	addi	sp,sp,4
 1425cb0:	f800283a 	ret
 1425cb4:	00800204 	movi	r2,8
 1425cb8:	dfc00017 	ldw	ra,0(sp)
 1425cbc:	dec00104 	addi	sp,sp,4
 1425cc0:	f800283a 	ret
 1425cc4:	142be680 	call	142be68 <abort>
 1425cc8:	0005883a 	mov	r2,zero
 1425ccc:	dfc00017 	ldw	ra,0(sp)
 1425cd0:	dec00104 	addi	sp,sp,4
