
ChasingLED.elf:     file format elf32-littlenios2
ChasingLED.elf
architecture: nios2:r1, flags 0x00000112:
EXEC_P, HAS_SYMS, D_PAGED
start address 0x01420020

Program Header:
    LOAD off    0x00001000 vaddr 0x01420000 paddr 0x01420000 align 2**12
         filesz 0x00000020 memsz 0x00000020 flags r-x
    LOAD off    0x00001020 vaddr 0x01420020 paddr 0x01420020 align 2**12
         filesz 0x0000dfe8 memsz 0x0000dfe8 flags r-x
    LOAD off    0x0000f008 vaddr 0x0142e008 paddr 0x0142ea30 align 2**12
         filesz 0x00000a28 memsz 0x00000a28 flags rw-
    LOAD off    0x00010458 vaddr 0x0142f458 paddr 0x0142f458 align 2**12
         filesz 0x00000000 memsz 0x000000dc flags rw-

Sections:
Idx Name          Size      VMA       LMA       File off  Algn
  0 .entry        00000020  01420000  01420000  00001000  2**5
                  CONTENTS, ALLOC, LOAD, READONLY, CODE
  1 .exceptions   00000000  01420020  01420020  0000fa30  2**0
                  CONTENTS
  2 .text         0000dbe0  01420020  01420020  00001020  2**2
                  CONTENTS, ALLOC, LOAD, READONLY, CODE
  3 .rodata       00000408  0142dc00  0142dc00  0000ec00  2**2
                  CONTENTS, ALLOC, LOAD, READONLY, DATA
  4 .rwdata       00000a28  0142e008  0142ea30  0000f008  2**2
                  CONTENTS, ALLOC, LOAD, DATA, SMALL_DATA
  5 .bss          000000dc  0142f458  0142f458  00010458  2**2
                  ALLOC, SMALL_DATA
  6 .onchip_flash_0_data 00000000  01200000  01200000  0000fa30  2**0
                  CONTENTS
  7 .onchip_memory2_0 00000000  0142f534  0142f534  0000fa30  2**0
                  CONTENTS
  8 .comment      00000023  00000000  00000000  0000fa30  2**0
                  CONTENTS, READONLY
  9 .debug_aranges 00000cc0  00000000  00000000  0000fa58  2**3
                  CONTENTS, READONLY, DEBUGGING
 10 .debug_info   0001adfa  00000000  00000000  00010718  2**0
                  CONTENTS, READONLY, DEBUGGING
 11 .debug_abbrev 000082f5  00000000  00000000  0002b512  2**0
                  CONTENTS, READONLY, DEBUGGING
 12 .debug_line   00009375  00000000  00000000  00033807  2**0
                  CONTENTS, READONLY, DEBUGGING
 13 .debug_frame  00002d04  00000000  00000000  0003cb7c  2**2
                  CONTENTS, READONLY, DEBUGGING
 14 .debug_str    00006360  00000000  00000000  0003f880  2**0
                  CONTENTS, READONLY, DEBUGGING
 15 .debug_loc    0000e81e  00000000  00000000  00045be0  2**0
                  CONTENTS, READONLY, DEBUGGING
 16 .debug_alt_sim_info 00000010  00000000  00000000  00054400  2**2
                  CONTENTS, READONLY, DEBUGGING
 17 .debug_ranges 00001610  00000000  00000000  00054410  2**3
                  CONTENTS, READONLY, DEBUGGING
 18 .thread_model 00000003  00000000  00000000  0005a888  2**0
                  CONTENTS, READONLY
 19 .cpu          0000000c  00000000  00000000  0005a88b  2**0
                  CONTENTS, READONLY
 20 .qsys         00000001  00000000  00000000  0005a897  2**0
                  CONTENTS, READONLY
 21 .simulation_enabled 00000001  00000000  00000000  0005a898  2**0
                  CONTENTS, READONLY
 22 .sysid_hash   00000004  00000000  00000000  0005a899  2**0
                  CONTENTS, READONLY
 23 .sysid_base   00000004  00000000  00000000  0005a89d  2**0
                  CONTENTS, READONLY
 24 .sysid_time   00000004  00000000  00000000  0005a8a1  2**0
                  CONTENTS, READONLY
 25 .stderr_dev   00000004  00000000  00000000  0005a8a5  2**0
                  CONTENTS, READONLY
 26 .stdin_dev    00000004  00000000  00000000  0005a8a9  2**0
                  CONTENTS, READONLY
 27 .stdout_dev   00000004  00000000  00000000  0005a8ad  2**0
                  CONTENTS, READONLY
 28 .sopc_system_name 00000009  00000000  00000000  0005a8b1  2**0
                  CONTENTS, READONLY
 29 .sopcinfo     0003a72a  00000000  00000000  0005a8ba  2**0
                  CONTENTS, READONLY
SYMBOL TABLE:
01420000 l    d  .entry	00000000 .entry
01420020 l    d  .exceptions	00000000 .exceptions
01420020 l    d  .text	00000000 .text
0142dc00 l    d  .rodata	00000000 .rodata
0142e008 l    d  .rwdata	00000000 .rwdata
0142f458 l    d  .bss	00000000 .bss
01200000 l    d  .onchip_flash_0_data	00000000 .onchip_flash_0_data
0142f534 l    d  .onchip_memory2_0	00000000 .onchip_memory2_0
00000000 l    d  .comment	00000000 .comment
00000000 l    d  .debug_aranges	00000000 .debug_aranges
00000000 l    d  .debug_info	00000000 .debug_info
00000000 l    d  .debug_abbrev	00000000 .debug_abbrev
00000000 l    d  .debug_line	00000000 .debug_line
00000000 l    d  .debug_frame	00000000 .debug_frame
00000000 l    d  .debug_str	00000000 .debug_str
00000000 l    d  .debug_loc	00000000 .debug_loc
00000000 l    d  .debug_alt_sim_info	00000000 .debug_alt_sim_info
00000000 l    d  .debug_ranges	00000000 .debug_ranges
00000000 l    df *ABS*	00000000 ../de10_bsp//obj/HAL/src/crt0.o
01420058 l       .text	00000000 alt_after_alt_main
00000000 l    df *ABS*	00000000 printf_fpro.c
014200c8 l     F .text	00000054 _out_buffer
0142011c l     F .text	00000034 _out_null
01420150 l     F .text	00000050 _out_char
014201a0 l     F .text	00000058 _out_fct
014201f8 l     F .text	0000005c _strlen
01420254 l     F .text	0000004c _is_digit
014202a0 l     F .text	0000009c _atoi
0142033c l     F .text	000003b4 _ntoa_format
014206f0 l     F .text	0000014c _ntoa_long
0142083c l     F .text	00000194 _ntoa_long_long
014209d0 l     F .text	0000069c _ftoa
0142dc00 l     O .rodata	00000050 pow10.1820
0142106c l     F .text	00001000 _vsnprintf
00000000 l    df *ABS*	00000000 adsr_core.cpp
00000000 l    df *ABS*	00000000 blink_soft.cpp
00000000 l    df *ABS*	00000000 chasing_leds.cpp
00000000 l    df *ABS*	00000000 chu_init.cpp
01423108 l     F .text	00000088 _Z41__static_initialization_and_destruction_0ii
01423190 l     F .text	00000030 _GLOBAL__sub_I__sys_timer
014231c0 l     F .text	00000030 _GLOBAL__sub_D__sys_timer
00000000 l    df *ABS*	00000000 ddfs_core.cpp
00000000 l    df *ABS*	00000000 de10_baseline.cpp
014236e0 l     F .text	00000174 _Z41__static_initialization_and_destruction_0ii
01423854 l     F .text	00000030 _GLOBAL__sub_I_led
01423884 l     F .text	00000030 _GLOBAL__sub_D_led
00000000 l    df *ABS*	00000000 gpio_cores.cpp
00000000 l    df *ABS*	00000000 madc_core.cpp
00000000 l    df *ABS*	00000000 rtttl.cpp
00000000 l    df *ABS*	00000000 sseg_core.cpp
0142dccf l     O .rodata	00000010 _ZZN8SsegCore3h2sEiE9PTN_TABLE
00000000 l    df *ABS*	00000000 timer_core.cpp
00000000 l    df *ABS*	00000000 uart_core.cpp
00000000 l    df *ABS*	00000000 ws2812_core.cpp
00000000 l    df *ABS*	00000000 eh_personality.cc
01425c34 l     F .text	000000a4 _ZL21size_of_encoded_valueh
01425cd8 l     F .text	0000020c _ZL28read_encoded_value_with_basehjPKhPj
01425ee4 l     F .text	00000054 _ZL15get_ttype_entryP16lsda_header_infom
01425f38 l     F .text	0000008c _ZL21base_of_encoded_valuehP15_Unwind_Context
01425fc4 l     F .text	00000134 _ZL17parse_lsda_headerP15_Unwind_ContextPKhP16lsda_header_info
014260f8 l     F .text	00000088 _ZL16get_adjusted_ptrPKSt9type_infoS1_PPv.constprop.3
01426180 l     F .text	0000022c _ZL28check_compact_exception_specPKSt9type_infoPvPKhij
014263ac l     F .text	000000a8 _ZL20check_exception_specP16lsda_header_infoPKSt9type_infoPvl
00000000 l    df *ABS*	00000000 eh_throw.cc
01426c84 l     F .text	00000044 _ZL23__gxx_exception_cleanup19_Unwind_Reason_CodeP17_Unwind_Exception
00000000 l    df *ABS*	00000000 eh_catch.cc
00000000 l    df *ABS*	00000000 eh_terminate.cc
00000000 l    df *ABS*	00000000 eh_unex_handler.cc
00000000 l    df *ABS*	00000000 eh_alloc.cc
014270b4 l     F .text	000000b8 _ZN12_GLOBAL__N_14pool4freeEPv.constprop.4
0142f4fc l     O .bss	00000010 _ZN12_GLOBAL__N_114emergency_poolE
0142716c l     F .text	000000a8 _ZN12_GLOBAL__N_14pool8allocateEj.constprop.5
0142731c l     F .text	0000005c _GLOBAL__sub_I___cxa_allocate_exception
00000000 l    df *ABS*	00000000 eh_call.cc
00000000 l    df *ABS*	00000000 eh_globals.cc
0142f494 l     O .bss	00000008 _ZL10eh_globals
00000000 l    df *ABS*	00000000 eh_exception.cc
00000000 l    df *ABS*	00000000 eh_term_handler.cc
00000000 l    df *ABS*	00000000 del_op.cc
00000000 l    df *ABS*	00000000 pure.cc
00000000 l    df *ABS*	00000000 class_type_info.cc
00000000 l    df *ABS*	00000000 si_class_type_info.cc
00000000 l    df *ABS*	00000000 tinfo.cc
00000000 l    df *ABS*	00000000 libgcc2.c
00000000 l    df *ABS*	00000000 libgcc2.c
00000000 l    df *ABS*	00000000 libgcc2.c
00000000 l    df *ABS*	00000000 libgcc2.c
00000000 l    df *ABS*	00000000 lib2-divmod.c
00000000 l    df *ABS*	00000000 lib2-mul.c
00000000 l    df *ABS*	00000000 divsf3.c
00000000 l    df *ABS*	00000000 gesf2.c
00000000 l    df *ABS*	00000000 mulsf3.c
00000000 l    df *ABS*	00000000 subsf3.c
00000000 l    df *ABS*	00000000 fixsfsi.c
00000000 l    df *ABS*	00000000 floatsisf.c
00000000 l    df *ABS*	00000000 floatunsisf.c
00000000 l    df *ABS*	00000000 divdf3.c
00000000 l    df *ABS*	00000000 eqdf2.c
00000000 l    df *ABS*	00000000 gedf2.c
00000000 l    df *ABS*	00000000 ledf2.c
00000000 l    df *ABS*	00000000 muldf3.c
00000000 l    df *ABS*	00000000 subdf3.c
00000000 l    df *ABS*	00000000 fixdfsi.c
00000000 l    df *ABS*	00000000 floatsidf.c
00000000 l    df *ABS*	00000000 floatunsidf.c
00000000 l    df *ABS*	00000000 unwind-sjlj.c
0142b8e4 l     F .text	00000118 _Unwind_ForcedUnwind_Phase2
0142f49c l     O .bss	00000004 fc_static
0142b9fc l     F .text	000000c0 _Unwind_RaiseException_Phase2
0142babc l     F .text	00000030 uw_install_context.isra.1
00000000 l    df *ABS*	00000000 libgcc2.c
00000000 l    df *ABS*	00000000 libgcc2.c
00000000 l    df *ABS*	00000000 abort.c
00000000 l    df *ABS*	00000000 malloc.c
00000000 l    df *ABS*	00000000 mallocr.c
00000000 l    df *ABS*	00000000 memset.c
00000000 l    df *ABS*	00000000 sbrkr.c
00000000 l    df *ABS*	00000000 signal.c
00000000 l    df *ABS*	00000000 signalr.c
00000000 l    df *ABS*	00000000 strcmp.c
00000000 l    df *ABS*	00000000 mallocr.c
00000000 l    df *ABS*	00000000 impure.c
0142e410 l     O .rwdata	00000424 impure_data
00000000 l    df *ABS*	00000000 int_errno.c
00000000 l    df *ABS*	00000000 alt_exit.c
00000000 l    df *ABS*	00000000 alt_getpid.c
00000000 l    df *ABS*	00000000 alt_kill.c
0142d098 l     F .text	0000003c alt_get_errno
00000000 l    df *ABS*	00000000 alt_load.c
0142d204 l     F .text	00000068 alt_load_section
00000000 l    df *ABS*	00000000 alt_main.c
00000000 l    df *ABS*	00000000 alt_malloc_lock.c
00000000 l    df *ABS*	00000000 alt_sbrk.c
0142ea14 l     O .rwdata	00000004 heap_end
00000000 l    df *ABS*	00000000 alt_write.c
0142d448 l     F .text	0000003c alt_get_errno
00000000 l    df *ABS*	00000000 alt_sys_init.c
00000000 l    df *ABS*	00000000 alt_close.c
0142d5e0 l     F .text	0000003c alt_get_errno
00000000 l    df *ABS*	00000000 alt_dcache_flush_all.c
00000000 l    df *ABS*	00000000 alt_dev.c
0142d714 l     F .text	0000002c alt_dev_null_write
00000000 l    df *ABS*	00000000 alt_do_ctors.c
00000000 l    df *ABS*	00000000 alt_do_dtors.c
00000000 l    df *ABS*	00000000 alt_errno.c
00000000 l    df *ABS*	00000000 alt_icache_flush_all.c
00000000 l    df *ABS*	00000000 alt_release_fd.c
00000000 l    df *ABS*	00000000 altera_nios2_gen2_irq.c
00000000 l    df *ABS*	00000000 atexit.c
00000000 l    df *ABS*	00000000 exit.c
00000000 l    df *ABS*	00000000 __atexit.c
00000000 l    df *ABS*	00000000 __call_atexit.c
01423f0c g     F .text	00000038 _ZN8MadcCore14read_fpga_tempEv
01427274 g     F .text	00000028 __cxa_free_exception
01425390 g     F .text	000001c0 _ZN8UartCore4dispEiii
014279f4 g     F .text	00000008 _ZNKSt9type_info15__is_function_pEv
01427054 g     F .text	00000018 _ZSt10unexpectedv
0142d2f0 g     F .text	00000060 alt_main
014231f0 g     F .text	00000044 _ZN8DdfsCoreC1Em
0142486c g     F .text	00000210 _ZN8SsegCore9write_ledEv
0142005c g     F .text	0000006c _putchar
01427410 g     F .text	00000004 _ZN10__cxxabiv115__forced_unwindD1Ev
01422ab0 g     F .text	0000002c _ZN9BlinkSoft2goEv
0142bb78 g     F .text	00000020 .hidden _Unwind_GetIPInfo
0142ea30 g       *ABS*	00000000 __flash_rwdata_start
0142a320 g     F .text	00000088 .hidden __eqdf2
01426d58 g     F .text	00000084 __cxa_rethrow
01423090 g     F .text	00000078 map
0142bb04 g     F .text	00000014 .hidden _Unwind_SjLj_Unregister
01427090 g     F .text	00000014 _ZSt14set_unexpectedPFvvE
0142bb68 g     F .text	00000010 .hidden _Unwind_GetIP
0142f534 g       *ABS*	00000000 __alt_heap_start
0142cad4 g     F .text	0000005c _kill_r
0142206c g     F .text	00000068 printf
0142242c g     F .text	00000048 _ZN8AdsrCore6bypassEv
0142c89c g     F .text	00000084 _signal_r
014272f0 g     F .text	0000002c __cxa_free_dependent_exception
0142772c g     F .text	00000010 _ZN10__cxxabiv120__si_class_type_infoD2Ev
0142de68  w    O .rodata	00000025 _ZTSN10__cxxabiv120__si_class_type_infoE
0142d374 g     F .text	00000024 __malloc_unlock
0142589c g     F .text	0000009c _ZN10Ws2812Core14set_brightnessEd
01427410 g     F .text	00000004 _ZN10__cxxabiv115__forced_unwindD2Ev
01426f4c g     F .text	00000020 _ZSt18uncaught_exceptionv
014288bc g     F .text	00000440 .hidden __divsf3
014224f0 g     F .text	000000cc _ZN8AdsrCore10select_envEi
014239d4 g     F .text	0000002c _ZN12DebounceCore4readEv
01427444 g     F .text	00000020 __cxa_deleted_virtual
01422a68 g     F .text	00000048 _ZN9BlinkSoft8set_rateEi
01423de8 g     F .text	00000024 _ZN8MadcCoreD1Ev
01423de8 g     F .text	00000024 _ZN8MadcCoreD2Ev
014273e8 g     F .text	00000004 _ZNSt9exceptionD2Ev
01422138 g     F .text	00000064 snprintf
01423b68 g     F .text	00000094 _ZN7GpoCore5writeEii
01425878 g     F .text	00000024 _ZN10Ws2812CoreD1Ev
0142580c g     F .text	0000006c _ZN10Ws2812CoreC1Emii
014296cc g     F .text	00000070 .hidden __fixsfsi
0142347c g     F .text	00000074 _ZN8DdfsCore7set_envEf
0142a3a8 g     F .text	000000dc .hidden __gtdf2
0142dd94  w    O .rodata	00000014 _ZTVSt13bad_exception
0142d8a4 g     F .text	00000024 altera_nios2_gen2_irq_init
01425754 g     F .text	00000048 _ZN8UartCore4dispEd
014239b0 g     F .text	00000024 _ZN12DebounceCoreD2Ev
01420000 g     F .entry	0000000c __reset
014229ec g     F .text	00000058 _ZN9BlinkSoftC1Ev
0142bbb4 g     F .text	00000008 .hidden _Unwind_GetRegionStart
01420020 g       *ABS*	00000000 __flash_exceptions_start
0142f4ac g     O .bss	00000004 errno
0142bd90 g     F .text	00000074 .hidden _Unwind_Backtrace
01423938 g     F .text	00000044 _ZN7GpiCore4readEi
0142f4b4 g     O .bss	00000004 alt_argv
014369dc g       *ABS*	00000000 _gp
01422fa8 g     F .text	000000c8 debug_on
014291e8 g     F .text	000004e4 .hidden __subsf3
0142f48c g     O .bss	00000008 jtag
0142d078 g     F .text	00000020 getpid
01423234 g     F .text	00000024 _ZN8DdfsCoreD2Ev
01424a7c g     F .text	00000080 _ZN8SsegCore10write_8ptnEPh
01426a54 g     F .text	00000230 __cxa_call_unexpected
01426ddc g     F .text	00000008 __cxa_get_exception_ptr
0142e85c g     O .rwdata	00000180 alt_fd_list
0142f4e8 g     O .bss	00000014 neopixel
01425550 g     F .text	00000044 _ZN8UartCore4dispEi
0142bca4 g     F .text	00000044 .hidden _Unwind_SjLj_ForcedUnwind
0142bb34 g     F .text	00000018 .hidden _Unwind_GetCFA
0142706c g     F .text	00000014 _ZSt13set_terminatePFvvE
0142729c g     F .text	00000054 __cxa_allocate_dependent_exception
01200000 g       *ABS*	00000000 __alt_mem_onchip_flash_0_data
01424684 g     F .text	00000028 _ZN5Rtttl9read_noteEv
014274dc g     F .text	00000018 _ZNK10__cxxabiv117__class_type_info20__do_find_public_srcEiPKvPKS0_S2_
0142b760 g     F .text	000000dc .hidden __floatsidf
01423fac g     F .text	0000032c _ZN5Rtttl12parse_headerEPc
0142a484 g     F .text	000000f4 .hidden __ltdf2
014222ec g     F .text	000000a4 _ZN8AdsrCore4initEv
0142dc00 g       *ABS*	00000000 __DTOR_END__
014274f4 g     F .text	00000010 _ZN10__cxxabiv117__class_type_infoD1Ev
014238b4 g     F .text	00000034 _ZN7GpiCoreC2Em
014251b4 g     F .text	00000044 _ZN8UartCore13rx_fifo_emptyEv
0142580c g     F .text	0000006c _ZN10Ws2812CoreC2Emii
0142be80 g     F .text	00000014 malloc
01420000 g       *ABS*	00000000 __alt_mem_onchip_memory2_0
014287d8 g     F .text	00000064 .hidden __udivsi3
0142c920 g     F .text	000000bc _raise_r
0142219c g     F .text	00000054 vsnprintf
01427aac g     F .text	00000074 .hidden __fixunsdfsi
014229ec g     F .text	00000058 _ZN9BlinkSoftC2Ev
0142f4a8 g     O .bss	00000004 __malloc_top_pad
01424794 g     F .text	000000b4 _ZN8SsegCoreC1Emi
0142cb30 g     F .text	00000004 _getpid_r
01422984 g     F .text	00000068 _ZN9BlinkSoftC2Ei
01422b0c g     F .text	00000034 _ZN9BlinkSoft11SetPositionEi
01427674 g     F .text	000000b8 _ZNK10__cxxabiv117__class_type_info10__do_catchEPKSt9type_infoPPvj
0142c9dc g     F .text	000000a8 __sigtramp_r
01423e0c g     F .text	0000004c _ZN8MadcCore16read_channel_rawEi
01424714 g     F .text	00000034 _ZN5Rtttl6rewindEv
01424848 g     F .text	00000024 _ZN8SsegCoreD1Ev
0142c7dc g     F .text	00000054 _sbrk_r
01422e84 g     F .text	00000038 now_us
0142ded8  w    O .rodata	00000020 _ZTVSt9type_info
014273f0 g     F .text	0000000c _ZNKSt9exception4whatEv
0142ea28 g     O .rwdata	00000004 alt_max_fd
0142f4a4 g     O .bss	00000004 __malloc_max_sbrked_mem
01423f88 g     F .text	00000024 _ZN5RtttlD1Ev
01423a44 g     F .text	00000030 _ZN12DebounceCore7read_dbEv
01422268 g     F .text	00000060 _ZN8AdsrCoreC2EmP8DdfsCore
01423584 g     F .text	00000094 _ZN8DdfsCore14set_env_sourceEi
0142de9c  w    O .rodata	0000002c _ZTVN10__cxxabiv120__si_class_type_infoE
0142811c g     F .text	000005c4 .hidden __umoddi3
01427538 g     F .text	0000006c _ZNK10__cxxabiv117__class_type_info11__do_upcastEPKS0_PKvRNS0_15__upcast_resultE
01427420 g     F .text	00000004 _ZdlPv
01423258 g     F .text	00000080 _ZN8DdfsCore4initEv
0142ea0c g     O .rwdata	00000004 _global_impure_ptr
0142f534 g       *ABS*	00000000 __bss_end
0142baec g     F .text	00000018 .hidden _Unwind_SjLj_Register
01427b20 g     F .text	000005fc .hidden __udivdi3
0142be68 g     F .text	00000018 abort
0142b83c g     F .text	000000a8 .hidden __floatunsidf
01424de4 g     F .text	0000006c _ZN9TimerCoreC2Em
01426e98 g     F .text	000000b4 __cxa_end_catch
01425ba8 g     F .text	0000008c _ZN10Ws2812Core10clr_matrixEi
014273ec g     F .text	00000004 _ZNSt13bad_exceptionD2Ev
01423d34 g     F .text	00000080 _ZN7PwmCore8set_dutyEdi
01423414 g     F .text	00000068 _ZN8DdfsCore16set_phase_degreeEi
014250e8 g     F .text	00000048 _ZN8UartCoreC2Em
01423a74 g     F .text	00000048 _ZN12DebounceCore7read_dbEi
014259b8 g     F .text	000001f0 _ZN10Ws2812Core6wr_pixEiihhh
0142702c g     F .text	00000018 _ZSt9terminatev
0142e834 g     O .rwdata	00000028 alt_dev_null
01423234 g     F .text	00000024 _ZN8DdfsCoreD1Ev
01423bfc g     F .text	00000048 _ZN7PwmCoreC1Em
01427418 g     F .text	00000004 _ZN10__cxxabiv119__foreign_exceptionD2Ev
0142de0c  w    O .rodata	00000022 _ZTSN10__cxxabiv117__class_type_infoE
0142d6f4 g     F .text	00000020 alt_dcache_flush_all
01423af8 g     F .text	00000024 _ZN7GpoCoreD2Ev
0142e9e0  w    O .rwdata	00000008 _ZTISt9exception
0142b6e0 g     F .text	00000080 .hidden __fixdfsi
014238b4 g     F .text	00000034 _ZN7GpiCoreC1Em
0142ea30 g       *ABS*	00000000 __ram_rwdata_end
014223c8 g     F .text	00000030 _ZN8AdsrCore5startEv
014279f0 g     F .text	00000004 _ZNSt9type_infoD1Ev
0142ea20 g     O .rwdata	00000008 alt_dev_list
01427418 g     F .text	00000004 _ZN10__cxxabiv119__foreign_exceptionD1Ev
0142d484 g     F .text	00000100 write
014221f0 g     F .text	00000078 fctprintf
01427a04 g     F .text	00000004 _ZNSt9type_infoD0Ev
01428cfc g     F .text	000000bc .hidden __gtsf2
0142e008 g       *ABS*	00000000 __ram_rodata_end
01422f48 g     F .text	00000060 sleep_ms
0142d0d4 g     F .text	00000130 kill
014222c8 g     F .text	00000024 _ZN8AdsrCoreD1Ev
0142a484 g     F .text	000000f4 .hidden __ledf2
01422ebc g     F .text	00000044 now_ms
0142f468 g     O .bss	00000008 led
0142883c g     F .text	00000058 .hidden __umodsi3
014279fc g     F .text	00000008 _ZNKSt9type_info11__do_upcastEPKN10__cxxabiv117__class_type_infoEPPv
01427080 g     F .text	00000010 _ZSt13get_terminatev
014250e8 g     F .text	00000048 _ZN8UartCoreC1Em
0142f534 g       *ABS*	00000000 end
01422390 g     F .text	00000038 _ZN8AdsrCore4idleEv
014255dc g     F .text	00000178 _ZN8UartCore4dispEdi
0142bd78 g     F .text	00000018 .hidden _Unwind_DeleteException
0142f458 g     O .bss	00000008 _sys_timer
014238e8 g     F .text	00000024 _ZN7GpiCoreD1Ev
014275a4 g     F .text	000000d0 _ZNK10__cxxabiv117__class_type_info12__do_dyncastEiNS0_10__sub_kindEPKS0_PKvS3_S5_RNS0_16__dyncast_resultE
0142dbe9 g       *ABS*	00000000 __CTOR_LIST__
01440000 g       *ABS*	00000000 __alt_stack_pointer
014252a0 g     F .text	0000006c _ZN8UartCore7rx_byteEv
0142be04 g     F .text	00000064 .hidden __clzsi2
01427464 g     F .text	00000078 _ZNK10__cxxabiv117__class_type_info11__do_upcastEPKS0_PPv
0142dd1c  w    O .rodata	00000012 _ZTSSt13bad_exception
0142cd34 g     F .text	00000310 _free_r
01423b1c g     F .text	0000004c _ZN7GpoCore5writeEm
0142da2c g     F .text	00000180 __call_exitprocs
01424de4 g     F .text	0000006c _ZN9TimerCoreC1Em
0142ea04 g     O .rwdata	00000004 __malloc_sbrk_base
01420020 g     F .text	0000003c _start
0142579c g     F .text	00000070 _ZN8UartCore8disp_strEPKc
0142dec8  w    O .rodata	0000000d _ZTSSt9type_info
01422f00 g     F .text	00000048 sleep_us
01427424 g     F .text	00000020 __cxa_pure_virtual
01424794 g     F .text	000000b4 _ZN8SsegCoreC2Emi
0142ca98 g     F .text	00000018 signal
0142d5bc g     F .text	00000024 alt_sys_init
0142973c g     F .text	00000124 .hidden __floatsisf
0142d914 g     F .text	00000118 __register_exitproc
01427770 g     F .text	00000160 _ZNK10__cxxabiv120__si_class_type_info12__do_dyncastEiNS_17__class_type_info10__sub_kindEPKS1_PKvS4_S6_RNS1_16__dyncast_resultE
01424f6c g     F .text	00000078 _ZN9TimerCore9read_tickEv
01422698 g     F .text	000000f4 _ZN8AdsrCore14calc_note_freqEii
01425594 g     F .text	00000048 _ZN8UartCore4dispEii
01428894 g     F .text	00000028 .hidden __mulsi3
0142e008 g       *ABS*	00000000 __ram_rwdata_start
0142bbd4 g     F .text	000000d0 .hidden _Unwind_SjLj_RaiseException
0142f474 g     O .bss	00000004 adc
0142dc00 g       *ABS*	00000000 __ram_rodata_start
0142f50c g     O .bss	00000028 __malloc_current_mallinfo
0142bce8 g     F .text	00000044 .hidden _Unwind_SjLj_Resume
0142ddbc  w    O .rodata	00000014 _ZTVN10__cxxabiv119__foreign_exceptionE
014279f0 g     F .text	00000004 _ZNSt9type_infoD2Ev
0142741c g     F .text	00000004 _ZN10__cxxabiv119__foreign_exceptionD0Ev
014251f8 g     F .text	00000044 _ZN8UartCore12tx_fifo_fullEv
0142f4cc g     O .bss	0000001c adsr
0142796c g     F .text	00000084 _ZNK10__cxxabiv120__si_class_type_info11__do_upcastEPKNS_17__class_type_infoEPKvRNS1_15__upcast_resultE
014232d8 g     F .text	0000009c _ZN8DdfsCore16set_carrier_freqEi
01423db4 g     F .text	00000034 _ZN8MadcCoreC2Em
014242d8 g     F .text	00000384 _ZN5Rtttl15parse_next_noteEv
01422984 g     F .text	00000068 _ZN9BlinkSoftC1Ei
01423c44 g     F .text	00000024 _ZN7PwmCoreD1Ev
0142e9f0  w    O .rwdata	00000008 _ZTIN10__cxxabiv119__foreign_exceptionE
01425050 g     F .text	00000098 _ZN9TimerCore5sleepEy
014231f0 g     F .text	00000044 _ZN8DdfsCoreC2Em
0142f534 g       *ABS*	00000000 __alt_stack_base
01424ba4 g     F .text	00000044 _ZN8SsegCore14set_brightnessEh
0142772c g     F .text	00000010 _ZN10__cxxabiv120__si_class_type_infoD1Ev
0142bd2c g     F .text	0000004c .hidden _Unwind_SjLj_Resume_or_Rethrow
01429950 g     F .text	000009d0 .hidden __divdf3
01425130 g     F .text	00000024 _ZN8UartCoreD1Ev
01422474 g     F .text	0000007c _ZN8AdsrCore7set_envEiiiif
014279f4 g     F .text	00000008 _ZNKSt9type_info14__is_pointer_pEv
0142e008 g     O .rwdata	00000408 __malloc_av_
0142523c g     F .text	00000064 _ZN8UartCore7tx_byteEh
01424e50 g     F .text	00000024 _ZN9TimerCoreD2Ev
0142a578 g     F .text	0000086c .hidden __muldf3
0142dd80  w    O .rodata	00000014 _ZTVSt9exception
01427414 g     F .text	00000004 _ZN10__cxxabiv115__forced_unwindD0Ev
0142d350 g     F .text	00000024 __malloc_lock
0142d398 g     F .text	000000b0 sbrk
0142397c g     F .text	00000034 _ZN12DebounceCoreC1Em
0142de3c  w    O .rodata	0000002c _ZTVN10__cxxabiv117__class_type_infoE
01426cc8 g     F .text	00000090 __cxa_throw
01424748 g     F .text	0000004c _ZN5Rtttl8is_digitEc
0142bb98 g     F .text	00000010 .hidden _Unwind_SetIP
0142f458 g       *ABS*	00000000 __bss_start
01425348 g     F .text	00000048 _ZN8UartCore4dispEc
0142c6b4 g     F .text	00000128 memset
01423a00 g     F .text	00000044 _ZN12DebounceCore4readEi
01422c90 g     F .text	000001f4 main
0142f4b8 g     O .bss	00000004 alt_envp
0142f4a0 g     O .bss	00000004 __malloc_max_total_mem
0142f484 g     O .bss	00000008 ddfs
01423abc g     F .text	0000003c _ZN7GpoCoreC2Em
014273d0 g     F .text	0000000c __cxa_get_globals_fast
0142f4bc g     O .bss	00000010 sseg
0142530c g     F .text	0000003c _ZN8UartCore4dispEPKc
014223f8 g     F .text	00000034 _ZN8AdsrCore5abortEv
01440000 g       *ABS*	00000000 __alt_heap_limit
0142bea8 g     F .text	0000080c _malloc_r
014273fc g     F .text	0000000c _ZNKSt13bad_exception4whatEv
0142ea2c g     O .rwdata	00000004 alt_errno
0142cab0 g     F .text	00000010 _init_signal
0142de30  w    O .rodata	0000000c _ZTIN10__cxxabiv117__class_type_infoE
01422a44 g     F .text	00000024 _ZN9BlinkSoftD1Ev
014273ec g     F .text	00000004 _ZNSt13bad_exceptionD1Ev
01424f20 g     F .text	0000004c _ZN9TimerCore5clearEv
014286e0 g     F .text	00000084 .hidden __divsi3
0142cc10 g     F .text	00000124 _malloc_trim_r
0142dbf8 g       *ABS*	00000000 __CTOR_END__
01428db8 g     F .text	00000430 .hidden __mulsf3
0142cb34 g     F .text	000000dc strcmp
0142dc00 g       *ABS*	00000000 __flash_rodata_start
0142dda8  w    O .rodata	00000014 _ZTVN10__cxxabiv115__forced_unwindE
0142dbf8 g       *ABS*	00000000 __DTOR_LIST__
01423f44 g     F .text	00000044 _ZN5RtttlC2Ev
014246d4 g     F .text	00000040 _ZN5Rtttl6is_endEv
0142a320 g     F .text	00000088 .hidden __nedf2
014239b0 g     F .text	00000024 _ZN12DebounceCoreD1Ev
014246ac g     F .text	00000028 _ZN5Rtttl13read_intervalEv
0142d584 g     F .text	00000038 alt_irq_init
0142d820 g     F .text	00000084 alt_release_fd
0142773c g     F .text	00000034 _ZN10__cxxabiv120__si_class_type_infoD0Ev
014220d4 g     F .text	00000064 sprintf
0142def8 g     O .rodata	00000100 .hidden __clz_tab
0142d8c8 g     F .text	00000014 atexit
01428cfc g     F .text	000000bc .hidden __gesf2
01424848 g     F .text	00000024 _ZN8SsegCoreD2Ev
01424b54 g     F .text	00000050 _ZN8SsegCore6set_dpEh
0142bbcc g     F .text	00000008 .hidden _Unwind_GetTextRelBase
01427378 g     F .text	00000058 __cxa_call_terminate
0142ea10 g     O .rwdata	00000004 _impure_ptr
0142e9e8  w    O .rwdata	00000008 _ZTIN10__cxxabiv115__forced_unwindE
0142f4b0 g     O .bss	00000004 alt_argc
0142d7a0 g     F .text	00000060 _do_dtors
0142f470 g     O .bss	00000004 sw
01423618 g     F .text	00000094 _ZN8DdfsCore14set_pha_sourceEi
01422b40 g     F .text	00000150 _ZN9BlinkSoft15poll_and_toggleEv
014270a4 g     F .text	00000010 _ZSt14get_unexpectedv
0142465c g     F .text	00000028 _ZN5Rtttl8read_octEv
0142bbbc g     F .text	00000008 .hidden _Unwind_FindEnclosingFunction
01423cc0 g     F .text	00000074 _ZN7PwmCore8set_dutyEii
0142f478 g     O .bss	00000008 pwm
0142278c g     F .text	000001f8 _ZN8AdsrCore14write_adsr_regEv
01424fe4 g     F .text	0000006c _ZN9TimerCore9read_timeEv
0142ea18 g     O .rwdata	00000008 alt_fs_list
0142dd5c  w    O .rodata	00000024 _ZTSN10__cxxabiv119__foreign_exceptionE
01423bfc g     F .text	00000048 _ZN7PwmCoreC2Em
01423070 g     F .text	00000020 debug_off
0142bba8 g     F .text	0000000c .hidden _Unwind_GetLanguageSpecificData
01423f44 g     F .text	00000044 _ZN5RtttlC1Ev
01426de4 g     F .text	000000b4 __cxa_begin_catch
014274f4 g     F .text	00000010 _ZN10__cxxabiv117__class_type_infoD2Ev
01427044 g     F .text	00000010 _ZN10__cxxabiv112__unexpectedEPFvvE
01424ecc g     F .text	00000054 _ZN9TimerCore2goEv
01420020 g       *ABS*	00000000 __ram_exceptions_start
0142397c g     F .text	00000034 _ZN12DebounceCoreC2Em
0142740c g     F .text	00000004 _ZNSt13bad_exceptionD0Ev
0142e9f8 g     O .rwdata	00000004 _ZN10__cxxabiv119__terminate_handlerE
01427214 g     F .text	00000060 __cxa_allocate_exception
01425878 g     F .text	00000024 _ZN10Ws2812CoreD2Ev
0142de90  w    O .rodata	0000000c _ZTIN10__cxxabiv120__si_class_type_infoE
014225bc g     F .text	000000dc _ZN8AdsrCore9play_noteEiii
0142ea30 g       *ABS*	00000000 _edata
0142f534 g       *ABS*	00000000 _end
01426454 g     F .text	00000600 __gxx_personality_sj0
01420020 g       *ABS*	00000000 __ram_exceptions_end
01422a44 g     F .text	00000024 _ZN9BlinkSoftD2Ev
014234f0 g     F .text	00000094 _ZN8DdfsCore14set_fow_sourceEi
014273e8 g     F .text	00000004 _ZNSt9exceptionD1Ev
01423abc g     F .text	0000003c _ZN7GpoCoreC1Em
01425130 g     F .text	00000024 _ZN8UartCoreD2Ev
0142ea08 g     O .rwdata	00000004 __malloc_trim_threshold
01424afc g     F .text	00000058 _ZN8SsegCore10write_1ptnEhi
0142d8dc g     F .text	00000038 exit
0142bb4c g     F .text	0000001c .hidden _Unwind_SetGR
014278d0 g     F .text	0000009c _ZNK10__cxxabiv120__si_class_type_info20__do_find_public_srcEiPKvPKNS_17__class_type_infoES2_
01429860 g     F .text	000000f0 .hidden __floatunsisf
01426f6c g     F .text	000000c0 _ZN10__cxxabiv111__terminateEPFvvE
01425154 g     F .text	00000060 _ZN8UartCore13set_baud_rateEi
01428764 g     F .text	00000074 .hidden __modsi3
01423f88 g     F .text	00000024 _ZN5RtttlD2Ev
01423c68 g     F .text	00000058 _ZN7PwmCore8set_freqEi
01440000 g       *ABS*	00000000 __alt_data_end
0142f460 g     O .bss	00000008 uart
0142dd30  w    O .rodata	0000000c _ZTISt13bad_exception
01424c40 g     F .text	000001a4 _ZN8SsegCore6i2ssegEiiiiii
01427a4c g     F .text	00000060 .hidden __fixunssfsi
0142390c g     F .text	0000002c _ZN7GpiCore4readEv
0142d044 g     F .text	00000034 _exit
01423e58 g     F .text	000000b4 _ZN8MadcCore11read_adc_inEi
014238e8 g     F .text	00000024 _ZN7GpiCoreD2Ev
0142bb18 g     F .text	0000001c .hidden _Unwind_GetGR
014273dc g     F .text	0000000c __cxa_get_globals
014236ac g     F .text	00000034 _ZN8DdfsCore8read_pcmEv
0142e9dc g     O .rwdata	00000004 _ZN10__cxxabiv120__unexpected_handlerE
01423c44 g     F .text	00000024 _ZN7PwmCoreD2Ev
0142c830 g     F .text	0000006c _init_signal_r
0142e9fc  w    O .rwdata	00000008 _ZTISt9type_info
0142a3a8 g     F .text	000000dc .hidden __gedf2
0142dd0c  w    O .rodata	0000000d _ZTSSt9exception
01427408 g     F .text	00000004 _ZNSt9exceptionD0Ev
01423db4 g     F .text	00000034 _ZN8MadcCoreC1Em
01424e74 g     F .text	00000058 _ZN9TimerCore5pauseEv
0142d800 g     F .text	00000020 alt_icache_flush_all
014222c8 g     F .text	00000024 _ZN8AdsrCoreD2Ev
01424e50 g     F .text	00000024 _ZN9TimerCoreD1Ev
0142bbc4 g     F .text	00000008 .hidden _Unwind_GetDataRelBase
0142f480 g     O .bss	00000004 btn
0142ade4 g     F .text	000008fc .hidden __subdf3
01425938 g     F .text	00000080 _ZN10Ws2812Core6wr_pixEiii
0142d740 g     F .text	00000060 _do_ctors
0142cac0 g     F .text	00000014 __sigtramp
01422adc g     F .text	00000030 _ZN9BlinkSoft4stopEv
01422268 g     F .text	00000060 _ZN8AdsrCoreC1EmP8DdfsCore
0142d61c g     F .text	000000d8 close
01424be8 g     F .text	00000058 _ZN8SsegCore3h2sEi
0142dd3c  w    O .rodata	00000020 _ZTSN10__cxxabiv115__forced_unwindE
0142d26c g     F .text	00000084 alt_load
01423374 g     F .text	000000a0 _ZN8DdfsCore15set_offset_freqEi
01427a08 g     F .text	00000044 _ZNKSt9type_info10__do_catchEPKS_PPvj
0142ca84 g     F .text	00000014 raise
0142be94 g     F .text	00000014 free
01427504 g     F .text	00000034 _ZN10__cxxabiv117__class_type_infoD0Ev
01423af8 g     F .text	00000024 _ZN7GpoCoreD1Ev



Disassembly of section .entry:

01420000 <__reset>:
 1420000:	004050b4 	movhi	at,322
 1420004:	08400814 	ori	at,at,32
 1420008:	0800683a 	jmp	at
	...

Disassembly of section .text:

01420020 <_start>:
 1420020:	06c05134 	movhi	sp,324
 1420024:	dec00014 	ori	sp,sp,0
 1420028:	068050f4 	movhi	gp,323
 142002c:	d69a7714 	ori	gp,gp,27100
 1420030:	008050b4 	movhi	r2,322
 1420034:	10bd1614 	ori	r2,r2,62552
 1420038:	00c050b4 	movhi	r3,322
 142003c:	18fd4d14 	ori	r3,r3,62772
 1420040:	10c00326 	beq	r2,r3,1420050 <_start+0x30>
 1420044:	10000015 	stw	zero,0(r2)
 1420048:	10800104 	addi	r2,r2,4
 142004c:	10fffd36 	bltu	r2,r3,1420044 <__alt_data_end+0xfffe0044>
 1420050:	142d26c0 	call	142d26c <alt_load>
 1420054:	142d2f00 	call	142d2f0 <alt_main>

01420058 <alt_after_alt_main>:
 1420058:	003fff06 	br	1420058 <__alt_data_end+0xfffe0058>

0142005c <_putchar>:
 142005c:	defffb04 	addi	sp,sp,-20
 1420060:	df000415 	stw	fp,16(sp)
 1420064:	df000404 	addi	fp,sp,16
 1420068:	2005883a 	mov	r2,r4
 142006c:	e0bfff05 	stb	r2,-4(fp)
 1420070:	00b00034 	movhi	r2,49152
 1420074:	10802004 	addi	r2,r2,128
 1420078:	e0bffc15 	stw	r2,-16(fp)
 142007c:	e0bffc17 	ldw	r2,-16(fp)
 1420080:	10800017 	ldw	r2,0(r2)
 1420084:	e0bffd15 	stw	r2,-12(fp)
 1420088:	e0bffd17 	ldw	r2,-12(fp)
 142008c:	1080800c 	andi	r2,r2,512
 1420090:	1005d27a 	srai	r2,r2,9
 1420094:	e0bffe15 	stw	r2,-8(fp)
 1420098:	e0bffe17 	ldw	r2,-8(fp)
 142009c:	103ff71e 	bne	r2,zero,142007c <__alt_data_end+0xfffe007c>
 14200a0:	e0bffc17 	ldw	r2,-16(fp)
 14200a4:	10800204 	addi	r2,r2,8
 14200a8:	1007883a 	mov	r3,r2
 14200ac:	e0bfff07 	ldb	r2,-4(fp)
 14200b0:	18800015 	stw	r2,0(r3)
 14200b4:	0001883a 	nop
 14200b8:	e037883a 	mov	sp,fp
 14200bc:	df000017 	ldw	fp,0(sp)
 14200c0:	dec00104 	addi	sp,sp,4
 14200c4:	f800283a 	ret

014200c8 <_out_buffer>:
 14200c8:	defffb04 	addi	sp,sp,-20
 14200cc:	df000415 	stw	fp,16(sp)
 14200d0:	df000404 	addi	fp,sp,16
 14200d4:	2005883a 	mov	r2,r4
 14200d8:	e17ffd15 	stw	r5,-12(fp)
 14200dc:	e1bffe15 	stw	r6,-8(fp)
 14200e0:	e1ffff15 	stw	r7,-4(fp)
 14200e4:	e0bffc05 	stb	r2,-16(fp)
 14200e8:	e0fffe17 	ldw	r3,-8(fp)
 14200ec:	e0bfff17 	ldw	r2,-4(fp)
 14200f0:	1880052e 	bgeu	r3,r2,1420108 <_out_buffer+0x40>
 14200f4:	e0fffd17 	ldw	r3,-12(fp)
 14200f8:	e0bffe17 	ldw	r2,-8(fp)
 14200fc:	1885883a 	add	r2,r3,r2
 1420100:	e0fffc03 	ldbu	r3,-16(fp)
 1420104:	10c00005 	stb	r3,0(r2)
 1420108:	0001883a 	nop
 142010c:	e037883a 	mov	sp,fp
 1420110:	df000017 	ldw	fp,0(sp)
 1420114:	dec00104 	addi	sp,sp,4
 1420118:	f800283a 	ret

0142011c <_out_null>:
 142011c:	defffb04 	addi	sp,sp,-20
 1420120:	df000415 	stw	fp,16(sp)
 1420124:	df000404 	addi	fp,sp,16
 1420128:	2005883a 	mov	r2,r4
 142012c:	e17ffd15 	stw	r5,-12(fp)
 1420130:	e1bffe15 	stw	r6,-8(fp)
 1420134:	e1ffff15 	stw	r7,-4(fp)
 1420138:	e0bffc05 	stb	r2,-16(fp)
 142013c:	0001883a 	nop
 1420140:	e037883a 	mov	sp,fp
 1420144:	df000017 	ldw	fp,0(sp)
 1420148:	dec00104 	addi	sp,sp,4
 142014c:	f800283a 	ret

01420150 <_out_char>:
 1420150:	defffa04 	addi	sp,sp,-24
 1420154:	dfc00515 	stw	ra,20(sp)
 1420158:	df000415 	stw	fp,16(sp)
 142015c:	df000404 	addi	fp,sp,16
 1420160:	2005883a 	mov	r2,r4
 1420164:	e17ffd15 	stw	r5,-12(fp)
 1420168:	e1bffe15 	stw	r6,-8(fp)
 142016c:	e1ffff15 	stw	r7,-4(fp)
 1420170:	e0bffc05 	stb	r2,-16(fp)
 1420174:	e0bffc07 	ldb	r2,-16(fp)
 1420178:	10000326 	beq	r2,zero,1420188 <_out_char+0x38>
 142017c:	e0bffc07 	ldb	r2,-16(fp)
 1420180:	1009883a 	mov	r4,r2
 1420184:	142005c0 	call	142005c <_putchar>
 1420188:	0001883a 	nop
 142018c:	e037883a 	mov	sp,fp
 1420190:	dfc00117 	ldw	ra,4(sp)
 1420194:	df000017 	ldw	fp,0(sp)
 1420198:	dec00204 	addi	sp,sp,8
 142019c:	f800283a 	ret

014201a0 <_out_fct>:
 14201a0:	defffa04 	addi	sp,sp,-24
 14201a4:	dfc00515 	stw	ra,20(sp)
 14201a8:	df000415 	stw	fp,16(sp)
 14201ac:	df000404 	addi	fp,sp,16
 14201b0:	2005883a 	mov	r2,r4
 14201b4:	e17ffd15 	stw	r5,-12(fp)
 14201b8:	e1bffe15 	stw	r6,-8(fp)
 14201bc:	e1ffff15 	stw	r7,-4(fp)
 14201c0:	e0bffc05 	stb	r2,-16(fp)
 14201c4:	e0bffd17 	ldw	r2,-12(fp)
 14201c8:	10800017 	ldw	r2,0(r2)
 14201cc:	e13ffc07 	ldb	r4,-16(fp)
 14201d0:	e0fffd17 	ldw	r3,-12(fp)
 14201d4:	18c00117 	ldw	r3,4(r3)
 14201d8:	180b883a 	mov	r5,r3
 14201dc:	103ee83a 	callr	r2
 14201e0:	0001883a 	nop
 14201e4:	e037883a 	mov	sp,fp
 14201e8:	dfc00117 	ldw	ra,4(sp)
 14201ec:	df000017 	ldw	fp,0(sp)
 14201f0:	dec00204 	addi	sp,sp,8
 14201f4:	f800283a 	ret

014201f8 <_strlen>:
 14201f8:	defffd04 	addi	sp,sp,-12
 14201fc:	df000215 	stw	fp,8(sp)
 1420200:	df000204 	addi	fp,sp,8
 1420204:	e13fff15 	stw	r4,-4(fp)
 1420208:	e0bfff17 	ldw	r2,-4(fp)
 142020c:	e0bffe15 	stw	r2,-8(fp)
 1420210:	00000306 	br	1420220 <_strlen+0x28>
 1420214:	e0bffe17 	ldw	r2,-8(fp)
 1420218:	10800044 	addi	r2,r2,1
 142021c:	e0bffe15 	stw	r2,-8(fp)
 1420220:	e0bffe17 	ldw	r2,-8(fp)
 1420224:	10800003 	ldbu	r2,0(r2)
 1420228:	10803fcc 	andi	r2,r2,255
 142022c:	1080201c 	xori	r2,r2,128
 1420230:	10bfe004 	addi	r2,r2,-128
 1420234:	103ff71e 	bne	r2,zero,1420214 <__alt_data_end+0xfffe0214>
 1420238:	e0fffe17 	ldw	r3,-8(fp)
 142023c:	e0bfff17 	ldw	r2,-4(fp)
 1420240:	1885c83a 	sub	r2,r3,r2
 1420244:	e037883a 	mov	sp,fp
 1420248:	df000017 	ldw	fp,0(sp)
 142024c:	dec00104 	addi	sp,sp,4
 1420250:	f800283a 	ret

01420254 <_is_digit>:
 1420254:	defffe04 	addi	sp,sp,-8
 1420258:	df000115 	stw	fp,4(sp)
 142025c:	df000104 	addi	fp,sp,4
 1420260:	2005883a 	mov	r2,r4
 1420264:	e0bfff05 	stb	r2,-4(fp)
 1420268:	e0bfff07 	ldb	r2,-4(fp)
 142026c:	10800c10 	cmplti	r2,r2,48
 1420270:	1000051e 	bne	r2,zero,1420288 <_is_digit+0x34>
 1420274:	e0bfff07 	ldb	r2,-4(fp)
 1420278:	10800e88 	cmpgei	r2,r2,58
 142027c:	1000021e 	bne	r2,zero,1420288 <_is_digit+0x34>
 1420280:	00800044 	movi	r2,1
 1420284:	00000106 	br	142028c <_is_digit+0x38>
 1420288:	0005883a 	mov	r2,zero
 142028c:	1080004c 	andi	r2,r2,1
 1420290:	e037883a 	mov	sp,fp
 1420294:	df000017 	ldw	fp,0(sp)
 1420298:	dec00104 	addi	sp,sp,4
 142029c:	f800283a 	ret

014202a0 <_atoi>:
 14202a0:	defffc04 	addi	sp,sp,-16
 14202a4:	dfc00315 	stw	ra,12(sp)
 14202a8:	df000215 	stw	fp,8(sp)
 14202ac:	df000204 	addi	fp,sp,8
 14202b0:	e13fff15 	stw	r4,-4(fp)
 14202b4:	e03ffe15 	stw	zero,-8(fp)
 14202b8:	00001006 	br	14202fc <_atoi+0x5c>
 14202bc:	01400284 	movi	r5,10
 14202c0:	e13ffe17 	ldw	r4,-8(fp)
 14202c4:	14288940 	call	1428894 <__mulsi3>
 14202c8:	100b883a 	mov	r5,r2
 14202cc:	e0bfff17 	ldw	r2,-4(fp)
 14202d0:	10800017 	ldw	r2,0(r2)
 14202d4:	11000044 	addi	r4,r2,1
 14202d8:	e0ffff17 	ldw	r3,-4(fp)
 14202dc:	19000015 	stw	r4,0(r3)
 14202e0:	10800003 	ldbu	r2,0(r2)
 14202e4:	10803fcc 	andi	r2,r2,255
 14202e8:	1080201c 	xori	r2,r2,128
 14202ec:	10bfe004 	addi	r2,r2,-128
 14202f0:	2885883a 	add	r2,r5,r2
 14202f4:	10bff404 	addi	r2,r2,-48
 14202f8:	e0bffe15 	stw	r2,-8(fp)
 14202fc:	e0bfff17 	ldw	r2,-4(fp)
 1420300:	10800017 	ldw	r2,0(r2)
 1420304:	10800003 	ldbu	r2,0(r2)
 1420308:	10803fcc 	andi	r2,r2,255
 142030c:	1080201c 	xori	r2,r2,128
 1420310:	10bfe004 	addi	r2,r2,-128
 1420314:	1009883a 	mov	r4,r2
 1420318:	14202540 	call	1420254 <_is_digit>
 142031c:	10803fcc 	andi	r2,r2,255
 1420320:	103fe61e 	bne	r2,zero,14202bc <__alt_data_end+0xfffe02bc>
 1420324:	e0bffe17 	ldw	r2,-8(fp)
 1420328:	e037883a 	mov	sp,fp
 142032c:	dfc00117 	ldw	ra,4(sp)
 1420330:	df000017 	ldw	fp,0(sp)
 1420334:	dec00204 	addi	sp,sp,8
 1420338:	f800283a 	ret

0142033c <_ntoa_format>:
 142033c:	defff604 	addi	sp,sp,-40
 1420340:	dfc00915 	stw	ra,36(sp)
 1420344:	df000815 	stw	fp,32(sp)
 1420348:	df000804 	addi	fp,sp,32
 142034c:	e13ffb15 	stw	r4,-20(fp)
 1420350:	e17ffc15 	stw	r5,-16(fp)
 1420354:	e1bffd15 	stw	r6,-12(fp)
 1420358:	e1fffe15 	stw	r7,-8(fp)
 142035c:	e0800417 	ldw	r2,16(fp)
 1420360:	e0bfff05 	stb	r2,-4(fp)
 1420364:	e0bffd17 	ldw	r2,-12(fp)
 1420368:	e0bffa15 	stw	r2,-24(fp)
 142036c:	00000706 	br	142038c <_ntoa_format+0x50>
 1420370:	e0800317 	ldw	r2,12(fp)
 1420374:	10c00044 	addi	r3,r2,1
 1420378:	e0c00315 	stw	r3,12(fp)
 142037c:	e0c00217 	ldw	r3,8(fp)
 1420380:	1885883a 	add	r2,r3,r2
 1420384:	00c00c04 	movi	r3,48
 1420388:	10c00005 	stb	r3,0(r2)
 142038c:	e0800817 	ldw	r2,32(fp)
 1420390:	1080008c 	andi	r2,r2,2
 1420394:	10000e1e 	bne	r2,zero,14203d0 <_ntoa_format+0x94>
 1420398:	e0c00317 	ldw	r3,12(fp)
 142039c:	e0800617 	ldw	r2,24(fp)
 14203a0:	18800b2e 	bgeu	r3,r2,14203d0 <_ntoa_format+0x94>
 14203a4:	e0800317 	ldw	r2,12(fp)
 14203a8:	10800830 	cmpltui	r2,r2,32
 14203ac:	103ff01e 	bne	r2,zero,1420370 <__alt_data_end+0xfffe0370>
 14203b0:	00000706 	br	14203d0 <_ntoa_format+0x94>
 14203b4:	e0800317 	ldw	r2,12(fp)
 14203b8:	10c00044 	addi	r3,r2,1
 14203bc:	e0c00315 	stw	r3,12(fp)
 14203c0:	e0c00217 	ldw	r3,8(fp)
 14203c4:	1885883a 	add	r2,r3,r2
 14203c8:	00c00c04 	movi	r3,48
 14203cc:	10c00005 	stb	r3,0(r2)
 14203d0:	e0800817 	ldw	r2,32(fp)
 14203d4:	1080008c 	andi	r2,r2,2
 14203d8:	1000091e 	bne	r2,zero,1420400 <_ntoa_format+0xc4>
 14203dc:	e0800817 	ldw	r2,32(fp)
 14203e0:	1080004c 	andi	r2,r2,1
 14203e4:	10000626 	beq	r2,zero,1420400 <_ntoa_format+0xc4>
 14203e8:	e0c00317 	ldw	r3,12(fp)
 14203ec:	e0800717 	ldw	r2,28(fp)
 14203f0:	1880032e 	bgeu	r3,r2,1420400 <_ntoa_format+0xc4>
 14203f4:	e0800317 	ldw	r2,12(fp)
 14203f8:	10800830 	cmpltui	r2,r2,32
 14203fc:	103fed1e 	bne	r2,zero,14203b4 <__alt_data_end+0xfffe03b4>
 1420400:	e0800817 	ldw	r2,32(fp)
 1420404:	1080040c 	andi	r2,r2,16
 1420408:	10003d26 	beq	r2,zero,1420500 <_ntoa_format+0x1c4>
 142040c:	e0800317 	ldw	r2,12(fp)
 1420410:	10001126 	beq	r2,zero,1420458 <_ntoa_format+0x11c>
 1420414:	e0c00317 	ldw	r3,12(fp)
 1420418:	e0800617 	ldw	r2,24(fp)
 142041c:	18800326 	beq	r3,r2,142042c <_ntoa_format+0xf0>
 1420420:	e0c00317 	ldw	r3,12(fp)
 1420424:	e0800717 	ldw	r2,28(fp)
 1420428:	18800b1e 	bne	r3,r2,1420458 <_ntoa_format+0x11c>
 142042c:	e0800317 	ldw	r2,12(fp)
 1420430:	10bfffc4 	addi	r2,r2,-1
 1420434:	e0800315 	stw	r2,12(fp)
 1420438:	e0800317 	ldw	r2,12(fp)
 142043c:	10000626 	beq	r2,zero,1420458 <_ntoa_format+0x11c>
 1420440:	e0800517 	ldw	r2,20(fp)
 1420444:	10800418 	cmpnei	r2,r2,16
 1420448:	1000031e 	bne	r2,zero,1420458 <_ntoa_format+0x11c>
 142044c:	e0800317 	ldw	r2,12(fp)
 1420450:	10bfffc4 	addi	r2,r2,-1
 1420454:	e0800315 	stw	r2,12(fp)
 1420458:	e0800517 	ldw	r2,20(fp)
 142045c:	10800418 	cmpnei	r2,r2,16
 1420460:	10000d1e 	bne	r2,zero,1420498 <_ntoa_format+0x15c>
 1420464:	e0800817 	ldw	r2,32(fp)
 1420468:	1080080c 	andi	r2,r2,32
 142046c:	10000a1e 	bne	r2,zero,1420498 <_ntoa_format+0x15c>
 1420470:	e0800317 	ldw	r2,12(fp)
 1420474:	10800828 	cmpgeui	r2,r2,32
 1420478:	1000071e 	bne	r2,zero,1420498 <_ntoa_format+0x15c>
 142047c:	e0800317 	ldw	r2,12(fp)
 1420480:	10c00044 	addi	r3,r2,1
 1420484:	e0c00315 	stw	r3,12(fp)
 1420488:	e0c00217 	ldw	r3,8(fp)
 142048c:	1885883a 	add	r2,r3,r2
 1420490:	00c01e04 	movi	r3,120
 1420494:	10c00005 	stb	r3,0(r2)
 1420498:	e0800517 	ldw	r2,20(fp)
 142049c:	10800418 	cmpnei	r2,r2,16
 14204a0:	10000d1e 	bne	r2,zero,14204d8 <_ntoa_format+0x19c>
 14204a4:	e0800817 	ldw	r2,32(fp)
 14204a8:	1080080c 	andi	r2,r2,32
 14204ac:	10000a26 	beq	r2,zero,14204d8 <_ntoa_format+0x19c>
 14204b0:	e0800317 	ldw	r2,12(fp)
 14204b4:	10800828 	cmpgeui	r2,r2,32
 14204b8:	1000071e 	bne	r2,zero,14204d8 <_ntoa_format+0x19c>
 14204bc:	e0800317 	ldw	r2,12(fp)
 14204c0:	10c00044 	addi	r3,r2,1
 14204c4:	e0c00315 	stw	r3,12(fp)
 14204c8:	e0c00217 	ldw	r3,8(fp)
 14204cc:	1885883a 	add	r2,r3,r2
 14204d0:	00c01604 	movi	r3,88
 14204d4:	10c00005 	stb	r3,0(r2)
 14204d8:	e0800317 	ldw	r2,12(fp)
 14204dc:	10800828 	cmpgeui	r2,r2,32
 14204e0:	1000071e 	bne	r2,zero,1420500 <_ntoa_format+0x1c4>
 14204e4:	e0800317 	ldw	r2,12(fp)
 14204e8:	10c00044 	addi	r3,r2,1
 14204ec:	e0c00315 	stw	r3,12(fp)
 14204f0:	e0c00217 	ldw	r3,8(fp)
 14204f4:	1885883a 	add	r2,r3,r2
 14204f8:	00c00c04 	movi	r3,48
 14204fc:	10c00005 	stb	r3,0(r2)
 1420500:	e0800317 	ldw	r2,12(fp)
 1420504:	10000e26 	beq	r2,zero,1420540 <_ntoa_format+0x204>
 1420508:	e0c00317 	ldw	r3,12(fp)
 142050c:	e0800717 	ldw	r2,28(fp)
 1420510:	18800b1e 	bne	r3,r2,1420540 <_ntoa_format+0x204>
 1420514:	e0bfff03 	ldbu	r2,-4(fp)
 1420518:	1000061e 	bne	r2,zero,1420534 <_ntoa_format+0x1f8>
 142051c:	e0800817 	ldw	r2,32(fp)
 1420520:	1080010c 	andi	r2,r2,4
 1420524:	1000031e 	bne	r2,zero,1420534 <_ntoa_format+0x1f8>
 1420528:	e0800817 	ldw	r2,32(fp)
 142052c:	1080020c 	andi	r2,r2,8
 1420530:	10000326 	beq	r2,zero,1420540 <_ntoa_format+0x204>
 1420534:	e0800317 	ldw	r2,12(fp)
 1420538:	10bfffc4 	addi	r2,r2,-1
 142053c:	e0800315 	stw	r2,12(fp)
 1420540:	e0800317 	ldw	r2,12(fp)
 1420544:	10800828 	cmpgeui	r2,r2,32
 1420548:	10001f1e 	bne	r2,zero,14205c8 <_ntoa_format+0x28c>
 142054c:	e0bfff03 	ldbu	r2,-4(fp)
 1420550:	10000826 	beq	r2,zero,1420574 <_ntoa_format+0x238>
 1420554:	e0800317 	ldw	r2,12(fp)
 1420558:	10c00044 	addi	r3,r2,1
 142055c:	e0c00315 	stw	r3,12(fp)
 1420560:	e0c00217 	ldw	r3,8(fp)
 1420564:	1885883a 	add	r2,r3,r2
 1420568:	00c00b44 	movi	r3,45
 142056c:	10c00005 	stb	r3,0(r2)
 1420570:	00001506 	br	14205c8 <_ntoa_format+0x28c>
 1420574:	e0800817 	ldw	r2,32(fp)
 1420578:	1080010c 	andi	r2,r2,4
 142057c:	10000826 	beq	r2,zero,14205a0 <_ntoa_format+0x264>
 1420580:	e0800317 	ldw	r2,12(fp)
 1420584:	10c00044 	addi	r3,r2,1
 1420588:	e0c00315 	stw	r3,12(fp)
 142058c:	e0c00217 	ldw	r3,8(fp)
 1420590:	1885883a 	add	r2,r3,r2
 1420594:	00c00ac4 	movi	r3,43
 1420598:	10c00005 	stb	r3,0(r2)
 142059c:	00000a06 	br	14205c8 <_ntoa_format+0x28c>
 14205a0:	e0800817 	ldw	r2,32(fp)
 14205a4:	1080020c 	andi	r2,r2,8
 14205a8:	10000726 	beq	r2,zero,14205c8 <_ntoa_format+0x28c>
 14205ac:	e0800317 	ldw	r2,12(fp)
 14205b0:	10c00044 	addi	r3,r2,1
 14205b4:	e0c00315 	stw	r3,12(fp)
 14205b8:	e0c00217 	ldw	r3,8(fp)
 14205bc:	1885883a 	add	r2,r3,r2
 14205c0:	00c00804 	movi	r3,32
 14205c4:	10c00005 	stb	r3,0(r2)
 14205c8:	e0800817 	ldw	r2,32(fp)
 14205cc:	1080008c 	andi	r2,r2,2
 14205d0:	1000151e 	bne	r2,zero,1420628 <_ntoa_format+0x2ec>
 14205d4:	e0800817 	ldw	r2,32(fp)
 14205d8:	1080004c 	andi	r2,r2,1
 14205dc:	1000121e 	bne	r2,zero,1420628 <_ntoa_format+0x2ec>
 14205e0:	e0800317 	ldw	r2,12(fp)
 14205e4:	e0bff815 	stw	r2,-32(fp)
 14205e8:	00000c06 	br	142061c <_ntoa_format+0x2e0>
 14205ec:	e0bffd17 	ldw	r2,-12(fp)
 14205f0:	10c00044 	addi	r3,r2,1
 14205f4:	e0fffd15 	stw	r3,-12(fp)
 14205f8:	e0fffb17 	ldw	r3,-20(fp)
 14205fc:	e1fffe17 	ldw	r7,-8(fp)
 1420600:	100d883a 	mov	r6,r2
 1420604:	e17ffc17 	ldw	r5,-16(fp)
 1420608:	01000804 	movi	r4,32
 142060c:	183ee83a 	callr	r3
 1420610:	e0bff817 	ldw	r2,-32(fp)
 1420614:	10800044 	addi	r2,r2,1
 1420618:	e0bff815 	stw	r2,-32(fp)
 142061c:	e0fff817 	ldw	r3,-32(fp)
 1420620:	e0800717 	ldw	r2,28(fp)
 1420624:	18bff136 	bltu	r3,r2,14205ec <__alt_data_end+0xfffe05ec>
 1420628:	e03ff915 	stw	zero,-28(fp)
 142062c:	00001506 	br	1420684 <_ntoa_format+0x348>
 1420630:	e0c00317 	ldw	r3,12(fp)
 1420634:	e0bff917 	ldw	r2,-28(fp)
 1420638:	1885c83a 	sub	r2,r3,r2
 142063c:	10bfffc4 	addi	r2,r2,-1
 1420640:	e0c00217 	ldw	r3,8(fp)
 1420644:	1885883a 	add	r2,r3,r2
 1420648:	10800003 	ldbu	r2,0(r2)
 142064c:	11003fcc 	andi	r4,r2,255
 1420650:	2100201c 	xori	r4,r4,128
 1420654:	213fe004 	addi	r4,r4,-128
 1420658:	e0bffd17 	ldw	r2,-12(fp)
 142065c:	10c00044 	addi	r3,r2,1
 1420660:	e0fffd15 	stw	r3,-12(fp)
 1420664:	e0fffb17 	ldw	r3,-20(fp)
 1420668:	e1fffe17 	ldw	r7,-8(fp)
 142066c:	100d883a 	mov	r6,r2
 1420670:	e17ffc17 	ldw	r5,-16(fp)
 1420674:	183ee83a 	callr	r3
 1420678:	e0bff917 	ldw	r2,-28(fp)
 142067c:	10800044 	addi	r2,r2,1
 1420680:	e0bff915 	stw	r2,-28(fp)
 1420684:	e0fff917 	ldw	r3,-28(fp)
 1420688:	e0800317 	ldw	r2,12(fp)
 142068c:	18bfe836 	bltu	r3,r2,1420630 <__alt_data_end+0xfffe0630>
 1420690:	e0800817 	ldw	r2,32(fp)
 1420694:	1080008c 	andi	r2,r2,2
 1420698:	10000f26 	beq	r2,zero,14206d8 <_ntoa_format+0x39c>
 142069c:	00000906 	br	14206c4 <_ntoa_format+0x388>
 14206a0:	e0bffd17 	ldw	r2,-12(fp)
 14206a4:	10c00044 	addi	r3,r2,1
 14206a8:	e0fffd15 	stw	r3,-12(fp)
 14206ac:	e0fffb17 	ldw	r3,-20(fp)
 14206b0:	e1fffe17 	ldw	r7,-8(fp)
 14206b4:	100d883a 	mov	r6,r2
 14206b8:	e17ffc17 	ldw	r5,-16(fp)
 14206bc:	01000804 	movi	r4,32
 14206c0:	183ee83a 	callr	r3
 14206c4:	e0fffd17 	ldw	r3,-12(fp)
 14206c8:	e0bffa17 	ldw	r2,-24(fp)
 14206cc:	1887c83a 	sub	r3,r3,r2
 14206d0:	e0800717 	ldw	r2,28(fp)
 14206d4:	18bff236 	bltu	r3,r2,14206a0 <__alt_data_end+0xfffe06a0>
 14206d8:	e0bffd17 	ldw	r2,-12(fp)
 14206dc:	e037883a 	mov	sp,fp
 14206e0:	dfc00117 	ldw	ra,4(sp)
 14206e4:	df000017 	ldw	fp,0(sp)
 14206e8:	dec00204 	addi	sp,sp,8
 14206ec:	f800283a 	ret

014206f0 <_ntoa_long>:
 14206f0:	deffe804 	addi	sp,sp,-96
 14206f4:	dfc01715 	stw	ra,92(sp)
 14206f8:	df001615 	stw	fp,88(sp)
 14206fc:	df001604 	addi	fp,sp,88
 1420700:	e13ffb15 	stw	r4,-20(fp)
 1420704:	e17ffc15 	stw	r5,-16(fp)
 1420708:	e1bffd15 	stw	r6,-12(fp)
 142070c:	e1fffe15 	stw	r7,-8(fp)
 1420710:	e0800317 	ldw	r2,12(fp)
 1420714:	e0bfff05 	stb	r2,-4(fp)
 1420718:	e03ff115 	stw	zero,-60(fp)
 142071c:	e0800217 	ldw	r2,8(fp)
 1420720:	1000041e 	bne	r2,zero,1420734 <_ntoa_long+0x44>
 1420724:	e0c00717 	ldw	r3,28(fp)
 1420728:	00bffbc4 	movi	r2,-17
 142072c:	1884703a 	and	r2,r3,r2
 1420730:	e0800715 	stw	r2,28(fp)
 1420734:	e0800717 	ldw	r2,28(fp)
 1420738:	1081000c 	andi	r2,r2,1024
 142073c:	10000226 	beq	r2,zero,1420748 <_ntoa_long+0x58>
 1420740:	e0800217 	ldw	r2,8(fp)
 1420744:	10002526 	beq	r2,zero,14207dc <_ntoa_long+0xec>
 1420748:	e0800217 	ldw	r2,8(fp)
 142074c:	e1400417 	ldw	r5,16(fp)
 1420750:	1009883a 	mov	r4,r2
 1420754:	142883c0 	call	142883c <__umodsi3>
 1420758:	e0bff205 	stb	r2,-56(fp)
 142075c:	e0bff117 	ldw	r2,-60(fp)
 1420760:	10c00044 	addi	r3,r2,1
 1420764:	e0fff115 	stw	r3,-60(fp)
 1420768:	e0fff207 	ldb	r3,-56(fp)
 142076c:	18c00288 	cmpgei	r3,r3,10
 1420770:	1800041e 	bne	r3,zero,1420784 <_ntoa_long+0x94>
 1420774:	e0fff203 	ldbu	r3,-56(fp)
 1420778:	18c00c04 	addi	r3,r3,48
 142077c:	1809883a 	mov	r4,r3
 1420780:	00000a06 	br	14207ac <_ntoa_long+0xbc>
 1420784:	e0c00717 	ldw	r3,28(fp)
 1420788:	18c0080c 	andi	r3,r3,32
 142078c:	18000226 	beq	r3,zero,1420798 <_ntoa_long+0xa8>
 1420790:	00c01044 	movi	r3,65
 1420794:	00000106 	br	142079c <_ntoa_long+0xac>
 1420798:	00c01844 	movi	r3,97
 142079c:	e13ff203 	ldbu	r4,-56(fp)
 14207a0:	1907883a 	add	r3,r3,r4
 14207a4:	18fffd84 	addi	r3,r3,-10
 14207a8:	1809883a 	mov	r4,r3
 14207ac:	e0fff244 	addi	r3,fp,-55
 14207b0:	1885883a 	add	r2,r3,r2
 14207b4:	11000005 	stb	r4,0(r2)
 14207b8:	e1400417 	ldw	r5,16(fp)
 14207bc:	e1000217 	ldw	r4,8(fp)
 14207c0:	14287d80 	call	14287d8 <__udivsi3>
 14207c4:	e0800215 	stw	r2,8(fp)
 14207c8:	e0800217 	ldw	r2,8(fp)
 14207cc:	10000326 	beq	r2,zero,14207dc <_ntoa_long+0xec>
 14207d0:	e0bff117 	ldw	r2,-60(fp)
 14207d4:	10800830 	cmpltui	r2,r2,32
 14207d8:	103fdb1e 	bne	r2,zero,1420748 <__alt_data_end+0xfffe0748>
 14207dc:	e0bfff03 	ldbu	r2,-4(fp)
 14207e0:	e0c00717 	ldw	r3,28(fp)
 14207e4:	d8c00615 	stw	r3,24(sp)
 14207e8:	e0c00617 	ldw	r3,24(fp)
 14207ec:	d8c00515 	stw	r3,20(sp)
 14207f0:	e0c00517 	ldw	r3,20(fp)
 14207f4:	d8c00415 	stw	r3,16(sp)
 14207f8:	e0c00417 	ldw	r3,16(fp)
 14207fc:	d8c00315 	stw	r3,12(sp)
 1420800:	d8800215 	stw	r2,8(sp)
 1420804:	e0bff117 	ldw	r2,-60(fp)
 1420808:	d8800115 	stw	r2,4(sp)
 142080c:	e0bff244 	addi	r2,fp,-55
 1420810:	d8800015 	stw	r2,0(sp)
 1420814:	e1fffe17 	ldw	r7,-8(fp)
 1420818:	e1bffd17 	ldw	r6,-12(fp)
 142081c:	e17ffc17 	ldw	r5,-16(fp)
 1420820:	e13ffb17 	ldw	r4,-20(fp)
 1420824:	142033c0 	call	142033c <_ntoa_format>
 1420828:	e037883a 	mov	sp,fp
 142082c:	dfc00117 	ldw	ra,4(sp)
 1420830:	df000017 	ldw	fp,0(sp)
 1420834:	dec00204 	addi	sp,sp,8
 1420838:	f800283a 	ret

0142083c <_ntoa_long_long>:
 142083c:	deffe804 	addi	sp,sp,-96
 1420840:	dfc01715 	stw	ra,92(sp)
 1420844:	df001615 	stw	fp,88(sp)
 1420848:	df001604 	addi	fp,sp,88
 142084c:	e13ffb15 	stw	r4,-20(fp)
 1420850:	e17ffc15 	stw	r5,-16(fp)
 1420854:	e1bffd15 	stw	r6,-12(fp)
 1420858:	e1fffe15 	stw	r7,-8(fp)
 142085c:	e0800417 	ldw	r2,16(fp)
 1420860:	e0bfff05 	stb	r2,-4(fp)
 1420864:	e03ff115 	stw	zero,-60(fp)
 1420868:	e0800217 	ldw	r2,8(fp)
 142086c:	e0c00317 	ldw	r3,12(fp)
 1420870:	10c4b03a 	or	r2,r2,r3
 1420874:	1000041e 	bne	r2,zero,1420888 <_ntoa_long_long+0x4c>
 1420878:	e0c00917 	ldw	r3,36(fp)
 142087c:	00bffbc4 	movi	r2,-17
 1420880:	1884703a 	and	r2,r3,r2
 1420884:	e0800915 	stw	r2,36(fp)
 1420888:	e0800917 	ldw	r2,36(fp)
 142088c:	1081000c 	andi	r2,r2,1024
 1420890:	10000426 	beq	r2,zero,14208a4 <_ntoa_long_long+0x68>
 1420894:	e0800217 	ldw	r2,8(fp)
 1420898:	e0c00317 	ldw	r3,12(fp)
 142089c:	10c4b03a 	or	r2,r2,r3
 14208a0:	10003326 	beq	r2,zero,1420970 <_ntoa_long_long+0x134>
 14208a4:	e0800217 	ldw	r2,8(fp)
 14208a8:	e0c00317 	ldw	r3,12(fp)
 14208ac:	e1800517 	ldw	r6,20(fp)
 14208b0:	e1c00617 	ldw	r7,24(fp)
 14208b4:	1009883a 	mov	r4,r2
 14208b8:	180b883a 	mov	r5,r3
 14208bc:	142811c0 	call	142811c <__umoddi3>
 14208c0:	1009883a 	mov	r4,r2
 14208c4:	180b883a 	mov	r5,r3
 14208c8:	2005883a 	mov	r2,r4
 14208cc:	2807883a 	mov	r3,r5
 14208d0:	e0bff205 	stb	r2,-56(fp)
 14208d4:	e0bff117 	ldw	r2,-60(fp)
 14208d8:	10c00044 	addi	r3,r2,1
 14208dc:	e0fff115 	stw	r3,-60(fp)
 14208e0:	e0fff207 	ldb	r3,-56(fp)
 14208e4:	18c00288 	cmpgei	r3,r3,10
 14208e8:	1800041e 	bne	r3,zero,14208fc <_ntoa_long_long+0xc0>
 14208ec:	e0fff203 	ldbu	r3,-56(fp)
 14208f0:	18c00c04 	addi	r3,r3,48
 14208f4:	1809883a 	mov	r4,r3
 14208f8:	00000a06 	br	1420924 <_ntoa_long_long+0xe8>
 14208fc:	e0c00917 	ldw	r3,36(fp)
 1420900:	18c0080c 	andi	r3,r3,32
 1420904:	18000226 	beq	r3,zero,1420910 <_ntoa_long_long+0xd4>
 1420908:	00c01044 	movi	r3,65
 142090c:	00000106 	br	1420914 <_ntoa_long_long+0xd8>
 1420910:	00c01844 	movi	r3,97
 1420914:	e13ff203 	ldbu	r4,-56(fp)
 1420918:	1907883a 	add	r3,r3,r4
 142091c:	18fffd84 	addi	r3,r3,-10
 1420920:	1809883a 	mov	r4,r3
 1420924:	e0fff244 	addi	r3,fp,-55
 1420928:	1885883a 	add	r2,r3,r2
 142092c:	11000005 	stb	r4,0(r2)
 1420930:	e1800517 	ldw	r6,20(fp)
 1420934:	e1c00617 	ldw	r7,24(fp)
 1420938:	e1000217 	ldw	r4,8(fp)
 142093c:	e1400317 	ldw	r5,12(fp)
 1420940:	1427b200 	call	1427b20 <__udivdi3>
 1420944:	1009883a 	mov	r4,r2
 1420948:	180b883a 	mov	r5,r3
 142094c:	e1000215 	stw	r4,8(fp)
 1420950:	e1400315 	stw	r5,12(fp)
 1420954:	e0800217 	ldw	r2,8(fp)
 1420958:	e0c00317 	ldw	r3,12(fp)
 142095c:	10c4b03a 	or	r2,r2,r3
 1420960:	10000326 	beq	r2,zero,1420970 <_ntoa_long_long+0x134>
 1420964:	e0bff117 	ldw	r2,-60(fp)
 1420968:	10800830 	cmpltui	r2,r2,32
 142096c:	103fcd1e 	bne	r2,zero,14208a4 <__alt_data_end+0xfffe08a4>
 1420970:	e0bfff03 	ldbu	r2,-4(fp)
 1420974:	e0c00517 	ldw	r3,20(fp)
 1420978:	e1000917 	ldw	r4,36(fp)
 142097c:	d9000615 	stw	r4,24(sp)
 1420980:	e1000817 	ldw	r4,32(fp)
 1420984:	d9000515 	stw	r4,20(sp)
 1420988:	e1000717 	ldw	r4,28(fp)
 142098c:	d9000415 	stw	r4,16(sp)
 1420990:	d8c00315 	stw	r3,12(sp)
 1420994:	d8800215 	stw	r2,8(sp)
 1420998:	e0bff117 	ldw	r2,-60(fp)
 142099c:	d8800115 	stw	r2,4(sp)
 14209a0:	e0bff244 	addi	r2,fp,-55
 14209a4:	d8800015 	stw	r2,0(sp)
 14209a8:	e1fffe17 	ldw	r7,-8(fp)
 14209ac:	e1bffd17 	ldw	r6,-12(fp)
 14209b0:	e17ffc17 	ldw	r5,-16(fp)
 14209b4:	e13ffb17 	ldw	r4,-20(fp)
 14209b8:	142033c0 	call	142033c <_ntoa_format>
 14209bc:	e037883a 	mov	sp,fp
 14209c0:	dfc00117 	ldw	ra,4(sp)
 14209c4:	df000017 	ldw	fp,0(sp)
 14209c8:	dec00204 	addi	sp,sp,8
 14209cc:	f800283a 	ret

014209d0 <_ftoa>:
 14209d0:	deffe304 	addi	sp,sp,-116
 14209d4:	dfc01c15 	stw	ra,112(sp)
 14209d8:	df001b15 	stw	fp,108(sp)
 14209dc:	dc001a15 	stw	r16,104(sp)
 14209e0:	df001b04 	addi	fp,sp,108
 14209e4:	e13ffb15 	stw	r4,-20(fp)
 14209e8:	e17ffc15 	stw	r5,-16(fp)
 14209ec:	e1bffd15 	stw	r6,-12(fp)
 14209f0:	e1fffe15 	stw	r7,-8(fp)
 14209f4:	e0bffd17 	ldw	r2,-12(fp)
 14209f8:	e0bfec15 	stw	r2,-80(fp)
 14209fc:	e03fe515 	stw	zero,-108(fp)
 1420a00:	e03fed15 	stw	zero,-76(fp)
 1420a04:	e03fee15 	stw	zero,-72(fp)
 1420a08:	00bff034 	movhi	r2,65472
 1420a0c:	e0bfef15 	stw	r2,-68(fp)
 1420a10:	00907834 	movhi	r2,16864
 1420a14:	10bfffc4 	addi	r2,r2,-1
 1420a18:	e0bff015 	stw	r2,-64(fp)
 1420a1c:	e03fe605 	stb	zero,-104(fp)
 1420a20:	000d883a 	mov	r6,zero
 1420a24:	000f883a 	mov	r7,zero
 1420a28:	e1000217 	ldw	r4,8(fp)
 1420a2c:	e1400317 	ldw	r5,12(fp)
 1420a30:	142a4840 	call	142a484 <__ledf2>
 1420a34:	10000b0e 	bge	r2,zero,1420a64 <_ftoa+0x94>
 1420a38:	00800044 	movi	r2,1
 1420a3c:	e0bfe605 	stb	r2,-104(fp)
 1420a40:	e1800217 	ldw	r6,8(fp)
 1420a44:	e1c00317 	ldw	r7,12(fp)
 1420a48:	0009883a 	mov	r4,zero
 1420a4c:	000b883a 	mov	r5,zero
 1420a50:	142ade40 	call	142ade4 <__subdf3>
 1420a54:	1009883a 	mov	r4,r2
 1420a58:	180b883a 	mov	r5,r3
 1420a5c:	e1000215 	stw	r4,8(fp)
 1420a60:	e1400315 	stw	r5,12(fp)
 1420a64:	e0800617 	ldw	r2,24(fp)
 1420a68:	1081000c 	andi	r2,r2,1024
 1420a6c:	10000d1e 	bne	r2,zero,1420aa4 <_ftoa+0xd4>
 1420a70:	00800184 	movi	r2,6
 1420a74:	e0800415 	stw	r2,16(fp)
 1420a78:	00000a06 	br	1420aa4 <_ftoa+0xd4>
 1420a7c:	e0bfe517 	ldw	r2,-108(fp)
 1420a80:	10c00044 	addi	r3,r2,1
 1420a84:	e0ffe515 	stw	r3,-108(fp)
 1420a88:	e0fff304 	addi	r3,fp,-52
 1420a8c:	1885883a 	add	r2,r3,r2
 1420a90:	00c00c04 	movi	r3,48
 1420a94:	10c00005 	stb	r3,0(r2)
 1420a98:	e0800417 	ldw	r2,16(fp)
 1420a9c:	10bfffc4 	addi	r2,r2,-1
 1420aa0:	e0800415 	stw	r2,16(fp)
 1420aa4:	e0bfe517 	ldw	r2,-108(fp)
 1420aa8:	10800828 	cmpgeui	r2,r2,32
 1420aac:	1000031e 	bne	r2,zero,1420abc <_ftoa+0xec>
 1420ab0:	e0800417 	ldw	r2,16(fp)
 1420ab4:	108002a8 	cmpgeui	r2,r2,10
 1420ab8:	103ff01e 	bne	r2,zero,1420a7c <__alt_data_end+0xfffe0a7c>
 1420abc:	e1000217 	ldw	r4,8(fp)
 1420ac0:	e1400317 	ldw	r5,12(fp)
 1420ac4:	142b6e00 	call	142b6e0 <__fixdfsi>
 1420ac8:	e0bfe715 	stw	r2,-100(fp)
 1420acc:	e13fe717 	ldw	r4,-100(fp)
 1420ad0:	142b7600 	call	142b760 <__floatsidf>
 1420ad4:	1009883a 	mov	r4,r2
 1420ad8:	180b883a 	mov	r5,r3
 1420adc:	200d883a 	mov	r6,r4
 1420ae0:	280f883a 	mov	r7,r5
 1420ae4:	e1000217 	ldw	r4,8(fp)
 1420ae8:	e1400317 	ldw	r5,12(fp)
 1420aec:	142ade40 	call	142ade4 <__subdf3>
 1420af0:	1009883a 	mov	r4,r2
 1420af4:	180b883a 	mov	r5,r3
 1420af8:	2011883a 	mov	r8,r4
 1420afc:	2813883a 	mov	r9,r5
 1420b00:	008050f4 	movhi	r2,323
 1420b04:	10b70004 	addi	r2,r2,-9216
 1420b08:	e0c00417 	ldw	r3,16(fp)
 1420b0c:	180690fa 	slli	r3,r3,3
 1420b10:	10c9883a 	add	r4,r2,r3
 1420b14:	20800017 	ldw	r2,0(r4)
 1420b18:	20c00117 	ldw	r3,4(r4)
 1420b1c:	100d883a 	mov	r6,r2
 1420b20:	180f883a 	mov	r7,r3
 1420b24:	4009883a 	mov	r4,r8
 1420b28:	480b883a 	mov	r5,r9
 1420b2c:	142a5780 	call	142a578 <__muldf3>
 1420b30:	1009883a 	mov	r4,r2
 1420b34:	180b883a 	mov	r5,r3
 1420b38:	e13ff115 	stw	r4,-60(fp)
 1420b3c:	e17ff215 	stw	r5,-56(fp)
 1420b40:	e13ff117 	ldw	r4,-60(fp)
 1420b44:	e17ff217 	ldw	r5,-56(fp)
 1420b48:	1427aac0 	call	1427aac <__fixunsdfsi>
 1420b4c:	e0bfe815 	stw	r2,-96(fp)
 1420b50:	e13fe817 	ldw	r4,-96(fp)
 1420b54:	142b83c0 	call	142b83c <__floatunsidf>
 1420b58:	1009883a 	mov	r4,r2
 1420b5c:	180b883a 	mov	r5,r3
 1420b60:	200d883a 	mov	r6,r4
 1420b64:	280f883a 	mov	r7,r5
 1420b68:	e13ff117 	ldw	r4,-60(fp)
 1420b6c:	e17ff217 	ldw	r5,-56(fp)
 1420b70:	142ade40 	call	142ade4 <__subdf3>
 1420b74:	1009883a 	mov	r4,r2
 1420b78:	180b883a 	mov	r5,r3
 1420b7c:	e13fed15 	stw	r4,-76(fp)
 1420b80:	e17fee15 	stw	r5,-72(fp)
 1420b84:	000d883a 	mov	r6,zero
 1420b88:	01cff834 	movhi	r7,16352
 1420b8c:	e13fed17 	ldw	r4,-76(fp)
 1420b90:	e17fee17 	ldw	r5,-72(fp)
 1420b94:	142a3a80 	call	142a3a8 <__gedf2>
 1420b98:	0080190e 	bge	zero,r2,1420c00 <_ftoa+0x230>
 1420b9c:	e0bfe817 	ldw	r2,-96(fp)
 1420ba0:	10800044 	addi	r2,r2,1
 1420ba4:	e0bfe815 	stw	r2,-96(fp)
 1420ba8:	e13fe817 	ldw	r4,-96(fp)
 1420bac:	142b83c0 	call	142b83c <__floatunsidf>
 1420bb0:	1011883a 	mov	r8,r2
 1420bb4:	1813883a 	mov	r9,r3
 1420bb8:	008050f4 	movhi	r2,323
 1420bbc:	10b70004 	addi	r2,r2,-9216
 1420bc0:	e0c00417 	ldw	r3,16(fp)
 1420bc4:	180690fa 	slli	r3,r3,3
 1420bc8:	10c9883a 	add	r4,r2,r3
 1420bcc:	20800017 	ldw	r2,0(r4)
 1420bd0:	20c00117 	ldw	r3,4(r4)
 1420bd4:	100d883a 	mov	r6,r2
 1420bd8:	180f883a 	mov	r7,r3
 1420bdc:	4009883a 	mov	r4,r8
 1420be0:	480b883a 	mov	r5,r9
 1420be4:	142a3a80 	call	142a3a8 <__gedf2>
 1420be8:	10001316 	blt	r2,zero,1420c38 <_ftoa+0x268>
 1420bec:	e03fe815 	stw	zero,-96(fp)
 1420bf0:	e0bfe717 	ldw	r2,-100(fp)
 1420bf4:	10800044 	addi	r2,r2,1
 1420bf8:	e0bfe715 	stw	r2,-100(fp)
 1420bfc:	00000e06 	br	1420c38 <_ftoa+0x268>
 1420c00:	000d883a 	mov	r6,zero
 1420c04:	01cff834 	movhi	r7,16352
 1420c08:	e13fed17 	ldw	r4,-76(fp)
 1420c0c:	e17fee17 	ldw	r5,-72(fp)
 1420c10:	142a3200 	call	142a320 <__eqdf2>
 1420c14:	1000081e 	bne	r2,zero,1420c38 <_ftoa+0x268>
 1420c18:	e0bfe817 	ldw	r2,-96(fp)
 1420c1c:	10000326 	beq	r2,zero,1420c2c <_ftoa+0x25c>
 1420c20:	e0bfe817 	ldw	r2,-96(fp)
 1420c24:	1080004c 	andi	r2,r2,1
 1420c28:	10000326 	beq	r2,zero,1420c38 <_ftoa+0x268>
 1420c2c:	e0bfe817 	ldw	r2,-96(fp)
 1420c30:	10800044 	addi	r2,r2,1
 1420c34:	e0bfe815 	stw	r2,-96(fp)
 1420c38:	e1bfef17 	ldw	r6,-68(fp)
 1420c3c:	e1fff017 	ldw	r7,-64(fp)
 1420c40:	e1000217 	ldw	r4,8(fp)
 1420c44:	e1400317 	ldw	r5,12(fp)
 1420c48:	142a3a80 	call	142a3a8 <__gedf2>
 1420c4c:	0080020e 	bge	zero,r2,1420c58 <_ftoa+0x288>
 1420c50:	0005883a 	mov	r2,zero
 1420c54:	0000ff06 	br	1421054 <_ftoa+0x684>
 1420c58:	e0800417 	ldw	r2,16(fp)
 1420c5c:	1000241e 	bne	r2,zero,1420cf0 <_ftoa+0x320>
 1420c60:	e13fe717 	ldw	r4,-100(fp)
 1420c64:	142b7600 	call	142b760 <__floatsidf>
 1420c68:	1009883a 	mov	r4,r2
 1420c6c:	180b883a 	mov	r5,r3
 1420c70:	200d883a 	mov	r6,r4
 1420c74:	280f883a 	mov	r7,r5
 1420c78:	e1000217 	ldw	r4,8(fp)
 1420c7c:	e1400317 	ldw	r5,12(fp)
 1420c80:	142ade40 	call	142ade4 <__subdf3>
 1420c84:	1009883a 	mov	r4,r2
 1420c88:	180b883a 	mov	r5,r3
 1420c8c:	e13fed15 	stw	r4,-76(fp)
 1420c90:	e17fee15 	stw	r5,-72(fp)
 1420c94:	000d883a 	mov	r6,zero
 1420c98:	01cff834 	movhi	r7,16352
 1420c9c:	e13fed17 	ldw	r4,-76(fp)
 1420ca0:	e17fee17 	ldw	r5,-72(fp)
 1420ca4:	142a3a80 	call	142a3a8 <__gedf2>
 1420ca8:	0080040e 	bge	zero,r2,1420cbc <_ftoa+0x2ec>
 1420cac:	e0bfe717 	ldw	r2,-100(fp)
 1420cb0:	10800044 	addi	r2,r2,1
 1420cb4:	e0bfe715 	stw	r2,-100(fp)
 1420cb8:	00005806 	br	1420e1c <_ftoa+0x44c>
 1420cbc:	000d883a 	mov	r6,zero
 1420cc0:	01cff834 	movhi	r7,16352
 1420cc4:	e13fed17 	ldw	r4,-76(fp)
 1420cc8:	e17fee17 	ldw	r5,-72(fp)
 1420ccc:	142a3200 	call	142a320 <__eqdf2>
 1420cd0:	1000521e 	bne	r2,zero,1420e1c <_ftoa+0x44c>
 1420cd4:	e0bfe717 	ldw	r2,-100(fp)
 1420cd8:	1080004c 	andi	r2,r2,1
 1420cdc:	10004f26 	beq	r2,zero,1420e1c <_ftoa+0x44c>
 1420ce0:	e0bfe717 	ldw	r2,-100(fp)
 1420ce4:	10800044 	addi	r2,r2,1
 1420ce8:	e0bfe715 	stw	r2,-100(fp)
 1420cec:	00004b06 	br	1420e1c <_ftoa+0x44c>
 1420cf0:	e0800417 	ldw	r2,16(fp)
 1420cf4:	e0bfe915 	stw	r2,-92(fp)
 1420cf8:	00001606 	br	1420d54 <_ftoa+0x384>
 1420cfc:	e0bfe917 	ldw	r2,-92(fp)
 1420d00:	10bfffc4 	addi	r2,r2,-1
 1420d04:	e0bfe915 	stw	r2,-92(fp)
 1420d08:	e43fe517 	ldw	r16,-108(fp)
 1420d0c:	80800044 	addi	r2,r16,1
 1420d10:	e0bfe515 	stw	r2,-108(fp)
 1420d14:	e0bfe817 	ldw	r2,-96(fp)
 1420d18:	01400284 	movi	r5,10
 1420d1c:	1009883a 	mov	r4,r2
 1420d20:	142883c0 	call	142883c <__umodsi3>
 1420d24:	10800c04 	addi	r2,r2,48
 1420d28:	1007883a 	mov	r3,r2
 1420d2c:	e0bff304 	addi	r2,fp,-52
 1420d30:	1405883a 	add	r2,r2,r16
 1420d34:	10c00005 	stb	r3,0(r2)
 1420d38:	e0bfe817 	ldw	r2,-96(fp)
 1420d3c:	01400284 	movi	r5,10
 1420d40:	1009883a 	mov	r4,r2
 1420d44:	14287d80 	call	14287d8 <__udivsi3>
 1420d48:	e0bfe815 	stw	r2,-96(fp)
 1420d4c:	e0bfe817 	ldw	r2,-96(fp)
 1420d50:	10000426 	beq	r2,zero,1420d64 <_ftoa+0x394>
 1420d54:	e0bfe517 	ldw	r2,-108(fp)
 1420d58:	10800830 	cmpltui	r2,r2,32
 1420d5c:	103fe71e 	bne	r2,zero,1420cfc <__alt_data_end+0xfffe0cfc>
 1420d60:	00000906 	br	1420d88 <_ftoa+0x3b8>
 1420d64:	0001883a 	nop
 1420d68:	00000706 	br	1420d88 <_ftoa+0x3b8>
 1420d6c:	e0bfe517 	ldw	r2,-108(fp)
 1420d70:	10c00044 	addi	r3,r2,1
 1420d74:	e0ffe515 	stw	r3,-108(fp)
 1420d78:	e0fff304 	addi	r3,fp,-52
 1420d7c:	1885883a 	add	r2,r3,r2
 1420d80:	00c00c04 	movi	r3,48
 1420d84:	10c00005 	stb	r3,0(r2)
 1420d88:	e0bfe517 	ldw	r2,-108(fp)
 1420d8c:	10800828 	cmpgeui	r2,r2,32
 1420d90:	1000041e 	bne	r2,zero,1420da4 <_ftoa+0x3d4>
 1420d94:	e0bfe917 	ldw	r2,-92(fp)
 1420d98:	10ffffc4 	addi	r3,r2,-1
 1420d9c:	e0ffe915 	stw	r3,-92(fp)
 1420da0:	103ff21e 	bne	r2,zero,1420d6c <__alt_data_end+0xfffe0d6c>
 1420da4:	e0bfe517 	ldw	r2,-108(fp)
 1420da8:	10800828 	cmpgeui	r2,r2,32
 1420dac:	10001b1e 	bne	r2,zero,1420e1c <_ftoa+0x44c>
 1420db0:	e0bfe517 	ldw	r2,-108(fp)
 1420db4:	10c00044 	addi	r3,r2,1
 1420db8:	e0ffe515 	stw	r3,-108(fp)
 1420dbc:	e0fff304 	addi	r3,fp,-52
 1420dc0:	1885883a 	add	r2,r3,r2
 1420dc4:	00c00b84 	movi	r3,46
 1420dc8:	10c00005 	stb	r3,0(r2)
 1420dcc:	00001306 	br	1420e1c <_ftoa+0x44c>
 1420dd0:	e43fe517 	ldw	r16,-108(fp)
 1420dd4:	80800044 	addi	r2,r16,1
 1420dd8:	e0bfe515 	stw	r2,-108(fp)
 1420ddc:	e0bfe717 	ldw	r2,-100(fp)
 1420de0:	01400284 	movi	r5,10
 1420de4:	1009883a 	mov	r4,r2
 1420de8:	14287640 	call	1428764 <__modsi3>
 1420dec:	10800c04 	addi	r2,r2,48
 1420df0:	1007883a 	mov	r3,r2
 1420df4:	e0bff304 	addi	r2,fp,-52
 1420df8:	1405883a 	add	r2,r2,r16
 1420dfc:	10c00005 	stb	r3,0(r2)
 1420e00:	e0bfe717 	ldw	r2,-100(fp)
 1420e04:	01400284 	movi	r5,10
 1420e08:	1009883a 	mov	r4,r2
 1420e0c:	14286e00 	call	14286e0 <__divsi3>
 1420e10:	e0bfe715 	stw	r2,-100(fp)
 1420e14:	e0bfe717 	ldw	r2,-100(fp)
 1420e18:	10000426 	beq	r2,zero,1420e2c <_ftoa+0x45c>
 1420e1c:	e0bfe517 	ldw	r2,-108(fp)
 1420e20:	10800830 	cmpltui	r2,r2,32
 1420e24:	103fea1e 	bne	r2,zero,1420dd0 <__alt_data_end+0xfffe0dd0>
 1420e28:	00000906 	br	1420e50 <_ftoa+0x480>
 1420e2c:	0001883a 	nop
 1420e30:	00000706 	br	1420e50 <_ftoa+0x480>
 1420e34:	e0bfe517 	ldw	r2,-108(fp)
 1420e38:	10c00044 	addi	r3,r2,1
 1420e3c:	e0ffe515 	stw	r3,-108(fp)
 1420e40:	e0fff304 	addi	r3,fp,-52
 1420e44:	1885883a 	add	r2,r3,r2
 1420e48:	00c00c04 	movi	r3,48
 1420e4c:	10c00005 	stb	r3,0(r2)
 1420e50:	e0800617 	ldw	r2,24(fp)
 1420e54:	1080008c 	andi	r2,r2,2
 1420e58:	1000091e 	bne	r2,zero,1420e80 <_ftoa+0x4b0>
 1420e5c:	e0800617 	ldw	r2,24(fp)
 1420e60:	1080004c 	andi	r2,r2,1
 1420e64:	10000626 	beq	r2,zero,1420e80 <_ftoa+0x4b0>
 1420e68:	e0ffe517 	ldw	r3,-108(fp)
 1420e6c:	e0800517 	ldw	r2,20(fp)
 1420e70:	1880032e 	bgeu	r3,r2,1420e80 <_ftoa+0x4b0>
 1420e74:	e0bfe517 	ldw	r2,-108(fp)
 1420e78:	10800830 	cmpltui	r2,r2,32
 1420e7c:	103fed1e 	bne	r2,zero,1420e34 <__alt_data_end+0xfffe0e34>
 1420e80:	e0ffe517 	ldw	r3,-108(fp)
 1420e84:	e0800517 	ldw	r2,20(fp)
 1420e88:	18800b1e 	bne	r3,r2,1420eb8 <_ftoa+0x4e8>
 1420e8c:	e0bfe603 	ldbu	r2,-104(fp)
 1420e90:	1000061e 	bne	r2,zero,1420eac <_ftoa+0x4dc>
 1420e94:	e0800617 	ldw	r2,24(fp)
 1420e98:	1080010c 	andi	r2,r2,4
 1420e9c:	1000031e 	bne	r2,zero,1420eac <_ftoa+0x4dc>
 1420ea0:	e0800617 	ldw	r2,24(fp)
 1420ea4:	1080020c 	andi	r2,r2,8
 1420ea8:	10000326 	beq	r2,zero,1420eb8 <_ftoa+0x4e8>
 1420eac:	e0bfe517 	ldw	r2,-108(fp)
 1420eb0:	10bfffc4 	addi	r2,r2,-1
 1420eb4:	e0bfe515 	stw	r2,-108(fp)
 1420eb8:	e0bfe517 	ldw	r2,-108(fp)
 1420ebc:	10800828 	cmpgeui	r2,r2,32
 1420ec0:	10001f1e 	bne	r2,zero,1420f40 <_ftoa+0x570>
 1420ec4:	e0bfe603 	ldbu	r2,-104(fp)
 1420ec8:	10000826 	beq	r2,zero,1420eec <_ftoa+0x51c>
 1420ecc:	e0bfe517 	ldw	r2,-108(fp)
 1420ed0:	10c00044 	addi	r3,r2,1
 1420ed4:	e0ffe515 	stw	r3,-108(fp)
 1420ed8:	e0fff304 	addi	r3,fp,-52
 1420edc:	1885883a 	add	r2,r3,r2
 1420ee0:	00c00b44 	movi	r3,45
 1420ee4:	10c00005 	stb	r3,0(r2)
 1420ee8:	00001506 	br	1420f40 <_ftoa+0x570>
 1420eec:	e0800617 	ldw	r2,24(fp)
 1420ef0:	1080010c 	andi	r2,r2,4
 1420ef4:	10000826 	beq	r2,zero,1420f18 <_ftoa+0x548>
 1420ef8:	e0bfe517 	ldw	r2,-108(fp)
 1420efc:	10c00044 	addi	r3,r2,1
 1420f00:	e0ffe515 	stw	r3,-108(fp)
 1420f04:	e0fff304 	addi	r3,fp,-52
 1420f08:	1885883a 	add	r2,r3,r2
 1420f0c:	00c00ac4 	movi	r3,43
 1420f10:	10c00005 	stb	r3,0(r2)
 1420f14:	00000a06 	br	1420f40 <_ftoa+0x570>
 1420f18:	e0800617 	ldw	r2,24(fp)
 1420f1c:	1080020c 	andi	r2,r2,8
 1420f20:	10000726 	beq	r2,zero,1420f40 <_ftoa+0x570>
 1420f24:	e0bfe517 	ldw	r2,-108(fp)
 1420f28:	10c00044 	addi	r3,r2,1
 1420f2c:	e0ffe515 	stw	r3,-108(fp)
 1420f30:	e0fff304 	addi	r3,fp,-52
 1420f34:	1885883a 	add	r2,r3,r2
 1420f38:	00c00804 	movi	r3,32
 1420f3c:	10c00005 	stb	r3,0(r2)
 1420f40:	e0800617 	ldw	r2,24(fp)
 1420f44:	1080008c 	andi	r2,r2,2
 1420f48:	1000151e 	bne	r2,zero,1420fa0 <_ftoa+0x5d0>
 1420f4c:	e0800617 	ldw	r2,24(fp)
 1420f50:	1080004c 	andi	r2,r2,1
 1420f54:	1000121e 	bne	r2,zero,1420fa0 <_ftoa+0x5d0>
 1420f58:	e0bfe517 	ldw	r2,-108(fp)
 1420f5c:	e0bfea15 	stw	r2,-88(fp)
 1420f60:	00000c06 	br	1420f94 <_ftoa+0x5c4>
 1420f64:	e0bffd17 	ldw	r2,-12(fp)
 1420f68:	10c00044 	addi	r3,r2,1
 1420f6c:	e0fffd15 	stw	r3,-12(fp)
 1420f70:	e0fffb17 	ldw	r3,-20(fp)
 1420f74:	e1fffe17 	ldw	r7,-8(fp)
 1420f78:	100d883a 	mov	r6,r2
 1420f7c:	e17ffc17 	ldw	r5,-16(fp)
 1420f80:	01000804 	movi	r4,32
 1420f84:	183ee83a 	callr	r3
 1420f88:	e0bfea17 	ldw	r2,-88(fp)
 1420f8c:	10800044 	addi	r2,r2,1
 1420f90:	e0bfea15 	stw	r2,-88(fp)
 1420f94:	e0ffea17 	ldw	r3,-88(fp)
 1420f98:	e0800517 	ldw	r2,20(fp)
 1420f9c:	18bff136 	bltu	r3,r2,1420f64 <__alt_data_end+0xfffe0f64>
 1420fa0:	e03feb15 	stw	zero,-84(fp)
 1420fa4:	00001506 	br	1420ffc <_ftoa+0x62c>
 1420fa8:	e0ffe517 	ldw	r3,-108(fp)
 1420fac:	e0bfeb17 	ldw	r2,-84(fp)
 1420fb0:	1885c83a 	sub	r2,r3,r2
 1420fb4:	10bfffc4 	addi	r2,r2,-1
 1420fb8:	e0fff304 	addi	r3,fp,-52
 1420fbc:	1885883a 	add	r2,r3,r2
 1420fc0:	10800003 	ldbu	r2,0(r2)
 1420fc4:	11003fcc 	andi	r4,r2,255
 1420fc8:	2100201c 	xori	r4,r4,128
 1420fcc:	213fe004 	addi	r4,r4,-128
 1420fd0:	e0bffd17 	ldw	r2,-12(fp)
 1420fd4:	10c00044 	addi	r3,r2,1
 1420fd8:	e0fffd15 	stw	r3,-12(fp)
 1420fdc:	e0fffb17 	ldw	r3,-20(fp)
 1420fe0:	e1fffe17 	ldw	r7,-8(fp)
 1420fe4:	100d883a 	mov	r6,r2
 1420fe8:	e17ffc17 	ldw	r5,-16(fp)
 1420fec:	183ee83a 	callr	r3
 1420ff0:	e0bfeb17 	ldw	r2,-84(fp)
 1420ff4:	10800044 	addi	r2,r2,1
 1420ff8:	e0bfeb15 	stw	r2,-84(fp)
 1420ffc:	e0ffeb17 	ldw	r3,-84(fp)
 1421000:	e0bfe517 	ldw	r2,-108(fp)
 1421004:	18bfe836 	bltu	r3,r2,1420fa8 <__alt_data_end+0xfffe0fa8>
 1421008:	e0800617 	ldw	r2,24(fp)
 142100c:	1080008c 	andi	r2,r2,2
 1421010:	10000f26 	beq	r2,zero,1421050 <_ftoa+0x680>
 1421014:	00000906 	br	142103c <_ftoa+0x66c>
 1421018:	e0bffd17 	ldw	r2,-12(fp)
 142101c:	10c00044 	addi	r3,r2,1
 1421020:	e0fffd15 	stw	r3,-12(fp)
 1421024:	e0fffb17 	ldw	r3,-20(fp)
 1421028:	e1fffe17 	ldw	r7,-8(fp)
 142102c:	100d883a 	mov	r6,r2
 1421030:	e17ffc17 	ldw	r5,-16(fp)
 1421034:	01000804 	movi	r4,32
 1421038:	183ee83a 	callr	r3
 142103c:	e0fffd17 	ldw	r3,-12(fp)
 1421040:	e0bfec17 	ldw	r2,-80(fp)
 1421044:	1887c83a 	sub	r3,r3,r2
 1421048:	e0800517 	ldw	r2,20(fp)
 142104c:	18bff236 	bltu	r3,r2,1421018 <__alt_data_end+0xfffe1018>
 1421050:	e0bffd17 	ldw	r2,-12(fp)
 1421054:	e6ffff04 	addi	sp,fp,-4
 1421058:	dfc00217 	ldw	ra,8(sp)
 142105c:	df000117 	ldw	fp,4(sp)
 1421060:	dc000017 	ldw	r16,0(sp)
 1421064:	dec00304 	addi	sp,sp,12
 1421068:	f800283a 	ret

0142106c <_vsnprintf>:
 142106c:	deffdb04 	addi	sp,sp,-148
 1421070:	dfc02415 	stw	ra,144(sp)
 1421074:	df002315 	stw	fp,140(sp)
 1421078:	dd402215 	stw	r21,136(sp)
 142107c:	dd002115 	stw	r20,132(sp)
 1421080:	dcc02015 	stw	r19,128(sp)
 1421084:	dc801f15 	stw	r18,124(sp)
 1421088:	dc401e15 	stw	r17,120(sp)
 142108c:	dc001d15 	stw	r16,116(sp)
 1421090:	df002304 	addi	fp,sp,140
 1421094:	e13ff615 	stw	r4,-40(fp)
 1421098:	e17ff715 	stw	r5,-36(fp)
 142109c:	e1bff815 	stw	r6,-32(fp)
 14210a0:	e1fff915 	stw	r7,-28(fp)
 14210a4:	e03fe915 	stw	zero,-92(fp)
 14210a8:	e0bff717 	ldw	r2,-36(fp)
 14210ac:	1003d01e 	bne	r2,zero,1421ff0 <_vsnprintf+0xf84>
 14210b0:	008050b4 	movhi	r2,322
 14210b4:	10804704 	addi	r2,r2,284
 14210b8:	e0bff615 	stw	r2,-40(fp)
 14210bc:	0003cc06 	br	1421ff0 <_vsnprintf+0xf84>
 14210c0:	e0bff917 	ldw	r2,-28(fp)
 14210c4:	10800003 	ldbu	r2,0(r2)
 14210c8:	10803fcc 	andi	r2,r2,255
 14210cc:	1080201c 	xori	r2,r2,128
 14210d0:	10bfe004 	addi	r2,r2,-128
 14210d4:	10800960 	cmpeqi	r2,r2,37
 14210d8:	1000111e 	bne	r2,zero,1421120 <_vsnprintf+0xb4>
 14210dc:	e0bff917 	ldw	r2,-28(fp)
 14210e0:	10800003 	ldbu	r2,0(r2)
 14210e4:	11003fcc 	andi	r4,r2,255
 14210e8:	2100201c 	xori	r4,r4,128
 14210ec:	213fe004 	addi	r4,r4,-128
 14210f0:	e0bfe917 	ldw	r2,-92(fp)
 14210f4:	10c00044 	addi	r3,r2,1
 14210f8:	e0ffe915 	stw	r3,-92(fp)
 14210fc:	e0fff617 	ldw	r3,-40(fp)
 1421100:	e1fff817 	ldw	r7,-32(fp)
 1421104:	100d883a 	mov	r6,r2
 1421108:	e17ff717 	ldw	r5,-36(fp)
 142110c:	183ee83a 	callr	r3
 1421110:	e0bff917 	ldw	r2,-28(fp)
 1421114:	10800044 	addi	r2,r2,1
 1421118:	e0bff915 	stw	r2,-28(fp)
 142111c:	0003b406 	br	1421ff0 <_vsnprintf+0xf84>
 1421120:	e0bff917 	ldw	r2,-28(fp)
 1421124:	10800044 	addi	r2,r2,1
 1421128:	e0bff915 	stw	r2,-28(fp)
 142112c:	e03fe515 	stw	zero,-108(fp)
 1421130:	e0bff917 	ldw	r2,-28(fp)
 1421134:	10800003 	ldbu	r2,0(r2)
 1421138:	10803fcc 	andi	r2,r2,255
 142113c:	1080201c 	xori	r2,r2,128
 1421140:	10bfe004 	addi	r2,r2,-128
 1421144:	10bff804 	addi	r2,r2,-32
 1421148:	10c00468 	cmpgeui	r3,r2,17
 142114c:	1800441e 	bne	r3,zero,1421260 <_vsnprintf+0x1f4>
 1421150:	100690ba 	slli	r3,r2,2
 1421154:	008050b4 	movhi	r2,322
 1421158:	10845a04 	addi	r2,r2,4456
 142115c:	1885883a 	add	r2,r3,r2
 1421160:	10800017 	ldw	r2,0(r2)
 1421164:	1000683a 	jmp	r2
 1421168:	01421218 	cmpnei	r5,zero,2120
 142116c:	01421260 	cmpeqi	r5,zero,2121
 1421170:	01421260 	cmpeqi	r5,zero,2121
 1421174:	0142123c 	xorhi	r5,zero,2120
 1421178:	01421260 	cmpeqi	r5,zero,2121
 142117c:	01421260 	cmpeqi	r5,zero,2121
 1421180:	01421260 	cmpeqi	r5,zero,2121
 1421184:	01421260 	cmpeqi	r5,zero,2121
 1421188:	01421260 	cmpeqi	r5,zero,2121
 142118c:	01421260 	cmpeqi	r5,zero,2121
 1421190:	01421260 	cmpeqi	r5,zero,2121
 1421194:	014211f4 	movhi	r5,2119
 1421198:	01421260 	cmpeqi	r5,zero,2121
 142119c:	014211d0 	cmplti	r5,zero,2119
 14211a0:	01421260 	cmpeqi	r5,zero,2121
 14211a4:	01421260 	cmpeqi	r5,zero,2121
 14211a8:	014211ac 	andhi	r5,zero,2118
 14211ac:	e0bfe517 	ldw	r2,-108(fp)
 14211b0:	10800054 	ori	r2,r2,1
 14211b4:	e0bfe515 	stw	r2,-108(fp)
 14211b8:	e0bff917 	ldw	r2,-28(fp)
 14211bc:	10800044 	addi	r2,r2,1
 14211c0:	e0bff915 	stw	r2,-28(fp)
 14211c4:	00800044 	movi	r2,1
 14211c8:	e0bfe815 	stw	r2,-96(fp)
 14211cc:	00002606 	br	1421268 <_vsnprintf+0x1fc>
 14211d0:	e0bfe517 	ldw	r2,-108(fp)
 14211d4:	10800094 	ori	r2,r2,2
 14211d8:	e0bfe515 	stw	r2,-108(fp)
 14211dc:	e0bff917 	ldw	r2,-28(fp)
 14211e0:	10800044 	addi	r2,r2,1
 14211e4:	e0bff915 	stw	r2,-28(fp)
 14211e8:	00800044 	movi	r2,1
 14211ec:	e0bfe815 	stw	r2,-96(fp)
 14211f0:	00001d06 	br	1421268 <_vsnprintf+0x1fc>
 14211f4:	e0bfe517 	ldw	r2,-108(fp)
 14211f8:	10800114 	ori	r2,r2,4
 14211fc:	e0bfe515 	stw	r2,-108(fp)
 1421200:	e0bff917 	ldw	r2,-28(fp)
 1421204:	10800044 	addi	r2,r2,1
 1421208:	e0bff915 	stw	r2,-28(fp)
 142120c:	00800044 	movi	r2,1
 1421210:	e0bfe815 	stw	r2,-96(fp)
 1421214:	00001406 	br	1421268 <_vsnprintf+0x1fc>
 1421218:	e0bfe517 	ldw	r2,-108(fp)
 142121c:	10800214 	ori	r2,r2,8
 1421220:	e0bfe515 	stw	r2,-108(fp)
 1421224:	e0bff917 	ldw	r2,-28(fp)
 1421228:	10800044 	addi	r2,r2,1
 142122c:	e0bff915 	stw	r2,-28(fp)
 1421230:	00800044 	movi	r2,1
 1421234:	e0bfe815 	stw	r2,-96(fp)
 1421238:	00000b06 	br	1421268 <_vsnprintf+0x1fc>
 142123c:	e0bfe517 	ldw	r2,-108(fp)
 1421240:	10800414 	ori	r2,r2,16
 1421244:	e0bfe515 	stw	r2,-108(fp)
 1421248:	e0bff917 	ldw	r2,-28(fp)
 142124c:	10800044 	addi	r2,r2,1
 1421250:	e0bff915 	stw	r2,-28(fp)
 1421254:	00800044 	movi	r2,1
 1421258:	e0bfe815 	stw	r2,-96(fp)
 142125c:	00000206 	br	1421268 <_vsnprintf+0x1fc>
 1421260:	e03fe815 	stw	zero,-96(fp)
 1421264:	0001883a 	nop
 1421268:	e0bfe817 	ldw	r2,-96(fp)
 142126c:	103fb01e 	bne	r2,zero,1421130 <__alt_data_end+0xfffe1130>
 1421270:	e03fe615 	stw	zero,-104(fp)
 1421274:	e0bff917 	ldw	r2,-28(fp)
 1421278:	10800003 	ldbu	r2,0(r2)
 142127c:	10803fcc 	andi	r2,r2,255
 1421280:	1080201c 	xori	r2,r2,128
 1421284:	10bfe004 	addi	r2,r2,-128
 1421288:	1009883a 	mov	r4,r2
 142128c:	14202540 	call	1420254 <_is_digit>
 1421290:	10803fcc 	andi	r2,r2,255
 1421294:	10000526 	beq	r2,zero,14212ac <_vsnprintf+0x240>
 1421298:	e0bff904 	addi	r2,fp,-28
 142129c:	1009883a 	mov	r4,r2
 14212a0:	14202a00 	call	14202a0 <_atoi>
 14212a4:	e0bfe615 	stw	r2,-104(fp)
 14212a8:	00001a06 	br	1421314 <_vsnprintf+0x2a8>
 14212ac:	e0bff917 	ldw	r2,-28(fp)
 14212b0:	10800003 	ldbu	r2,0(r2)
 14212b4:	10803fcc 	andi	r2,r2,255
 14212b8:	1080201c 	xori	r2,r2,128
 14212bc:	10bfe004 	addi	r2,r2,-128
 14212c0:	10800a98 	cmpnei	r2,r2,42
 14212c4:	1000131e 	bne	r2,zero,1421314 <_vsnprintf+0x2a8>
 14212c8:	e0800217 	ldw	r2,8(fp)
 14212cc:	10c00104 	addi	r3,r2,4
 14212d0:	e0c00215 	stw	r3,8(fp)
 14212d4:	10800017 	ldw	r2,0(r2)
 14212d8:	e0bfee15 	stw	r2,-72(fp)
 14212dc:	e0bfee17 	ldw	r2,-72(fp)
 14212e0:	1000070e 	bge	r2,zero,1421300 <_vsnprintf+0x294>
 14212e4:	e0bfe517 	ldw	r2,-108(fp)
 14212e8:	10800094 	ori	r2,r2,2
 14212ec:	e0bfe515 	stw	r2,-108(fp)
 14212f0:	e0bfee17 	ldw	r2,-72(fp)
 14212f4:	0085c83a 	sub	r2,zero,r2
 14212f8:	e0bfe615 	stw	r2,-104(fp)
 14212fc:	00000206 	br	1421308 <_vsnprintf+0x29c>
 1421300:	e0bfee17 	ldw	r2,-72(fp)
 1421304:	e0bfe615 	stw	r2,-104(fp)
 1421308:	e0bff917 	ldw	r2,-28(fp)
 142130c:	10800044 	addi	r2,r2,1
 1421310:	e0bff915 	stw	r2,-28(fp)
 1421314:	e03fe715 	stw	zero,-100(fp)
 1421318:	e0bff917 	ldw	r2,-28(fp)
 142131c:	10800003 	ldbu	r2,0(r2)
 1421320:	10803fcc 	andi	r2,r2,255
 1421324:	1080201c 	xori	r2,r2,128
 1421328:	10bfe004 	addi	r2,r2,-128
 142132c:	10800b98 	cmpnei	r2,r2,46
 1421330:	1000271e 	bne	r2,zero,14213d0 <_vsnprintf+0x364>
 1421334:	e0bfe517 	ldw	r2,-108(fp)
 1421338:	10810014 	ori	r2,r2,1024
 142133c:	e0bfe515 	stw	r2,-108(fp)
 1421340:	e0bff917 	ldw	r2,-28(fp)
 1421344:	10800044 	addi	r2,r2,1
 1421348:	e0bff915 	stw	r2,-28(fp)
 142134c:	e0bff917 	ldw	r2,-28(fp)
 1421350:	10800003 	ldbu	r2,0(r2)
 1421354:	10803fcc 	andi	r2,r2,255
 1421358:	1080201c 	xori	r2,r2,128
 142135c:	10bfe004 	addi	r2,r2,-128
 1421360:	1009883a 	mov	r4,r2
 1421364:	14202540 	call	1420254 <_is_digit>
 1421368:	10803fcc 	andi	r2,r2,255
 142136c:	10000526 	beq	r2,zero,1421384 <_vsnprintf+0x318>
 1421370:	e0bff904 	addi	r2,fp,-28
 1421374:	1009883a 	mov	r4,r2
 1421378:	14202a00 	call	14202a0 <_atoi>
 142137c:	e0bfe715 	stw	r2,-100(fp)
 1421380:	00001306 	br	14213d0 <_vsnprintf+0x364>
 1421384:	e0bff917 	ldw	r2,-28(fp)
 1421388:	10800003 	ldbu	r2,0(r2)
 142138c:	10803fcc 	andi	r2,r2,255
 1421390:	1080201c 	xori	r2,r2,128
 1421394:	10bfe004 	addi	r2,r2,-128
 1421398:	10800a98 	cmpnei	r2,r2,42
 142139c:	10000c1e 	bne	r2,zero,14213d0 <_vsnprintf+0x364>
 14213a0:	e0800217 	ldw	r2,8(fp)
 14213a4:	10c00104 	addi	r3,r2,4
 14213a8:	e0c00215 	stw	r3,8(fp)
 14213ac:	10800017 	ldw	r2,0(r2)
 14213b0:	e0bfef15 	stw	r2,-68(fp)
 14213b4:	e0bfef17 	ldw	r2,-68(fp)
 14213b8:	1000010e 	bge	r2,zero,14213c0 <_vsnprintf+0x354>
 14213bc:	0005883a 	mov	r2,zero
 14213c0:	e0bfe715 	stw	r2,-100(fp)
 14213c4:	e0bff917 	ldw	r2,-28(fp)
 14213c8:	10800044 	addi	r2,r2,1
 14213cc:	e0bff915 	stw	r2,-28(fp)
 14213d0:	e0bff917 	ldw	r2,-28(fp)
 14213d4:	10800003 	ldbu	r2,0(r2)
 14213d8:	10803fcc 	andi	r2,r2,255
 14213dc:	1080201c 	xori	r2,r2,128
 14213e0:	10bfe004 	addi	r2,r2,-128
 14213e4:	10bfe604 	addi	r2,r2,-104
 14213e8:	10c004e8 	cmpgeui	r3,r2,19
 14213ec:	1800561e 	bne	r3,zero,1421548 <_vsnprintf+0x4dc>
 14213f0:	100690ba 	slli	r3,r2,2
 14213f4:	008050b4 	movhi	r2,322
 14213f8:	10850204 	addi	r2,r2,5128
 14213fc:	1885883a 	add	r2,r3,r2
 1421400:	10800017 	ldw	r2,0(r2)
 1421404:	1000683a 	jmp	r2
 1421408:	014214a4 	muli	r5,zero,2130
 142140c:	01421548 	cmpgei	r5,zero,2133
 1421410:	01421510 	cmplti	r5,zero,2132
 1421414:	01421548 	cmpgei	r5,zero,2133
 1421418:	01421454 	movui	r5,2129
 142141c:	01421548 	cmpgei	r5,zero,2133
 1421420:	01421548 	cmpgei	r5,zero,2133
 1421424:	01421548 	cmpgei	r5,zero,2133
 1421428:	01421548 	cmpgei	r5,zero,2133
 142142c:	01421548 	cmpgei	r5,zero,2133
 1421430:	01421548 	cmpgei	r5,zero,2133
 1421434:	01421548 	cmpgei	r5,zero,2133
 1421438:	014214f4 	movhi	r5,2131
 142143c:	01421548 	cmpgei	r5,zero,2133
 1421440:	01421548 	cmpgei	r5,zero,2133
 1421444:	01421548 	cmpgei	r5,zero,2133
 1421448:	01421548 	cmpgei	r5,zero,2133
 142144c:	01421548 	cmpgei	r5,zero,2133
 1421450:	0142152c 	andhi	r5,zero,2132
 1421454:	e0bfe517 	ldw	r2,-108(fp)
 1421458:	10804014 	ori	r2,r2,256
 142145c:	e0bfe515 	stw	r2,-108(fp)
 1421460:	e0bff917 	ldw	r2,-28(fp)
 1421464:	10800044 	addi	r2,r2,1
 1421468:	e0bff915 	stw	r2,-28(fp)
 142146c:	e0bff917 	ldw	r2,-28(fp)
 1421470:	10800003 	ldbu	r2,0(r2)
 1421474:	10803fcc 	andi	r2,r2,255
 1421478:	1080201c 	xori	r2,r2,128
 142147c:	10bfe004 	addi	r2,r2,-128
 1421480:	10801b18 	cmpnei	r2,r2,108
 1421484:	1000321e 	bne	r2,zero,1421550 <_vsnprintf+0x4e4>
 1421488:	e0bfe517 	ldw	r2,-108(fp)
 142148c:	10808014 	ori	r2,r2,512
 1421490:	e0bfe515 	stw	r2,-108(fp)
 1421494:	e0bff917 	ldw	r2,-28(fp)
 1421498:	10800044 	addi	r2,r2,1
 142149c:	e0bff915 	stw	r2,-28(fp)
 14214a0:	00002b06 	br	1421550 <_vsnprintf+0x4e4>
 14214a4:	e0bfe517 	ldw	r2,-108(fp)
 14214a8:	10802014 	ori	r2,r2,128
 14214ac:	e0bfe515 	stw	r2,-108(fp)
 14214b0:	e0bff917 	ldw	r2,-28(fp)
 14214b4:	10800044 	addi	r2,r2,1
 14214b8:	e0bff915 	stw	r2,-28(fp)
 14214bc:	e0bff917 	ldw	r2,-28(fp)
 14214c0:	10800003 	ldbu	r2,0(r2)
 14214c4:	10803fcc 	andi	r2,r2,255
 14214c8:	1080201c 	xori	r2,r2,128
 14214cc:	10bfe004 	addi	r2,r2,-128
 14214d0:	10801a18 	cmpnei	r2,r2,104
 14214d4:	1000201e 	bne	r2,zero,1421558 <_vsnprintf+0x4ec>
 14214d8:	e0bfe517 	ldw	r2,-108(fp)
 14214dc:	10801014 	ori	r2,r2,64
 14214e0:	e0bfe515 	stw	r2,-108(fp)
 14214e4:	e0bff917 	ldw	r2,-28(fp)
 14214e8:	10800044 	addi	r2,r2,1
 14214ec:	e0bff915 	stw	r2,-28(fp)
 14214f0:	00001906 	br	1421558 <_vsnprintf+0x4ec>
 14214f4:	e0bfe517 	ldw	r2,-108(fp)
 14214f8:	10804014 	ori	r2,r2,256
 14214fc:	e0bfe515 	stw	r2,-108(fp)
 1421500:	e0bff917 	ldw	r2,-28(fp)
 1421504:	10800044 	addi	r2,r2,1
 1421508:	e0bff915 	stw	r2,-28(fp)
 142150c:	00001306 	br	142155c <_vsnprintf+0x4f0>
 1421510:	e0bfe517 	ldw	r2,-108(fp)
 1421514:	10808014 	ori	r2,r2,512
 1421518:	e0bfe515 	stw	r2,-108(fp)
 142151c:	e0bff917 	ldw	r2,-28(fp)
 1421520:	10800044 	addi	r2,r2,1
 1421524:	e0bff915 	stw	r2,-28(fp)
 1421528:	00000c06 	br	142155c <_vsnprintf+0x4f0>
 142152c:	e0bfe517 	ldw	r2,-108(fp)
 1421530:	10804014 	ori	r2,r2,256
 1421534:	e0bfe515 	stw	r2,-108(fp)
 1421538:	e0bff917 	ldw	r2,-28(fp)
 142153c:	10800044 	addi	r2,r2,1
 1421540:	e0bff915 	stw	r2,-28(fp)
 1421544:	00000506 	br	142155c <_vsnprintf+0x4f0>
 1421548:	0001883a 	nop
 142154c:	00000306 	br	142155c <_vsnprintf+0x4f0>
 1421550:	0001883a 	nop
 1421554:	00000106 	br	142155c <_vsnprintf+0x4f0>
 1421558:	0001883a 	nop
 142155c:	e0bff917 	ldw	r2,-28(fp)
 1421560:	10800003 	ldbu	r2,0(r2)
 1421564:	10803fcc 	andi	r2,r2,255
 1421568:	1080201c 	xori	r2,r2,128
 142156c:	10bfe004 	addi	r2,r2,-128
 1421570:	10bff6c4 	addi	r2,r2,-37
 1421574:	10c01528 	cmpgeui	r3,r2,84
 1421578:	18028c1e 	bne	r3,zero,1421fac <_vsnprintf+0xf40>
 142157c:	100690ba 	slli	r3,r2,2
 1421580:	008050b4 	movhi	r2,322
 1421584:	10856504 	addi	r2,r2,5524
 1421588:	1885883a 	add	r2,r3,r2
 142158c:	10800017 	ldw	r2,0(r2)
 1421590:	1000683a 	jmp	r2
 1421594:	01421f78 	rdprs	r5,zero,2173
 1421598:	01421fac 	andhi	r5,zero,2174
 142159c:	01421fac 	andhi	r5,zero,2174
 14215a0:	01421fac 	andhi	r5,zero,2174
 14215a4:	01421fac 	andhi	r5,zero,2174
 14215a8:	01421fac 	andhi	r5,zero,2174
 14215ac:	01421fac 	andhi	r5,zero,2174
 14215b0:	01421fac 	andhi	r5,zero,2174
 14215b4:	01421fac 	andhi	r5,zero,2174
 14215b8:	01421fac 	andhi	r5,zero,2174
 14215bc:	01421fac 	andhi	r5,zero,2174
 14215c0:	01421fac 	andhi	r5,zero,2174
 14215c4:	01421fac 	andhi	r5,zero,2174
 14215c8:	01421fac 	andhi	r5,zero,2174
 14215cc:	01421fac 	andhi	r5,zero,2174
 14215d0:	01421fac 	andhi	r5,zero,2174
 14215d4:	01421fac 	andhi	r5,zero,2174
 14215d8:	01421fac 	andhi	r5,zero,2174
 14215dc:	01421fac 	andhi	r5,zero,2174
 14215e0:	01421fac 	andhi	r5,zero,2174
 14215e4:	01421fac 	andhi	r5,zero,2174
 14215e8:	01421fac 	andhi	r5,zero,2174
 14215ec:	01421fac 	andhi	r5,zero,2174
 14215f0:	01421fac 	andhi	r5,zero,2174
 14215f4:	01421fac 	andhi	r5,zero,2174
 14215f8:	01421fac 	andhi	r5,zero,2174
 14215fc:	01421fac 	andhi	r5,zero,2174
 1421600:	01421fac 	andhi	r5,zero,2174
 1421604:	01421fac 	andhi	r5,zero,2174
 1421608:	01421fac 	andhi	r5,zero,2174
 142160c:	01421fac 	andhi	r5,zero,2174
 1421610:	01421fac 	andhi	r5,zero,2174
 1421614:	01421fac 	andhi	r5,zero,2174
 1421618:	01421bfc 	xorhi	r5,zero,2159
 142161c:	01421fac 	andhi	r5,zero,2174
 1421620:	01421fac 	andhi	r5,zero,2174
 1421624:	01421fac 	andhi	r5,zero,2174
 1421628:	01421fac 	andhi	r5,zero,2174
 142162c:	01421fac 	andhi	r5,zero,2174
 1421630:	01421fac 	andhi	r5,zero,2174
 1421634:	01421fac 	andhi	r5,zero,2174
 1421638:	01421fac 	andhi	r5,zero,2174
 142163c:	01421fac 	andhi	r5,zero,2174
 1421640:	01421fac 	andhi	r5,zero,2174
 1421644:	01421fac 	andhi	r5,zero,2174
 1421648:	01421fac 	andhi	r5,zero,2174
 142164c:	01421fac 	andhi	r5,zero,2174
 1421650:	01421fac 	andhi	r5,zero,2174
 1421654:	01421fac 	andhi	r5,zero,2174
 1421658:	01421fac 	andhi	r5,zero,2174
 142165c:	01421fac 	andhi	r5,zero,2174
 1421660:	014216e4 	muli	r5,zero,2139
 1421664:	01421fac 	andhi	r5,zero,2174
 1421668:	01421fac 	andhi	r5,zero,2174
 142166c:	01421fac 	andhi	r5,zero,2174
 1421670:	01421fac 	andhi	r5,zero,2174
 1421674:	01421fac 	andhi	r5,zero,2174
 1421678:	01421fac 	andhi	r5,zero,2174
 142167c:	01421fac 	andhi	r5,zero,2174
 1421680:	01421fac 	andhi	r5,zero,2174
 1421684:	01421fac 	andhi	r5,zero,2174
 1421688:	014216e4 	muli	r5,zero,2139
 142168c:	01421c58 	cmpnei	r5,zero,2161
 1421690:	014216e4 	muli	r5,zero,2139
 1421694:	01421fac 	andhi	r5,zero,2174
 1421698:	01421bfc 	xorhi	r5,zero,2159
 142169c:	01421fac 	andhi	r5,zero,2174
 14216a0:	01421fac 	andhi	r5,zero,2174
 14216a4:	014216e4 	muli	r5,zero,2139
 14216a8:	01421fac 	andhi	r5,zero,2174
 14216ac:	01421fac 	andhi	r5,zero,2174
 14216b0:	01421fac 	andhi	r5,zero,2174
 14216b4:	01421fac 	andhi	r5,zero,2174
 14216b8:	01421fac 	andhi	r5,zero,2174
 14216bc:	014216e4 	muli	r5,zero,2139
 14216c0:	01421e90 	cmplti	r5,zero,2170
 14216c4:	01421fac 	andhi	r5,zero,2174
 14216c8:	01421fac 	andhi	r5,zero,2174
 14216cc:	01421d3c 	xorhi	r5,zero,2164
 14216d0:	01421fac 	andhi	r5,zero,2174
 14216d4:	014216e4 	muli	r5,zero,2139
 14216d8:	01421fac 	andhi	r5,zero,2174
 14216dc:	01421fac 	andhi	r5,zero,2174
 14216e0:	014216e4 	muli	r5,zero,2139
 14216e4:	e0bff917 	ldw	r2,-28(fp)
 14216e8:	10800003 	ldbu	r2,0(r2)
 14216ec:	10803fcc 	andi	r2,r2,255
 14216f0:	1080201c 	xori	r2,r2,128
 14216f4:	10bfe004 	addi	r2,r2,-128
 14216f8:	10801e20 	cmpeqi	r2,r2,120
 14216fc:	1000071e 	bne	r2,zero,142171c <_vsnprintf+0x6b0>
 1421700:	e0bff917 	ldw	r2,-28(fp)
 1421704:	10800003 	ldbu	r2,0(r2)
 1421708:	10803fcc 	andi	r2,r2,255
 142170c:	1080201c 	xori	r2,r2,128
 1421710:	10bfe004 	addi	r2,r2,-128
 1421714:	10801618 	cmpnei	r2,r2,88
 1421718:	1000031e 	bne	r2,zero,1421728 <_vsnprintf+0x6bc>
 142171c:	00800404 	movi	r2,16
 1421720:	e0bfea15 	stw	r2,-88(fp)
 1421724:	00001e06 	br	14217a0 <_vsnprintf+0x734>
 1421728:	e0bff917 	ldw	r2,-28(fp)
 142172c:	10800003 	ldbu	r2,0(r2)
 1421730:	10803fcc 	andi	r2,r2,255
 1421734:	1080201c 	xori	r2,r2,128
 1421738:	10bfe004 	addi	r2,r2,-128
 142173c:	10801bd8 	cmpnei	r2,r2,111
 1421740:	1000031e 	bne	r2,zero,1421750 <_vsnprintf+0x6e4>
 1421744:	00800204 	movi	r2,8
 1421748:	e0bfea15 	stw	r2,-88(fp)
 142174c:	00001406 	br	14217a0 <_vsnprintf+0x734>
 1421750:	e0bff917 	ldw	r2,-28(fp)
 1421754:	10800003 	ldbu	r2,0(r2)
 1421758:	10803fcc 	andi	r2,r2,255
 142175c:	1080201c 	xori	r2,r2,128
 1421760:	10bfe004 	addi	r2,r2,-128
 1421764:	10801898 	cmpnei	r2,r2,98
 1421768:	1000071e 	bne	r2,zero,1421788 <_vsnprintf+0x71c>
 142176c:	00800084 	movi	r2,2
 1421770:	e0bfea15 	stw	r2,-88(fp)
 1421774:	e0ffe517 	ldw	r3,-108(fp)
 1421778:	00bffbc4 	movi	r2,-17
 142177c:	1884703a 	and	r2,r3,r2
 1421780:	e0bfe515 	stw	r2,-108(fp)
 1421784:	00000606 	br	14217a0 <_vsnprintf+0x734>
 1421788:	00800284 	movi	r2,10
 142178c:	e0bfea15 	stw	r2,-88(fp)
 1421790:	e0ffe517 	ldw	r3,-108(fp)
 1421794:	00bffbc4 	movi	r2,-17
 1421798:	1884703a 	and	r2,r3,r2
 142179c:	e0bfe515 	stw	r2,-108(fp)
 14217a0:	e0bff917 	ldw	r2,-28(fp)
 14217a4:	10800003 	ldbu	r2,0(r2)
 14217a8:	10803fcc 	andi	r2,r2,255
 14217ac:	1080201c 	xori	r2,r2,128
 14217b0:	10bfe004 	addi	r2,r2,-128
 14217b4:	10801618 	cmpnei	r2,r2,88
 14217b8:	1000031e 	bne	r2,zero,14217c8 <_vsnprintf+0x75c>
 14217bc:	e0bfe517 	ldw	r2,-108(fp)
 14217c0:	10800814 	ori	r2,r2,32
 14217c4:	e0bfe515 	stw	r2,-108(fp)
 14217c8:	e0bff917 	ldw	r2,-28(fp)
 14217cc:	10800003 	ldbu	r2,0(r2)
 14217d0:	10803fcc 	andi	r2,r2,255
 14217d4:	1080201c 	xori	r2,r2,128
 14217d8:	10bfe004 	addi	r2,r2,-128
 14217dc:	10801a60 	cmpeqi	r2,r2,105
 14217e0:	10000b1e 	bne	r2,zero,1421810 <_vsnprintf+0x7a4>
 14217e4:	e0bff917 	ldw	r2,-28(fp)
 14217e8:	10800003 	ldbu	r2,0(r2)
 14217ec:	10803fcc 	andi	r2,r2,255
 14217f0:	1080201c 	xori	r2,r2,128
 14217f4:	10bfe004 	addi	r2,r2,-128
 14217f8:	10801920 	cmpeqi	r2,r2,100
 14217fc:	1000041e 	bne	r2,zero,1421810 <_vsnprintf+0x7a4>
 1421800:	e0ffe517 	ldw	r3,-108(fp)
 1421804:	00bffcc4 	movi	r2,-13
 1421808:	1884703a 	and	r2,r3,r2
 142180c:	e0bfe515 	stw	r2,-108(fp)
 1421810:	e0bfe517 	ldw	r2,-108(fp)
 1421814:	1081000c 	andi	r2,r2,1024
 1421818:	10000426 	beq	r2,zero,142182c <_vsnprintf+0x7c0>
 142181c:	e0ffe517 	ldw	r3,-108(fp)
 1421820:	00bfff84 	movi	r2,-2
 1421824:	1884703a 	and	r2,r3,r2
 1421828:	e0bfe515 	stw	r2,-108(fp)
 142182c:	e0bff917 	ldw	r2,-28(fp)
 1421830:	10800003 	ldbu	r2,0(r2)
 1421834:	10803fcc 	andi	r2,r2,255
 1421838:	1080201c 	xori	r2,r2,128
 142183c:	10bfe004 	addi	r2,r2,-128
 1421840:	10801a60 	cmpeqi	r2,r2,105
 1421844:	1000071e 	bne	r2,zero,1421864 <_vsnprintf+0x7f8>
 1421848:	e0bff917 	ldw	r2,-28(fp)
 142184c:	10800003 	ldbu	r2,0(r2)
 1421850:	10803fcc 	andi	r2,r2,255
 1421854:	1080201c 	xori	r2,r2,128
 1421858:	10bfe004 	addi	r2,r2,-128
 142185c:	10801918 	cmpnei	r2,r2,100
 1421860:	1000851e 	bne	r2,zero,1421a78 <_vsnprintf+0xa0c>
 1421864:	e0bfe517 	ldw	r2,-108(fp)
 1421868:	1080800c 	andi	r2,r2,512
 142186c:	10002f26 	beq	r2,zero,142192c <_vsnprintf+0x8c0>
 1421870:	e0800217 	ldw	r2,8(fp)
 1421874:	10c00204 	addi	r3,r2,8
 1421878:	e0c00215 	stw	r3,8(fp)
 142187c:	10c00017 	ldw	r3,0(r2)
 1421880:	e0fff115 	stw	r3,-60(fp)
 1421884:	10800117 	ldw	r2,4(r2)
 1421888:	e0bff215 	stw	r2,-56(fp)
 142188c:	e0bff117 	ldw	r2,-60(fp)
 1421890:	e0fff217 	ldw	r3,-56(fp)
 1421894:	1800090e 	bge	r3,zero,14218bc <_vsnprintf+0x850>
 1421898:	000d883a 	mov	r6,zero
 142189c:	000f883a 	mov	r7,zero
 14218a0:	3089c83a 	sub	r4,r6,r2
 14218a4:	3111803a 	cmpltu	r8,r6,r4
 14218a8:	38cbc83a 	sub	r5,r7,r3
 14218ac:	2a05c83a 	sub	r2,r5,r8
 14218b0:	100b883a 	mov	r5,r2
 14218b4:	2005883a 	mov	r2,r4
 14218b8:	2807883a 	mov	r3,r5
 14218bc:	1009883a 	mov	r4,r2
 14218c0:	180b883a 	mov	r5,r3
 14218c4:	2005883a 	mov	r2,r4
 14218c8:	2807883a 	mov	r3,r5
 14218cc:	e13ff217 	ldw	r4,-56(fp)
 14218d0:	2008d7fa 	srli	r4,r4,31
 14218d4:	21003fcc 	andi	r4,r4,255
 14218d8:	e17fea17 	ldw	r5,-88(fp)
 14218dc:	2825883a 	mov	r18,r5
 14218e0:	0027883a 	mov	r19,zero
 14218e4:	e17fe517 	ldw	r5,-108(fp)
 14218e8:	d9400715 	stw	r5,28(sp)
 14218ec:	e17fe617 	ldw	r5,-104(fp)
 14218f0:	d9400615 	stw	r5,24(sp)
 14218f4:	e17fe717 	ldw	r5,-100(fp)
 14218f8:	d9400515 	stw	r5,20(sp)
 14218fc:	dc800315 	stw	r18,12(sp)
 1421900:	dcc00415 	stw	r19,16(sp)
 1421904:	d9000215 	stw	r4,8(sp)
 1421908:	d8800015 	stw	r2,0(sp)
 142190c:	d8c00115 	stw	r3,4(sp)
 1421910:	e1fff817 	ldw	r7,-32(fp)
 1421914:	e1bfe917 	ldw	r6,-92(fp)
 1421918:	e17ff717 	ldw	r5,-36(fp)
 142191c:	e13ff617 	ldw	r4,-40(fp)
 1421920:	142083c0 	call	142083c <_ntoa_long_long>
 1421924:	e0bfe915 	stw	r2,-92(fp)
 1421928:	0000b006 	br	1421bec <_vsnprintf+0xb80>
 142192c:	e0bfe517 	ldw	r2,-108(fp)
 1421930:	1080400c 	andi	r2,r2,256
 1421934:	10001d26 	beq	r2,zero,14219ac <_vsnprintf+0x940>
 1421938:	e0800217 	ldw	r2,8(fp)
 142193c:	10c00104 	addi	r3,r2,4
 1421940:	e0c00215 	stw	r3,8(fp)
 1421944:	10800017 	ldw	r2,0(r2)
 1421948:	e0bff315 	stw	r2,-52(fp)
 142194c:	e0bff317 	ldw	r2,-52(fp)
 1421950:	1000010e 	bge	r2,zero,1421958 <_vsnprintf+0x8ec>
 1421954:	0085c83a 	sub	r2,zero,r2
 1421958:	1009883a 	mov	r4,r2
 142195c:	e0bff317 	ldw	r2,-52(fp)
 1421960:	1004d7fa 	srli	r2,r2,31
 1421964:	10803fcc 	andi	r2,r2,255
 1421968:	e0ffe517 	ldw	r3,-108(fp)
 142196c:	d8c00515 	stw	r3,20(sp)
 1421970:	e0ffe617 	ldw	r3,-104(fp)
 1421974:	d8c00415 	stw	r3,16(sp)
 1421978:	e0ffe717 	ldw	r3,-100(fp)
 142197c:	d8c00315 	stw	r3,12(sp)
 1421980:	e0ffea17 	ldw	r3,-88(fp)
 1421984:	d8c00215 	stw	r3,8(sp)
 1421988:	d8800115 	stw	r2,4(sp)
 142198c:	d9000015 	stw	r4,0(sp)
 1421990:	e1fff817 	ldw	r7,-32(fp)
 1421994:	e1bfe917 	ldw	r6,-92(fp)
 1421998:	e17ff717 	ldw	r5,-36(fp)
 142199c:	e13ff617 	ldw	r4,-40(fp)
 14219a0:	14206f00 	call	14206f0 <_ntoa_long>
 14219a4:	e0bfe915 	stw	r2,-92(fp)
 14219a8:	00009006 	br	1421bec <_vsnprintf+0xb80>
 14219ac:	e0bfe517 	ldw	r2,-108(fp)
 14219b0:	1080100c 	andi	r2,r2,64
 14219b4:	10000826 	beq	r2,zero,14219d8 <_vsnprintf+0x96c>
 14219b8:	e0800217 	ldw	r2,8(fp)
 14219bc:	10c00104 	addi	r3,r2,4
 14219c0:	e0c00215 	stw	r3,8(fp)
 14219c4:	10800017 	ldw	r2,0(r2)
 14219c8:	10803fcc 	andi	r2,r2,255
 14219cc:	1080201c 	xori	r2,r2,128
 14219d0:	10bfe004 	addi	r2,r2,-128
 14219d4:	00000f06 	br	1421a14 <_vsnprintf+0x9a8>
 14219d8:	e0bfe517 	ldw	r2,-108(fp)
 14219dc:	1080200c 	andi	r2,r2,128
 14219e0:	10000826 	beq	r2,zero,1421a04 <_vsnprintf+0x998>
 14219e4:	e0800217 	ldw	r2,8(fp)
 14219e8:	10c00104 	addi	r3,r2,4
 14219ec:	e0c00215 	stw	r3,8(fp)
 14219f0:	10800017 	ldw	r2,0(r2)
 14219f4:	10bfffcc 	andi	r2,r2,65535
 14219f8:	10a0001c 	xori	r2,r2,32768
 14219fc:	10a00004 	addi	r2,r2,-32768
 1421a00:	00000406 	br	1421a14 <_vsnprintf+0x9a8>
 1421a04:	e0800217 	ldw	r2,8(fp)
 1421a08:	10c00104 	addi	r3,r2,4
 1421a0c:	e0c00215 	stw	r3,8(fp)
 1421a10:	10800017 	ldw	r2,0(r2)
 1421a14:	e0bff415 	stw	r2,-48(fp)
 1421a18:	e0bff417 	ldw	r2,-48(fp)
 1421a1c:	1000010e 	bge	r2,zero,1421a24 <_vsnprintf+0x9b8>
 1421a20:	0085c83a 	sub	r2,zero,r2
 1421a24:	1009883a 	mov	r4,r2
 1421a28:	e0bff417 	ldw	r2,-48(fp)
 1421a2c:	1004d7fa 	srli	r2,r2,31
 1421a30:	10803fcc 	andi	r2,r2,255
 1421a34:	e0ffe517 	ldw	r3,-108(fp)
 1421a38:	d8c00515 	stw	r3,20(sp)
 1421a3c:	e0ffe617 	ldw	r3,-104(fp)
 1421a40:	d8c00415 	stw	r3,16(sp)
 1421a44:	e0ffe717 	ldw	r3,-100(fp)
 1421a48:	d8c00315 	stw	r3,12(sp)
 1421a4c:	e0ffea17 	ldw	r3,-88(fp)
 1421a50:	d8c00215 	stw	r3,8(sp)
 1421a54:	d8800115 	stw	r2,4(sp)
 1421a58:	d9000015 	stw	r4,0(sp)
 1421a5c:	e1fff817 	ldw	r7,-32(fp)
 1421a60:	e1bfe917 	ldw	r6,-92(fp)
 1421a64:	e17ff717 	ldw	r5,-36(fp)
 1421a68:	e13ff617 	ldw	r4,-40(fp)
 1421a6c:	14206f00 	call	14206f0 <_ntoa_long>
 1421a70:	e0bfe915 	stw	r2,-92(fp)
 1421a74:	00005d06 	br	1421bec <_vsnprintf+0xb80>
 1421a78:	e0bfe517 	ldw	r2,-108(fp)
 1421a7c:	1080800c 	andi	r2,r2,512
 1421a80:	10001a26 	beq	r2,zero,1421aec <_vsnprintf+0xa80>
 1421a84:	e1000217 	ldw	r4,8(fp)
 1421a88:	20800204 	addi	r2,r4,8
 1421a8c:	e0800215 	stw	r2,8(fp)
 1421a90:	20800017 	ldw	r2,0(r4)
 1421a94:	20c00117 	ldw	r3,4(r4)
 1421a98:	e13fea17 	ldw	r4,-88(fp)
 1421a9c:	2021883a 	mov	r16,r4
 1421aa0:	0023883a 	mov	r17,zero
 1421aa4:	e13fe517 	ldw	r4,-108(fp)
 1421aa8:	d9000715 	stw	r4,28(sp)
 1421aac:	e13fe617 	ldw	r4,-104(fp)
 1421ab0:	d9000615 	stw	r4,24(sp)
 1421ab4:	e13fe717 	ldw	r4,-100(fp)
 1421ab8:	d9000515 	stw	r4,20(sp)
 1421abc:	dc000315 	stw	r16,12(sp)
 1421ac0:	dc400415 	stw	r17,16(sp)
 1421ac4:	d8000215 	stw	zero,8(sp)
 1421ac8:	d8800015 	stw	r2,0(sp)
 1421acc:	d8c00115 	stw	r3,4(sp)
 1421ad0:	e1fff817 	ldw	r7,-32(fp)
 1421ad4:	e1bfe917 	ldw	r6,-92(fp)
 1421ad8:	e17ff717 	ldw	r5,-36(fp)
 1421adc:	e13ff617 	ldw	r4,-40(fp)
 1421ae0:	142083c0 	call	142083c <_ntoa_long_long>
 1421ae4:	e0bfe915 	stw	r2,-92(fp)
 1421ae8:	00004006 	br	1421bec <_vsnprintf+0xb80>
 1421aec:	e0bfe517 	ldw	r2,-108(fp)
 1421af0:	1080400c 	andi	r2,r2,256
 1421af4:	10001526 	beq	r2,zero,1421b4c <_vsnprintf+0xae0>
 1421af8:	e0800217 	ldw	r2,8(fp)
 1421afc:	10c00104 	addi	r3,r2,4
 1421b00:	e0c00215 	stw	r3,8(fp)
 1421b04:	10800017 	ldw	r2,0(r2)
 1421b08:	e0ffe517 	ldw	r3,-108(fp)
 1421b0c:	d8c00515 	stw	r3,20(sp)
 1421b10:	e0ffe617 	ldw	r3,-104(fp)
 1421b14:	d8c00415 	stw	r3,16(sp)
 1421b18:	e0ffe717 	ldw	r3,-100(fp)
 1421b1c:	d8c00315 	stw	r3,12(sp)
 1421b20:	e0ffea17 	ldw	r3,-88(fp)
 1421b24:	d8c00215 	stw	r3,8(sp)
 1421b28:	d8000115 	stw	zero,4(sp)
 1421b2c:	d8800015 	stw	r2,0(sp)
 1421b30:	e1fff817 	ldw	r7,-32(fp)
 1421b34:	e1bfe917 	ldw	r6,-92(fp)
 1421b38:	e17ff717 	ldw	r5,-36(fp)
 1421b3c:	e13ff617 	ldw	r4,-40(fp)
 1421b40:	14206f00 	call	14206f0 <_ntoa_long>
 1421b44:	e0bfe915 	stw	r2,-92(fp)
 1421b48:	00002806 	br	1421bec <_vsnprintf+0xb80>
 1421b4c:	e0bfe517 	ldw	r2,-108(fp)
 1421b50:	1080100c 	andi	r2,r2,64
 1421b54:	10000626 	beq	r2,zero,1421b70 <_vsnprintf+0xb04>
 1421b58:	e0800217 	ldw	r2,8(fp)
 1421b5c:	10c00104 	addi	r3,r2,4
 1421b60:	e0c00215 	stw	r3,8(fp)
 1421b64:	10800017 	ldw	r2,0(r2)
 1421b68:	10803fcc 	andi	r2,r2,255
 1421b6c:	00000d06 	br	1421ba4 <_vsnprintf+0xb38>
 1421b70:	e0bfe517 	ldw	r2,-108(fp)
 1421b74:	1080200c 	andi	r2,r2,128
 1421b78:	10000626 	beq	r2,zero,1421b94 <_vsnprintf+0xb28>
 1421b7c:	e0800217 	ldw	r2,8(fp)
 1421b80:	10c00104 	addi	r3,r2,4
 1421b84:	e0c00215 	stw	r3,8(fp)
 1421b88:	10800017 	ldw	r2,0(r2)
 1421b8c:	10bfffcc 	andi	r2,r2,65535
 1421b90:	00000406 	br	1421ba4 <_vsnprintf+0xb38>
 1421b94:	e0800217 	ldw	r2,8(fp)
 1421b98:	10c00104 	addi	r3,r2,4
 1421b9c:	e0c00215 	stw	r3,8(fp)
 1421ba0:	10800017 	ldw	r2,0(r2)
 1421ba4:	e0bff015 	stw	r2,-64(fp)
 1421ba8:	e0bfe517 	ldw	r2,-108(fp)
 1421bac:	d8800515 	stw	r2,20(sp)
 1421bb0:	e0bfe617 	ldw	r2,-104(fp)
 1421bb4:	d8800415 	stw	r2,16(sp)
 1421bb8:	e0bfe717 	ldw	r2,-100(fp)
 1421bbc:	d8800315 	stw	r2,12(sp)
 1421bc0:	e0bfea17 	ldw	r2,-88(fp)
 1421bc4:	d8800215 	stw	r2,8(sp)
 1421bc8:	d8000115 	stw	zero,4(sp)
 1421bcc:	e0bff017 	ldw	r2,-64(fp)
 1421bd0:	d8800015 	stw	r2,0(sp)
 1421bd4:	e1fff817 	ldw	r7,-32(fp)
 1421bd8:	e1bfe917 	ldw	r6,-92(fp)
 1421bdc:	e17ff717 	ldw	r5,-36(fp)
 1421be0:	e13ff617 	ldw	r4,-40(fp)
 1421be4:	14206f00 	call	14206f0 <_ntoa_long>
 1421be8:	e0bfe915 	stw	r2,-92(fp)
 1421bec:	e0bff917 	ldw	r2,-28(fp)
 1421bf0:	10800044 	addi	r2,r2,1
 1421bf4:	e0bff915 	stw	r2,-28(fp)
 1421bf8:	0000fd06 	br	1421ff0 <_vsnprintf+0xf84>
 1421bfc:	e1000217 	ldw	r4,8(fp)
 1421c00:	20800204 	addi	r2,r4,8
 1421c04:	e0800215 	stw	r2,8(fp)
 1421c08:	20800017 	ldw	r2,0(r4)
 1421c0c:	20c00117 	ldw	r3,4(r4)
 1421c10:	e13fe517 	ldw	r4,-108(fp)
 1421c14:	d9000415 	stw	r4,16(sp)
 1421c18:	e13fe617 	ldw	r4,-104(fp)
 1421c1c:	d9000315 	stw	r4,12(sp)
 1421c20:	e13fe717 	ldw	r4,-100(fp)
 1421c24:	d9000215 	stw	r4,8(sp)
 1421c28:	d8800015 	stw	r2,0(sp)
 1421c2c:	d8c00115 	stw	r3,4(sp)
 1421c30:	e1fff817 	ldw	r7,-32(fp)
 1421c34:	e1bfe917 	ldw	r6,-92(fp)
 1421c38:	e17ff717 	ldw	r5,-36(fp)
 1421c3c:	e13ff617 	ldw	r4,-40(fp)
 1421c40:	14209d00 	call	14209d0 <_ftoa>
 1421c44:	e0bfe915 	stw	r2,-92(fp)
 1421c48:	e0bff917 	ldw	r2,-28(fp)
 1421c4c:	10800044 	addi	r2,r2,1
 1421c50:	e0bff915 	stw	r2,-28(fp)
 1421c54:	0000e606 	br	1421ff0 <_vsnprintf+0xf84>
 1421c58:	00800044 	movi	r2,1
 1421c5c:	e0bfeb15 	stw	r2,-84(fp)
 1421c60:	e0bfe517 	ldw	r2,-108(fp)
 1421c64:	1080008c 	andi	r2,r2,2
 1421c68:	10000f1e 	bne	r2,zero,1421ca8 <_vsnprintf+0xc3c>
 1421c6c:	00000906 	br	1421c94 <_vsnprintf+0xc28>
 1421c70:	e0bfe917 	ldw	r2,-92(fp)
 1421c74:	10c00044 	addi	r3,r2,1
 1421c78:	e0ffe915 	stw	r3,-92(fp)
 1421c7c:	e0fff617 	ldw	r3,-40(fp)
 1421c80:	e1fff817 	ldw	r7,-32(fp)
 1421c84:	100d883a 	mov	r6,r2
 1421c88:	e17ff717 	ldw	r5,-36(fp)
 1421c8c:	01000804 	movi	r4,32
 1421c90:	183ee83a 	callr	r3
 1421c94:	e0bfeb17 	ldw	r2,-84(fp)
 1421c98:	10c00044 	addi	r3,r2,1
 1421c9c:	e0ffeb15 	stw	r3,-84(fp)
 1421ca0:	e0ffe617 	ldw	r3,-104(fp)
 1421ca4:	10fff236 	bltu	r2,r3,1421c70 <__alt_data_end+0xfffe1c70>
 1421ca8:	e0800217 	ldw	r2,8(fp)
 1421cac:	10c00104 	addi	r3,r2,4
 1421cb0:	e0c00215 	stw	r3,8(fp)
 1421cb4:	10800017 	ldw	r2,0(r2)
 1421cb8:	11003fcc 	andi	r4,r2,255
 1421cbc:	2100201c 	xori	r4,r4,128
 1421cc0:	213fe004 	addi	r4,r4,-128
 1421cc4:	e0bfe917 	ldw	r2,-92(fp)
 1421cc8:	10c00044 	addi	r3,r2,1
 1421ccc:	e0ffe915 	stw	r3,-92(fp)
 1421cd0:	e0fff617 	ldw	r3,-40(fp)
 1421cd4:	e1fff817 	ldw	r7,-32(fp)
 1421cd8:	100d883a 	mov	r6,r2
 1421cdc:	e17ff717 	ldw	r5,-36(fp)
 1421ce0:	183ee83a 	callr	r3
 1421ce4:	e0bfe517 	ldw	r2,-108(fp)
 1421ce8:	1080008c 	andi	r2,r2,2
 1421cec:	10000f26 	beq	r2,zero,1421d2c <_vsnprintf+0xcc0>
 1421cf0:	00000906 	br	1421d18 <_vsnprintf+0xcac>
 1421cf4:	e0bfe917 	ldw	r2,-92(fp)
 1421cf8:	10c00044 	addi	r3,r2,1
 1421cfc:	e0ffe915 	stw	r3,-92(fp)
 1421d00:	e0fff617 	ldw	r3,-40(fp)
 1421d04:	e1fff817 	ldw	r7,-32(fp)
 1421d08:	100d883a 	mov	r6,r2
 1421d0c:	e17ff717 	ldw	r5,-36(fp)
 1421d10:	01000804 	movi	r4,32
 1421d14:	183ee83a 	callr	r3
 1421d18:	e0bfeb17 	ldw	r2,-84(fp)
 1421d1c:	10c00044 	addi	r3,r2,1
 1421d20:	e0ffeb15 	stw	r3,-84(fp)
 1421d24:	e0ffe617 	ldw	r3,-104(fp)
 1421d28:	10fff236 	bltu	r2,r3,1421cf4 <__alt_data_end+0xfffe1cf4>
 1421d2c:	e0bff917 	ldw	r2,-28(fp)
 1421d30:	10800044 	addi	r2,r2,1
 1421d34:	e0bff915 	stw	r2,-28(fp)
 1421d38:	0000ad06 	br	1421ff0 <_vsnprintf+0xf84>
 1421d3c:	e0800217 	ldw	r2,8(fp)
 1421d40:	10c00104 	addi	r3,r2,4
 1421d44:	e0c00215 	stw	r3,8(fp)
 1421d48:	10800017 	ldw	r2,0(r2)
 1421d4c:	e0bfec15 	stw	r2,-80(fp)
 1421d50:	e13fec17 	ldw	r4,-80(fp)
 1421d54:	14201f80 	call	14201f8 <_strlen>
 1421d58:	e0bfed15 	stw	r2,-76(fp)
 1421d5c:	e0bfe517 	ldw	r2,-108(fp)
 1421d60:	1081000c 	andi	r2,r2,1024
 1421d64:	10000526 	beq	r2,zero,1421d7c <_vsnprintf+0xd10>
 1421d68:	e0ffed17 	ldw	r3,-76(fp)
 1421d6c:	e0bfe717 	ldw	r2,-100(fp)
 1421d70:	1880012e 	bgeu	r3,r2,1421d78 <_vsnprintf+0xd0c>
 1421d74:	1805883a 	mov	r2,r3
 1421d78:	e0bfed15 	stw	r2,-76(fp)
 1421d7c:	e0bfe517 	ldw	r2,-108(fp)
 1421d80:	1080008c 	andi	r2,r2,2
 1421d84:	10001f1e 	bne	r2,zero,1421e04 <_vsnprintf+0xd98>
 1421d88:	00000906 	br	1421db0 <_vsnprintf+0xd44>
 1421d8c:	e0bfe917 	ldw	r2,-92(fp)
 1421d90:	10c00044 	addi	r3,r2,1
 1421d94:	e0ffe915 	stw	r3,-92(fp)
 1421d98:	e0fff617 	ldw	r3,-40(fp)
 1421d9c:	e1fff817 	ldw	r7,-32(fp)
 1421da0:	100d883a 	mov	r6,r2
 1421da4:	e17ff717 	ldw	r5,-36(fp)
 1421da8:	01000804 	movi	r4,32
 1421dac:	183ee83a 	callr	r3
 1421db0:	e0bfed17 	ldw	r2,-76(fp)
 1421db4:	10c00044 	addi	r3,r2,1
 1421db8:	e0ffed15 	stw	r3,-76(fp)
 1421dbc:	e0ffe617 	ldw	r3,-104(fp)
 1421dc0:	10fff236 	bltu	r2,r3,1421d8c <__alt_data_end+0xfffe1d8c>
 1421dc4:	00000f06 	br	1421e04 <_vsnprintf+0xd98>
 1421dc8:	e0bfec17 	ldw	r2,-80(fp)
 1421dcc:	10c00044 	addi	r3,r2,1
 1421dd0:	e0ffec15 	stw	r3,-80(fp)
 1421dd4:	10800003 	ldbu	r2,0(r2)
 1421dd8:	11003fcc 	andi	r4,r2,255
 1421ddc:	2100201c 	xori	r4,r4,128
 1421de0:	213fe004 	addi	r4,r4,-128
 1421de4:	e0bfe917 	ldw	r2,-92(fp)
 1421de8:	10c00044 	addi	r3,r2,1
 1421dec:	e0ffe915 	stw	r3,-92(fp)
 1421df0:	e0fff617 	ldw	r3,-40(fp)
 1421df4:	e1fff817 	ldw	r7,-32(fp)
 1421df8:	100d883a 	mov	r6,r2
 1421dfc:	e17ff717 	ldw	r5,-36(fp)
 1421e00:	183ee83a 	callr	r3
 1421e04:	e0bfec17 	ldw	r2,-80(fp)
 1421e08:	10800003 	ldbu	r2,0(r2)
 1421e0c:	10803fcc 	andi	r2,r2,255
 1421e10:	1080201c 	xori	r2,r2,128
 1421e14:	10bfe004 	addi	r2,r2,-128
 1421e18:	10000726 	beq	r2,zero,1421e38 <_vsnprintf+0xdcc>
 1421e1c:	e0bfe517 	ldw	r2,-108(fp)
 1421e20:	1081000c 	andi	r2,r2,1024
 1421e24:	103fe826 	beq	r2,zero,1421dc8 <__alt_data_end+0xfffe1dc8>
 1421e28:	e0bfe717 	ldw	r2,-100(fp)
 1421e2c:	10ffffc4 	addi	r3,r2,-1
 1421e30:	e0ffe715 	stw	r3,-100(fp)
 1421e34:	103fe41e 	bne	r2,zero,1421dc8 <__alt_data_end+0xfffe1dc8>
 1421e38:	e0bfe517 	ldw	r2,-108(fp)
 1421e3c:	1080008c 	andi	r2,r2,2
 1421e40:	10000f26 	beq	r2,zero,1421e80 <_vsnprintf+0xe14>
 1421e44:	00000906 	br	1421e6c <_vsnprintf+0xe00>
 1421e48:	e0bfe917 	ldw	r2,-92(fp)
 1421e4c:	10c00044 	addi	r3,r2,1
 1421e50:	e0ffe915 	stw	r3,-92(fp)
 1421e54:	e0fff617 	ldw	r3,-40(fp)
 1421e58:	e1fff817 	ldw	r7,-32(fp)
 1421e5c:	100d883a 	mov	r6,r2
 1421e60:	e17ff717 	ldw	r5,-36(fp)
 1421e64:	01000804 	movi	r4,32
 1421e68:	183ee83a 	callr	r3
 1421e6c:	e0bfed17 	ldw	r2,-76(fp)
 1421e70:	10c00044 	addi	r3,r2,1
 1421e74:	e0ffed15 	stw	r3,-76(fp)
 1421e78:	e0ffe617 	ldw	r3,-104(fp)
 1421e7c:	10fff236 	bltu	r2,r3,1421e48 <__alt_data_end+0xfffe1e48>
 1421e80:	e0bff917 	ldw	r2,-28(fp)
 1421e84:	10800044 	addi	r2,r2,1
 1421e88:	e0bff915 	stw	r2,-28(fp)
 1421e8c:	00005806 	br	1421ff0 <_vsnprintf+0xf84>
 1421e90:	00800204 	movi	r2,8
 1421e94:	e0bfe615 	stw	r2,-104(fp)
 1421e98:	e0bfe517 	ldw	r2,-108(fp)
 1421e9c:	10800854 	ori	r2,r2,33
 1421ea0:	e0bfe515 	stw	r2,-108(fp)
 1421ea4:	e03ff505 	stb	zero,-44(fp)
 1421ea8:	e0bff503 	ldbu	r2,-44(fp)
 1421eac:	10001926 	beq	r2,zero,1421f14 <_vsnprintf+0xea8>
 1421eb0:	e0800217 	ldw	r2,8(fp)
 1421eb4:	10c00104 	addi	r3,r2,4
 1421eb8:	e0c00215 	stw	r3,8(fp)
 1421ebc:	10800017 	ldw	r2,0(r2)
 1421ec0:	1029883a 	mov	r20,r2
 1421ec4:	002b883a 	mov	r21,zero
 1421ec8:	e0bfe517 	ldw	r2,-108(fp)
 1421ecc:	d8800715 	stw	r2,28(sp)
 1421ed0:	e0bfe617 	ldw	r2,-104(fp)
 1421ed4:	d8800615 	stw	r2,24(sp)
 1421ed8:	e0bfe717 	ldw	r2,-100(fp)
 1421edc:	d8800515 	stw	r2,20(sp)
 1421ee0:	00800404 	movi	r2,16
 1421ee4:	d8800315 	stw	r2,12(sp)
 1421ee8:	d8000415 	stw	zero,16(sp)
 1421eec:	d8000215 	stw	zero,8(sp)
 1421ef0:	dd000015 	stw	r20,0(sp)
 1421ef4:	dd400115 	stw	r21,4(sp)
 1421ef8:	e1fff817 	ldw	r7,-32(fp)
 1421efc:	e1bfe917 	ldw	r6,-92(fp)
 1421f00:	e17ff717 	ldw	r5,-36(fp)
 1421f04:	e13ff617 	ldw	r4,-40(fp)
 1421f08:	142083c0 	call	142083c <_ntoa_long_long>
 1421f0c:	e0bfe915 	stw	r2,-92(fp)
 1421f10:	00001506 	br	1421f68 <_vsnprintf+0xefc>
 1421f14:	e0800217 	ldw	r2,8(fp)
 1421f18:	10c00104 	addi	r3,r2,4
 1421f1c:	e0c00215 	stw	r3,8(fp)
 1421f20:	10800017 	ldw	r2,0(r2)
 1421f24:	1007883a 	mov	r3,r2
 1421f28:	e0bfe517 	ldw	r2,-108(fp)
 1421f2c:	d8800515 	stw	r2,20(sp)
 1421f30:	e0bfe617 	ldw	r2,-104(fp)
 1421f34:	d8800415 	stw	r2,16(sp)
 1421f38:	e0bfe717 	ldw	r2,-100(fp)
 1421f3c:	d8800315 	stw	r2,12(sp)
 1421f40:	00800404 	movi	r2,16
 1421f44:	d8800215 	stw	r2,8(sp)
 1421f48:	d8000115 	stw	zero,4(sp)
 1421f4c:	d8c00015 	stw	r3,0(sp)
 1421f50:	e1fff817 	ldw	r7,-32(fp)
 1421f54:	e1bfe917 	ldw	r6,-92(fp)
 1421f58:	e17ff717 	ldw	r5,-36(fp)
 1421f5c:	e13ff617 	ldw	r4,-40(fp)
 1421f60:	14206f00 	call	14206f0 <_ntoa_long>
 1421f64:	e0bfe915 	stw	r2,-92(fp)
 1421f68:	e0bff917 	ldw	r2,-28(fp)
 1421f6c:	10800044 	addi	r2,r2,1
 1421f70:	e0bff915 	stw	r2,-28(fp)
 1421f74:	00001e06 	br	1421ff0 <_vsnprintf+0xf84>
 1421f78:	e0bfe917 	ldw	r2,-92(fp)
 1421f7c:	10c00044 	addi	r3,r2,1
 1421f80:	e0ffe915 	stw	r3,-92(fp)
 1421f84:	e0fff617 	ldw	r3,-40(fp)
 1421f88:	e1fff817 	ldw	r7,-32(fp)
 1421f8c:	100d883a 	mov	r6,r2
 1421f90:	e17ff717 	ldw	r5,-36(fp)
 1421f94:	01000944 	movi	r4,37
 1421f98:	183ee83a 	callr	r3
 1421f9c:	e0bff917 	ldw	r2,-28(fp)
 1421fa0:	10800044 	addi	r2,r2,1
 1421fa4:	e0bff915 	stw	r2,-28(fp)
 1421fa8:	00001106 	br	1421ff0 <_vsnprintf+0xf84>
 1421fac:	e0bff917 	ldw	r2,-28(fp)
 1421fb0:	10800003 	ldbu	r2,0(r2)
 1421fb4:	11003fcc 	andi	r4,r2,255
 1421fb8:	2100201c 	xori	r4,r4,128
 1421fbc:	213fe004 	addi	r4,r4,-128
 1421fc0:	e0bfe917 	ldw	r2,-92(fp)
 1421fc4:	10c00044 	addi	r3,r2,1
 1421fc8:	e0ffe915 	stw	r3,-92(fp)
 1421fcc:	e0fff617 	ldw	r3,-40(fp)
 1421fd0:	e1fff817 	ldw	r7,-32(fp)
 1421fd4:	100d883a 	mov	r6,r2
 1421fd8:	e17ff717 	ldw	r5,-36(fp)
 1421fdc:	183ee83a 	callr	r3
 1421fe0:	e0bff917 	ldw	r2,-28(fp)
 1421fe4:	10800044 	addi	r2,r2,1
 1421fe8:	e0bff915 	stw	r2,-28(fp)
 1421fec:	0001883a 	nop
 1421ff0:	e0bff917 	ldw	r2,-28(fp)
 1421ff4:	10800003 	ldbu	r2,0(r2)
 1421ff8:	10803fcc 	andi	r2,r2,255
 1421ffc:	1080201c 	xori	r2,r2,128
 1422000:	10bfe004 	addi	r2,r2,-128
 1422004:	103c2e1e 	bne	r2,zero,14210c0 <__alt_data_end+0xfffe10c0>
 1422008:	e0ffe917 	ldw	r3,-92(fp)
 142200c:	e0bff817 	ldw	r2,-32(fp)
 1422010:	18800336 	bltu	r3,r2,1422020 <_vsnprintf+0xfb4>
 1422014:	e0bff817 	ldw	r2,-32(fp)
 1422018:	10bfffc4 	addi	r2,r2,-1
 142201c:	00000106 	br	1422024 <_vsnprintf+0xfb8>
 1422020:	e0bfe917 	ldw	r2,-92(fp)
 1422024:	e0fff617 	ldw	r3,-40(fp)
 1422028:	e1fff817 	ldw	r7,-32(fp)
 142202c:	100d883a 	mov	r6,r2
 1422030:	e17ff717 	ldw	r5,-36(fp)
 1422034:	0009883a 	mov	r4,zero
 1422038:	183ee83a 	callr	r3
 142203c:	e0bfe917 	ldw	r2,-92(fp)
 1422040:	e6fffa04 	addi	sp,fp,-24
 1422044:	dfc00717 	ldw	ra,28(sp)
 1422048:	df000617 	ldw	fp,24(sp)
 142204c:	dd400517 	ldw	r21,20(sp)
 1422050:	dd000417 	ldw	r20,16(sp)
 1422054:	dcc00317 	ldw	r19,12(sp)
 1422058:	dc800217 	ldw	r18,8(sp)
 142205c:	dc400117 	ldw	r17,4(sp)
 1422060:	dc000017 	ldw	r16,0(sp)
 1422064:	dec00804 	addi	sp,sp,32
 1422068:	f800283a 	ret

0142206c <printf>:
 142206c:	defff604 	addi	sp,sp,-40
 1422070:	dfc00615 	stw	ra,24(sp)
 1422074:	df000515 	stw	fp,20(sp)
 1422078:	df000504 	addi	fp,sp,20
 142207c:	e13fff15 	stw	r4,-4(fp)
 1422080:	e1400215 	stw	r5,8(fp)
 1422084:	e1800315 	stw	r6,12(fp)
 1422088:	e1c00415 	stw	r7,16(fp)
 142208c:	e0800204 	addi	r2,fp,8
 1422090:	e0bffd15 	stw	r2,-12(fp)
 1422094:	e0bffd17 	ldw	r2,-12(fp)
 1422098:	e0fffe04 	addi	r3,fp,-8
 142209c:	d8800015 	stw	r2,0(sp)
 14220a0:	e1ffff17 	ldw	r7,-4(fp)
 14220a4:	01bfffc4 	movi	r6,-1
 14220a8:	180b883a 	mov	r5,r3
 14220ac:	010050b4 	movhi	r4,322
 14220b0:	21005404 	addi	r4,r4,336
 14220b4:	142106c0 	call	142106c <_vsnprintf>
 14220b8:	e0bffc15 	stw	r2,-16(fp)
 14220bc:	e0bffc17 	ldw	r2,-16(fp)
 14220c0:	e037883a 	mov	sp,fp
 14220c4:	dfc00117 	ldw	ra,4(sp)
 14220c8:	df000017 	ldw	fp,0(sp)
 14220cc:	dec00504 	addi	sp,sp,20
 14220d0:	f800283a 	ret

014220d4 <sprintf>:
 14220d4:	defff704 	addi	sp,sp,-36
 14220d8:	dfc00615 	stw	ra,24(sp)
 14220dc:	df000515 	stw	fp,20(sp)
 14220e0:	df000504 	addi	fp,sp,20
 14220e4:	e13ffe15 	stw	r4,-8(fp)
 14220e8:	e17fff15 	stw	r5,-4(fp)
 14220ec:	e1800215 	stw	r6,8(fp)
 14220f0:	e1c00315 	stw	r7,12(fp)
 14220f4:	e0800204 	addi	r2,fp,8
 14220f8:	e0bffd15 	stw	r2,-12(fp)
 14220fc:	e0bffd17 	ldw	r2,-12(fp)
 1422100:	d8800015 	stw	r2,0(sp)
 1422104:	e1ffff17 	ldw	r7,-4(fp)
 1422108:	01bfffc4 	movi	r6,-1
 142210c:	e17ffe17 	ldw	r5,-8(fp)
 1422110:	010050b4 	movhi	r4,322
 1422114:	21003204 	addi	r4,r4,200
 1422118:	142106c0 	call	142106c <_vsnprintf>
 142211c:	e0bffc15 	stw	r2,-16(fp)
 1422120:	e0bffc17 	ldw	r2,-16(fp)
 1422124:	e037883a 	mov	sp,fp
 1422128:	dfc00117 	ldw	ra,4(sp)
 142212c:	df000017 	ldw	fp,0(sp)
 1422130:	dec00404 	addi	sp,sp,16
 1422134:	f800283a 	ret

01422138 <snprintf>:
 1422138:	defff704 	addi	sp,sp,-36
 142213c:	dfc00715 	stw	ra,28(sp)
 1422140:	df000615 	stw	fp,24(sp)
 1422144:	df000604 	addi	fp,sp,24
 1422148:	e13ffd15 	stw	r4,-12(fp)
 142214c:	e17ffe15 	stw	r5,-8(fp)
 1422150:	e1bfff15 	stw	r6,-4(fp)
 1422154:	e1c00215 	stw	r7,8(fp)
 1422158:	e0800204 	addi	r2,fp,8
 142215c:	e0bffc15 	stw	r2,-16(fp)
 1422160:	e0bffc17 	ldw	r2,-16(fp)
 1422164:	d8800015 	stw	r2,0(sp)
 1422168:	e1ffff17 	ldw	r7,-4(fp)
 142216c:	e1bffe17 	ldw	r6,-8(fp)
 1422170:	e17ffd17 	ldw	r5,-12(fp)
 1422174:	010050b4 	movhi	r4,322
 1422178:	21003204 	addi	r4,r4,200
 142217c:	142106c0 	call	142106c <_vsnprintf>
 1422180:	e0bffb15 	stw	r2,-20(fp)
 1422184:	e0bffb17 	ldw	r2,-20(fp)
 1422188:	e037883a 	mov	sp,fp
 142218c:	dfc00117 	ldw	ra,4(sp)
 1422190:	df000017 	ldw	fp,0(sp)
 1422194:	dec00304 	addi	sp,sp,12
 1422198:	f800283a 	ret

0142219c <vsnprintf>:
 142219c:	defff904 	addi	sp,sp,-28
 14221a0:	dfc00615 	stw	ra,24(sp)
 14221a4:	df000515 	stw	fp,20(sp)
 14221a8:	df000504 	addi	fp,sp,20
 14221ac:	e13ffc15 	stw	r4,-16(fp)
 14221b0:	e17ffd15 	stw	r5,-12(fp)
 14221b4:	e1bffe15 	stw	r6,-8(fp)
 14221b8:	e1ffff15 	stw	r7,-4(fp)
 14221bc:	e0bfff17 	ldw	r2,-4(fp)
 14221c0:	d8800015 	stw	r2,0(sp)
 14221c4:	e1fffe17 	ldw	r7,-8(fp)
 14221c8:	e1bffd17 	ldw	r6,-12(fp)
 14221cc:	e17ffc17 	ldw	r5,-16(fp)
 14221d0:	010050b4 	movhi	r4,322
 14221d4:	21003204 	addi	r4,r4,200
 14221d8:	142106c0 	call	142106c <_vsnprintf>
 14221dc:	e037883a 	mov	sp,fp
 14221e0:	dfc00117 	ldw	ra,4(sp)
 14221e4:	df000017 	ldw	fp,0(sp)
 14221e8:	dec00204 	addi	sp,sp,8
 14221ec:	f800283a 	ret

014221f0 <fctprintf>:
 14221f0:	defff504 	addi	sp,sp,-44
 14221f4:	dfc00915 	stw	ra,36(sp)
 14221f8:	df000815 	stw	fp,32(sp)
 14221fc:	df000804 	addi	fp,sp,32
 1422200:	e13ffd15 	stw	r4,-12(fp)
 1422204:	e17ffe15 	stw	r5,-8(fp)
 1422208:	e1bfff15 	stw	r6,-4(fp)
 142220c:	e1c00215 	stw	r7,8(fp)
 1422210:	e0800204 	addi	r2,fp,8
 1422214:	e0bffa15 	stw	r2,-24(fp)
 1422218:	e0bffd17 	ldw	r2,-12(fp)
 142221c:	e0bffb15 	stw	r2,-20(fp)
 1422220:	e0bffe17 	ldw	r2,-8(fp)
 1422224:	e0bffc15 	stw	r2,-16(fp)
 1422228:	e0bffa17 	ldw	r2,-24(fp)
 142222c:	e0fffb04 	addi	r3,fp,-20
 1422230:	d8800015 	stw	r2,0(sp)
 1422234:	e1ffff17 	ldw	r7,-4(fp)
 1422238:	01bfffc4 	movi	r6,-1
 142223c:	180b883a 	mov	r5,r3
 1422240:	010050b4 	movhi	r4,322
 1422244:	21006804 	addi	r4,r4,416
 1422248:	142106c0 	call	142106c <_vsnprintf>
 142224c:	e0bff915 	stw	r2,-28(fp)
 1422250:	e0bff917 	ldw	r2,-28(fp)
 1422254:	e037883a 	mov	sp,fp
 1422258:	dfc00117 	ldw	ra,4(sp)
 142225c:	df000017 	ldw	fp,0(sp)
 1422260:	dec00304 	addi	sp,sp,12
 1422264:	f800283a 	ret

01422268 <_ZN8AdsrCoreC1EmP8DdfsCore>:
 1422268:	defffb04 	addi	sp,sp,-20
 142226c:	dfc00415 	stw	ra,16(sp)
 1422270:	df000315 	stw	fp,12(sp)
 1422274:	df000304 	addi	fp,sp,12
 1422278:	e13ffd15 	stw	r4,-12(fp)
 142227c:	e17ffe15 	stw	r5,-8(fp)
 1422280:	e1bfff15 	stw	r6,-4(fp)
 1422284:	e0bffd17 	ldw	r2,-12(fp)
 1422288:	e0fffe17 	ldw	r3,-8(fp)
 142228c:	10c00015 	stw	r3,0(r2)
 1422290:	e0bffd17 	ldw	r2,-12(fp)
 1422294:	e0ffff17 	ldw	r3,-4(fp)
 1422298:	10c00615 	stw	r3,24(r2)
 142229c:	e13ffd17 	ldw	r4,-12(fp)
 14222a0:	14222ec0 	call	14222ec <_ZN8AdsrCore4initEv>
 14222a4:	01400044 	movi	r5,1
 14222a8:	e13ffd17 	ldw	r4,-12(fp)
 14222ac:	14224f00 	call	14224f0 <_ZN8AdsrCore10select_envEi>
 14222b0:	0001883a 	nop
 14222b4:	e037883a 	mov	sp,fp
 14222b8:	dfc00117 	ldw	ra,4(sp)
 14222bc:	df000017 	ldw	fp,0(sp)
 14222c0:	dec00204 	addi	sp,sp,8
 14222c4:	f800283a 	ret

014222c8 <_ZN8AdsrCoreD1Ev>:
 14222c8:	defffe04 	addi	sp,sp,-8
 14222cc:	df000115 	stw	fp,4(sp)
 14222d0:	df000104 	addi	fp,sp,4
 14222d4:	e13fff15 	stw	r4,-4(fp)
 14222d8:	0001883a 	nop
 14222dc:	e037883a 	mov	sp,fp
 14222e0:	df000017 	ldw	fp,0(sp)
 14222e4:	dec00104 	addi	sp,sp,4
 14222e8:	f800283a 	ret

014222ec <_ZN8AdsrCore4initEv>:
 14222ec:	defffd04 	addi	sp,sp,-12
 14222f0:	dfc00215 	stw	ra,8(sp)
 14222f4:	df000115 	stw	fp,4(sp)
 14222f8:	df000104 	addi	fp,sp,4
 14222fc:	e13fff15 	stw	r4,-4(fp)
 1422300:	e0bfff17 	ldw	r2,-4(fp)
 1422304:	10800617 	ldw	r2,24(r2)
 1422308:	01400044 	movi	r5,1
 142230c:	1009883a 	mov	r4,r2
 1422310:	14235840 	call	1423584 <_ZN8DdfsCore14set_env_sourceEi>
 1422314:	e0bfff17 	ldw	r2,-4(fp)
 1422318:	10800617 	ldw	r2,24(r2)
 142231c:	000b883a 	mov	r5,zero
 1422320:	1009883a 	mov	r4,r2
 1422324:	14234f00 	call	14234f0 <_ZN8DdfsCore14set_fow_sourceEi>
 1422328:	e0bfff17 	ldw	r2,-4(fp)
 142232c:	10800617 	ldw	r2,24(r2)
 1422330:	000b883a 	mov	r5,zero
 1422334:	1009883a 	mov	r4,r2
 1422338:	14236180 	call	1423618 <_ZN8DdfsCore14set_pha_sourceEi>
 142233c:	e0bfff17 	ldw	r2,-4(fp)
 1422340:	10800617 	ldw	r2,24(r2)
 1422344:	01404184 	movi	r5,262
 1422348:	1009883a 	mov	r4,r2
 142234c:	14232d80 	call	14232d8 <_ZN8DdfsCore16set_carrier_freqEi>
 1422350:	e0bfff17 	ldw	r2,-4(fp)
 1422354:	10800617 	ldw	r2,24(r2)
 1422358:	000b883a 	mov	r5,zero
 142235c:	1009883a 	mov	r4,r2
 1422360:	14233740 	call	1423374 <_ZN8DdfsCore15set_offset_freqEi>
 1422364:	e0bfff17 	ldw	r2,-4(fp)
 1422368:	10800617 	ldw	r2,24(r2)
 142236c:	000b883a 	mov	r5,zero
 1422370:	1009883a 	mov	r4,r2
 1422374:	14234140 	call	1423414 <_ZN8DdfsCore16set_phase_degreeEi>
 1422378:	0001883a 	nop
 142237c:	e037883a 	mov	sp,fp
 1422380:	dfc00117 	ldw	ra,4(sp)
 1422384:	df000017 	ldw	fp,0(sp)
 1422388:	dec00204 	addi	sp,sp,8
 142238c:	f800283a 	ret

01422390 <_ZN8AdsrCore4idleEv>:
 1422390:	defffd04 	addi	sp,sp,-12
 1422394:	df000215 	stw	fp,8(sp)
 1422398:	df000204 	addi	fp,sp,8
 142239c:	e13fff15 	stw	r4,-4(fp)
 14223a0:	e0bfff17 	ldw	r2,-4(fp)
 14223a4:	10800017 	ldw	r2,0(r2)
 14223a8:	10800017 	ldw	r2,0(r2)
 14223ac:	1080004c 	andi	r2,r2,1
 14223b0:	e0bffe15 	stw	r2,-8(fp)
 14223b4:	e0bffe17 	ldw	r2,-8(fp)
 14223b8:	e037883a 	mov	sp,fp
 14223bc:	df000017 	ldw	fp,0(sp)
 14223c0:	dec00104 	addi	sp,sp,4
 14223c4:	f800283a 	ret

014223c8 <_ZN8AdsrCore5startEv>:
 14223c8:	defffe04 	addi	sp,sp,-8
 14223cc:	df000115 	stw	fp,4(sp)
 14223d0:	df000104 	addi	fp,sp,4
 14223d4:	e13fff15 	stw	r4,-4(fp)
 14223d8:	e0bfff17 	ldw	r2,-4(fp)
 14223dc:	10800017 	ldw	r2,0(r2)
 14223e0:	10000015 	stw	zero,0(r2)
 14223e4:	0001883a 	nop
 14223e8:	e037883a 	mov	sp,fp
 14223ec:	df000017 	ldw	fp,0(sp)
 14223f0:	dec00104 	addi	sp,sp,4
 14223f4:	f800283a 	ret

014223f8 <_ZN8AdsrCore5abortEv>:
 14223f8:	defffe04 	addi	sp,sp,-8
 14223fc:	df000115 	stw	fp,4(sp)
 1422400:	df000104 	addi	fp,sp,4
 1422404:	e13fff15 	stw	r4,-4(fp)
 1422408:	e0bfff17 	ldw	r2,-4(fp)
 142240c:	10800017 	ldw	r2,0(r2)
 1422410:	10800104 	addi	r2,r2,4
 1422414:	10000015 	stw	zero,0(r2)
 1422418:	0001883a 	nop
 142241c:	e037883a 	mov	sp,fp
 1422420:	df000017 	ldw	fp,0(sp)
 1422424:	dec00104 	addi	sp,sp,4
 1422428:	f800283a 	ret

0142242c <_ZN8AdsrCore6bypassEv>:
 142242c:	defffe04 	addi	sp,sp,-8
 1422430:	df000115 	stw	fp,4(sp)
 1422434:	df000104 	addi	fp,sp,4
 1422438:	e13fff15 	stw	r4,-4(fp)
 142243c:	e0bfff17 	ldw	r2,-4(fp)
 1422440:	00ffffc4 	movi	r3,-1
 1422444:	10c00115 	stw	r3,4(r2)
 1422448:	e0bfff17 	ldw	r2,-4(fp)
 142244c:	10800017 	ldw	r2,0(r2)
 1422450:	10800104 	addi	r2,r2,4
 1422454:	1007883a 	mov	r3,r2
 1422458:	00bfffc4 	movi	r2,-1
 142245c:	18800015 	stw	r2,0(r3)
 1422460:	0001883a 	nop
 1422464:	e037883a 	mov	sp,fp
 1422468:	df000017 	ldw	fp,0(sp)
 142246c:	dec00104 	addi	sp,sp,4
 1422470:	f800283a 	ret

01422474 <_ZN8AdsrCore7set_envEiiiif>:
 1422474:	defffa04 	addi	sp,sp,-24
 1422478:	dfc00515 	stw	ra,20(sp)
 142247c:	df000415 	stw	fp,16(sp)
 1422480:	df000404 	addi	fp,sp,16
 1422484:	e13ffc15 	stw	r4,-16(fp)
 1422488:	e17ffd15 	stw	r5,-12(fp)
 142248c:	e1bffe15 	stw	r6,-8(fp)
 1422490:	e1ffff15 	stw	r7,-4(fp)
 1422494:	e0bffc17 	ldw	r2,-16(fp)
 1422498:	e0fffd17 	ldw	r3,-12(fp)
 142249c:	10c00115 	stw	r3,4(r2)
 14224a0:	e0bffc17 	ldw	r2,-16(fp)
 14224a4:	e0fffe17 	ldw	r3,-8(fp)
 14224a8:	10c00215 	stw	r3,8(r2)
 14224ac:	e0bffc17 	ldw	r2,-16(fp)
 14224b0:	e0ffff17 	ldw	r3,-4(fp)
 14224b4:	10c00315 	stw	r3,12(r2)
 14224b8:	e0bffc17 	ldw	r2,-16(fp)
 14224bc:	e0c00217 	ldw	r3,8(fp)
 14224c0:	10c00415 	stw	r3,16(r2)
 14224c4:	e0bffc17 	ldw	r2,-16(fp)
 14224c8:	e0c00317 	ldw	r3,12(fp)
 14224cc:	10c00515 	stw	r3,20(r2)
 14224d0:	e13ffc17 	ldw	r4,-16(fp)
 14224d4:	142278c0 	call	142278c <_ZN8AdsrCore14write_adsr_regEv>
 14224d8:	0001883a 	nop
 14224dc:	e037883a 	mov	sp,fp
 14224e0:	dfc00117 	ldw	ra,4(sp)
 14224e4:	df000017 	ldw	fp,0(sp)
 14224e8:	dec00204 	addi	sp,sp,8
 14224ec:	f800283a 	ret

014224f0 <_ZN8AdsrCore10select_envEi>:
 14224f0:	defffa04 	addi	sp,sp,-24
 14224f4:	dfc00515 	stw	ra,20(sp)
 14224f8:	df000415 	stw	fp,16(sp)
 14224fc:	df000404 	addi	fp,sp,16
 1422500:	e13ffe15 	stw	r4,-8(fp)
 1422504:	e17fff15 	stw	r5,-4(fp)
 1422508:	e0bfff17 	ldw	r2,-4(fp)
 142250c:	10c00060 	cmpeqi	r3,r2,1
 1422510:	1800031e 	bne	r3,zero,1422520 <_ZN8AdsrCore10select_envEi+0x30>
 1422514:	108000a0 	cmpeqi	r2,r2,2
 1422518:	10000c1e 	bne	r2,zero,142254c <_ZN8AdsrCore10select_envEi+0x5c>
 142251c:	00001606 	br	1422578 <_ZN8AdsrCore10select_envEi+0x88>
 1422520:	008fd9b4 	movhi	r2,16230
 1422524:	10999984 	addi	r2,r2,26214
 1422528:	d8800115 	stw	r2,4(sp)
 142252c:	00800c84 	movi	r2,50
 1422530:	d8800015 	stw	r2,0(sp)
 1422534:	01c01904 	movi	r7,100
 1422538:	01800c84 	movi	r6,50
 142253c:	01401904 	movi	r5,100
 1422540:	e13ffe17 	ldw	r4,-8(fp)
 1422544:	14224740 	call	1422474 <_ZN8AdsrCore7set_envEiiiif>
 1422548:	00001606 	br	14225a4 <_ZN8AdsrCore10select_envEi+0xb4>
 142254c:	008fd9b4 	movhi	r2,16230
 1422550:	10999984 	addi	r2,r2,26214
 1422554:	d8800115 	stw	r2,4(sp)
 1422558:	00801904 	movi	r2,100
 142255c:	d8800015 	stw	r2,0(sp)
 1422560:	01c01904 	movi	r7,100
 1422564:	01800c84 	movi	r6,50
 1422568:	01400284 	movi	r5,10
 142256c:	e13ffe17 	ldw	r4,-8(fp)
 1422570:	14224740 	call	1422474 <_ZN8AdsrCore7set_envEiiiif>
 1422574:	00000b06 	br	14225a4 <_ZN8AdsrCore10select_envEi+0xb4>
 1422578:	008f7374 	movhi	r2,15821
 142257c:	10b33344 	addi	r2,r2,-13107
 1422580:	d8800115 	stw	r2,4(sp)
 1422584:	00801904 	movi	r2,100
 1422588:	d8800015 	stw	r2,0(sp)
 142258c:	01c01904 	movi	r7,100
 1422590:	01803204 	movi	r6,200
 1422594:	01400284 	movi	r5,10
 1422598:	e13ffe17 	ldw	r4,-8(fp)
 142259c:	14224740 	call	1422474 <_ZN8AdsrCore7set_envEiiiif>
 14225a0:	0001883a 	nop
 14225a4:	0001883a 	nop
 14225a8:	e037883a 	mov	sp,fp
 14225ac:	dfc00117 	ldw	ra,4(sp)
 14225b0:	df000017 	ldw	fp,0(sp)
 14225b4:	dec00204 	addi	sp,sp,8
 14225b8:	f800283a 	ret

014225bc <_ZN8AdsrCore9play_noteEiii>:
 14225bc:	defff604 	addi	sp,sp,-40
 14225c0:	dfc00915 	stw	ra,36(sp)
 14225c4:	df000815 	stw	fp,32(sp)
 14225c8:	df000804 	addi	fp,sp,32
 14225cc:	e13ffc15 	stw	r4,-16(fp)
 14225d0:	e17ffd15 	stw	r5,-12(fp)
 14225d4:	e1bffe15 	stw	r6,-8(fp)
 14225d8:	e1ffff15 	stw	r7,-4(fp)
 14225dc:	e1bffd17 	ldw	r6,-12(fp)
 14225e0:	e17ffe17 	ldw	r5,-8(fp)
 14225e4:	e13ffc17 	ldw	r4,-16(fp)
 14225e8:	14226980 	call	1422698 <_ZN8AdsrCore14calc_note_freqEii>
 14225ec:	e0bffb15 	stw	r2,-20(fp)
 14225f0:	e0bffc17 	ldw	r2,-16(fp)
 14225f4:	10800617 	ldw	r2,24(r2)
 14225f8:	e17ffb17 	ldw	r5,-20(fp)
 14225fc:	1009883a 	mov	r4,r2
 1422600:	14232d80 	call	14232d8 <_ZN8DdfsCore16set_carrier_freqEi>
 1422604:	e0bffc17 	ldw	r2,-16(fp)
 1422608:	10c00117 	ldw	r3,4(r2)
 142260c:	e0bffc17 	ldw	r2,-16(fp)
 1422610:	10800217 	ldw	r2,8(r2)
 1422614:	1887883a 	add	r3,r3,r2
 1422618:	e0bffc17 	ldw	r2,-16(fp)
 142261c:	10800417 	ldw	r2,16(r2)
 1422620:	1885883a 	add	r2,r3,r2
 1422624:	e0ffff17 	ldw	r3,-4(fp)
 1422628:	1885c83a 	sub	r2,r3,r2
 142262c:	e0bffa15 	stw	r2,-24(fp)
 1422630:	e0bffa17 	ldw	r2,-24(fp)
 1422634:	00800216 	blt	zero,r2,1422640 <_ZN8AdsrCore9play_noteEiii+0x84>
 1422638:	00800284 	movi	r2,10
 142263c:	e0bffa15 	stw	r2,-24(fp)
 1422640:	e0bffc17 	ldw	r2,-16(fp)
 1422644:	11400117 	ldw	r5,4(r2)
 1422648:	e0bffc17 	ldw	r2,-16(fp)
 142264c:	11800217 	ldw	r6,8(r2)
 1422650:	e0bffc17 	ldw	r2,-16(fp)
 1422654:	10800417 	ldw	r2,16(r2)
 1422658:	e13ffc17 	ldw	r4,-16(fp)
 142265c:	20c00517 	ldw	r3,20(r4)
 1422660:	d8c00115 	stw	r3,4(sp)
 1422664:	d8800015 	stw	r2,0(sp)
 1422668:	e1fffa17 	ldw	r7,-24(fp)
 142266c:	e13ffc17 	ldw	r4,-16(fp)
 1422670:	14224740 	call	1422474 <_ZN8AdsrCore7set_envEiiiif>
 1422674:	e0bffc17 	ldw	r2,-16(fp)
 1422678:	10800017 	ldw	r2,0(r2)
 142267c:	10000015 	stw	zero,0(r2)
 1422680:	0001883a 	nop
 1422684:	e037883a 	mov	sp,fp
 1422688:	dfc00117 	ldw	ra,4(sp)
 142268c:	df000017 	ldw	fp,0(sp)
 1422690:	dec00204 	addi	sp,sp,8
 1422694:	f800283a 	ret

01422698 <_ZN8AdsrCore14calc_note_freqEii>:
 1422698:	deffee04 	addi	sp,sp,-72
 142269c:	dfc01115 	stw	ra,68(sp)
 14226a0:	df001015 	stw	fp,64(sp)
 14226a4:	df001004 	addi	fp,sp,64
 14226a8:	e13ffd15 	stw	r4,-12(fp)
 14226ac:	e17ffe15 	stw	r5,-8(fp)
 14226b0:	e1bfff15 	stw	r6,-4(fp)
 14226b4:	009060f4 	movhi	r2,16771
 14226b8:	10b40504 	addi	r2,r2,-12268
 14226bc:	e0bff115 	stw	r2,-60(fp)
 14226c0:	009062f4 	movhi	r2,16779
 14226c4:	10a5d644 	addi	r2,r2,-26791
 14226c8:	e0bff215 	stw	r2,-56(fp)
 14226cc:	009064f4 	movhi	r2,16787
 14226d0:	10b54c84 	addi	r2,r2,-10958
 14226d4:	e0bff315 	stw	r2,-52(fp)
 14226d8:	00906734 	movhi	r2,16796
 14226dc:	10a40b84 	addi	r2,r2,-28626
 14226e0:	e0bff415 	stw	r2,-48(fp)
 14226e4:	00906974 	movhi	r2,16805
 14226e8:	10b41204 	addi	r2,r2,-12216
 14226ec:	e0bff515 	stw	r2,-44(fp)
 14226f0:	00906bf4 	movhi	r2,16815
 14226f4:	10a75244 	addi	r2,r2,-25271
 14226f8:	e0bff615 	stw	r2,-40(fp)
 14226fc:	00906e74 	movhi	r2,16825
 1422700:	10bfd8c4 	addi	r2,r2,-157
 1422704:	e0bff715 	stw	r2,-36(fp)
 1422708:	00907134 	movhi	r2,16836
 142270c:	10bfd8c4 	addi	r2,r2,-157
 1422710:	e0bff815 	stw	r2,-32(fp)
 1422714:	00907434 	movhi	r2,16848
 1422718:	10a9ba44 	addi	r2,r2,-22807
 142271c:	e0bff915 	stw	r2,-28(fp)
 1422720:	00907734 	movhi	r2,16860
 1422724:	e0bffa15 	stw	r2,-24(fp)
 1422728:	00907a74 	movhi	r2,16873
 142272c:	10853904 	addi	r2,r2,5348
 1422730:	e0bffb15 	stw	r2,-20(fp)
 1422734:	00907df4 	movhi	r2,16887
 1422738:	10bc4344 	addi	r2,r2,-3827
 142273c:	e0bffc15 	stw	r2,-16(fp)
 1422740:	e0bfff17 	ldw	r2,-4(fp)
 1422744:	1085883a 	add	r2,r2,r2
 1422748:	1085883a 	add	r2,r2,r2
 142274c:	e0fff004 	addi	r3,fp,-64
 1422750:	1885883a 	add	r2,r3,r2
 1422754:	10800104 	addi	r2,r2,4
 1422758:	10c00017 	ldw	r3,0(r2)
 142275c:	1809883a 	mov	r4,r3
 1422760:	1427a4c0 	call	1427a4c <__fixunssfsi>
 1422764:	1007883a 	mov	r3,r2
 1422768:	e0bffe17 	ldw	r2,-8(fp)
 142276c:	1884983a 	sll	r2,r3,r2
 1422770:	e0bff015 	stw	r2,-64(fp)
 1422774:	e0bff017 	ldw	r2,-64(fp)
 1422778:	e037883a 	mov	sp,fp
 142277c:	dfc00117 	ldw	ra,4(sp)
 1422780:	df000017 	ldw	fp,0(sp)
 1422784:	dec00204 	addi	sp,sp,8
 1422788:	f800283a 	ret

0142278c <_ZN8AdsrCore14write_adsr_regEv>:
 142278c:	defff904 	addi	sp,sp,-28
 1422790:	dfc00615 	stw	ra,24(sp)
 1422794:	df000515 	stw	fp,20(sp)
 1422798:	df000504 	addi	fp,sp,20
 142279c:	e13fff15 	stw	r4,-4(fp)
 14227a0:	00b0d414 	movui	r2,50000
 14227a4:	e0bffc15 	stw	r2,-16(fp)
 14227a8:	e0bfff17 	ldw	r2,-4(fp)
 14227ac:	10800117 	ldw	r2,4(r2)
 14227b0:	10bfffd8 	cmpnei	r2,r2,-1
 14227b4:	1000071e 	bne	r2,zero,14227d4 <_ZN8AdsrCore14write_adsr_regEv+0x48>
 14227b8:	e0bfff17 	ldw	r2,-4(fp)
 14227bc:	10800017 	ldw	r2,0(r2)
 14227c0:	10800104 	addi	r2,r2,4
 14227c4:	1007883a 	mov	r3,r2
 14227c8:	00bfffc4 	movi	r2,-1
 14227cc:	18800015 	stw	r2,0(r3)
 14227d0:	00006706 	br	1422970 <_ZN8AdsrCore14write_adsr_regEv+0x1e4>
 14227d4:	e0bfff17 	ldw	r2,-4(fp)
 14227d8:	10800117 	ldw	r2,4(r2)
 14227dc:	1000051e 	bne	r2,zero,14227f4 <_ZN8AdsrCore14write_adsr_regEv+0x68>
 14227e0:	e0bfff17 	ldw	r2,-4(fp)
 14227e4:	10800017 	ldw	r2,0(r2)
 14227e8:	10800104 	addi	r2,r2,4
 14227ec:	10000015 	stw	zero,0(r2)
 14227f0:	00005f06 	br	1422970 <_ZN8AdsrCore14write_adsr_regEv+0x1e4>
 14227f4:	e0bfff17 	ldw	r2,-4(fp)
 14227f8:	10c00517 	ldw	r3,20(r2)
 14227fc:	0153c034 	movhi	r5,20224
 1422800:	1809883a 	mov	r4,r3
 1422804:	1428db80 	call	1428db8 <__mulsf3>
 1422808:	1007883a 	mov	r3,r2
 142280c:	1805883a 	mov	r2,r3
 1422810:	1009883a 	mov	r4,r2
 1422814:	1427a4c0 	call	1427a4c <__fixunssfsi>
 1422818:	e0bffd15 	stw	r2,-12(fp)
 142281c:	e0bfff17 	ldw	r2,-4(fp)
 1422820:	10800017 	ldw	r2,0(r2)
 1422824:	10800504 	addi	r2,r2,20
 1422828:	1007883a 	mov	r3,r2
 142282c:	e0bffd17 	ldw	r2,-12(fp)
 1422830:	18800015 	stw	r2,0(r3)
 1422834:	e0bfff17 	ldw	r2,-4(fp)
 1422838:	10800117 	ldw	r2,4(r2)
 142283c:	0170d414 	movui	r5,50000
 1422840:	1009883a 	mov	r4,r2
 1422844:	14288940 	call	1428894 <__mulsi3>
 1422848:	e0bffe15 	stw	r2,-8(fp)
 142284c:	e17ffe17 	ldw	r5,-8(fp)
 1422850:	01200034 	movhi	r4,32768
 1422854:	213fffc4 	addi	r4,r4,-1
 1422858:	14287d80 	call	14287d8 <__udivsi3>
 142285c:	e0bffb15 	stw	r2,-20(fp)
 1422860:	e0bffb17 	ldw	r2,-20(fp)
 1422864:	1000021e 	bne	r2,zero,1422870 <_ZN8AdsrCore14write_adsr_regEv+0xe4>
 1422868:	00800044 	movi	r2,1
 142286c:	e0bffb15 	stw	r2,-20(fp)
 1422870:	e0bfff17 	ldw	r2,-4(fp)
 1422874:	10800017 	ldw	r2,0(r2)
 1422878:	10800104 	addi	r2,r2,4
 142287c:	1007883a 	mov	r3,r2
 1422880:	e0bffb17 	ldw	r2,-20(fp)
 1422884:	18800015 	stw	r2,0(r3)
 1422888:	14230700 	call	1423070 <debug_off>
 142288c:	e0bfff17 	ldw	r2,-4(fp)
 1422890:	10800217 	ldw	r2,8(r2)
 1422894:	0170d414 	movui	r5,50000
 1422898:	1009883a 	mov	r4,r2
 142289c:	14288940 	call	1428894 <__mulsi3>
 14228a0:	e0bffe15 	stw	r2,-8(fp)
 14228a4:	00a00034 	movhi	r2,32768
 14228a8:	10bfffc4 	addi	r2,r2,-1
 14228ac:	e0fffd17 	ldw	r3,-12(fp)
 14228b0:	10c5c83a 	sub	r2,r2,r3
 14228b4:	e17ffe17 	ldw	r5,-8(fp)
 14228b8:	1009883a 	mov	r4,r2
 14228bc:	14287d80 	call	14287d8 <__udivsi3>
 14228c0:	e0bffb15 	stw	r2,-20(fp)
 14228c4:	e0bffb17 	ldw	r2,-20(fp)
 14228c8:	1000021e 	bne	r2,zero,14228d4 <_ZN8AdsrCore14write_adsr_regEv+0x148>
 14228cc:	00800044 	movi	r2,1
 14228d0:	e0bffb15 	stw	r2,-20(fp)
 14228d4:	e0bfff17 	ldw	r2,-4(fp)
 14228d8:	10800017 	ldw	r2,0(r2)
 14228dc:	10800204 	addi	r2,r2,8
 14228e0:	1007883a 	mov	r3,r2
 14228e4:	e0bffb17 	ldw	r2,-20(fp)
 14228e8:	18800015 	stw	r2,0(r3)
 14228ec:	e0bfff17 	ldw	r2,-4(fp)
 14228f0:	10800317 	ldw	r2,12(r2)
 14228f4:	0170d414 	movui	r5,50000
 14228f8:	1009883a 	mov	r4,r2
 14228fc:	14288940 	call	1428894 <__mulsi3>
 1422900:	e0bffe15 	stw	r2,-8(fp)
 1422904:	e0bfff17 	ldw	r2,-4(fp)
 1422908:	10800017 	ldw	r2,0(r2)
 142290c:	10800304 	addi	r2,r2,12
 1422910:	1007883a 	mov	r3,r2
 1422914:	e0bffe17 	ldw	r2,-8(fp)
 1422918:	18800015 	stw	r2,0(r3)
 142291c:	14230700 	call	1423070 <debug_off>
 1422920:	e0bfff17 	ldw	r2,-4(fp)
 1422924:	10800417 	ldw	r2,16(r2)
 1422928:	0170d414 	movui	r5,50000
 142292c:	1009883a 	mov	r4,r2
 1422930:	14288940 	call	1428894 <__mulsi3>
 1422934:	e0bffe15 	stw	r2,-8(fp)
 1422938:	e17ffe17 	ldw	r5,-8(fp)
 142293c:	e13ffd17 	ldw	r4,-12(fp)
 1422940:	14287d80 	call	14287d8 <__udivsi3>
 1422944:	e0bffb15 	stw	r2,-20(fp)
 1422948:	e0bffb17 	ldw	r2,-20(fp)
 142294c:	1000021e 	bne	r2,zero,1422958 <_ZN8AdsrCore14write_adsr_regEv+0x1cc>
 1422950:	00800044 	movi	r2,1
 1422954:	e0bffb15 	stw	r2,-20(fp)
 1422958:	e0bfff17 	ldw	r2,-4(fp)
 142295c:	10800017 	ldw	r2,0(r2)
 1422960:	10800404 	addi	r2,r2,16
 1422964:	1007883a 	mov	r3,r2
 1422968:	e0bffb17 	ldw	r2,-20(fp)
 142296c:	18800015 	stw	r2,0(r3)
 1422970:	e037883a 	mov	sp,fp
 1422974:	dfc00117 	ldw	ra,4(sp)
 1422978:	df000017 	ldw	fp,0(sp)
 142297c:	dec00204 	addi	sp,sp,8
 1422980:	f800283a 	ret

01422984 <_ZN9BlinkSoftC1Ei>:
 1422984:	defffc04 	addi	sp,sp,-16
 1422988:	dfc00315 	stw	ra,12(sp)
 142298c:	df000215 	stw	fp,8(sp)
 1422990:	df000204 	addi	fp,sp,8
 1422994:	e13ffe15 	stw	r4,-8(fp)
 1422998:	e17fff15 	stw	r5,-4(fp)
 142299c:	e0bffe17 	ldw	r2,-8(fp)
 14229a0:	e0ffff17 	ldw	r3,-4(fp)
 14229a4:	10c00015 	stw	r3,0(r2)
 14229a8:	e0bffe17 	ldw	r2,-8(fp)
 14229ac:	10000115 	stw	zero,4(r2)
 14229b0:	1422ebc0 	call	1422ebc <now_ms>
 14229b4:	1007883a 	mov	r3,r2
 14229b8:	e0bffe17 	ldw	r2,-8(fp)
 14229bc:	10c00215 	stw	r3,8(r2)
 14229c0:	01400284 	movi	r5,10
 14229c4:	e13ffe17 	ldw	r4,-8(fp)
 14229c8:	1422a680 	call	1422a68 <_ZN9BlinkSoft8set_rateEi>
 14229cc:	e13ffe17 	ldw	r4,-8(fp)
 14229d0:	1422ab00 	call	1422ab0 <_ZN9BlinkSoft2goEv>
 14229d4:	0001883a 	nop
 14229d8:	e037883a 	mov	sp,fp
 14229dc:	dfc00117 	ldw	ra,4(sp)
 14229e0:	df000017 	ldw	fp,0(sp)
 14229e4:	dec00204 	addi	sp,sp,8
 14229e8:	f800283a 	ret

014229ec <_ZN9BlinkSoftC1Ev>:
 14229ec:	defffd04 	addi	sp,sp,-12
 14229f0:	dfc00215 	stw	ra,8(sp)
 14229f4:	df000115 	stw	fp,4(sp)
 14229f8:	df000104 	addi	fp,sp,4
 14229fc:	e13fff15 	stw	r4,-4(fp)
 1422a00:	e0bfff17 	ldw	r2,-4(fp)
 1422a04:	10000115 	stw	zero,4(r2)
 1422a08:	1422ebc0 	call	1422ebc <now_ms>
 1422a0c:	1007883a 	mov	r3,r2
 1422a10:	e0bfff17 	ldw	r2,-4(fp)
 1422a14:	10c00215 	stw	r3,8(r2)
 1422a18:	01400284 	movi	r5,10
 1422a1c:	e13fff17 	ldw	r4,-4(fp)
 1422a20:	1422a680 	call	1422a68 <_ZN9BlinkSoft8set_rateEi>
 1422a24:	e13fff17 	ldw	r4,-4(fp)
 1422a28:	1422ab00 	call	1422ab0 <_ZN9BlinkSoft2goEv>
 1422a2c:	0001883a 	nop
 1422a30:	e037883a 	mov	sp,fp
 1422a34:	dfc00117 	ldw	ra,4(sp)
 1422a38:	df000017 	ldw	fp,0(sp)
 1422a3c:	dec00204 	addi	sp,sp,8
 1422a40:	f800283a 	ret

01422a44 <_ZN9BlinkSoftD1Ev>:
 1422a44:	defffe04 	addi	sp,sp,-8
 1422a48:	df000115 	stw	fp,4(sp)
 1422a4c:	df000104 	addi	fp,sp,4
 1422a50:	e13fff15 	stw	r4,-4(fp)
 1422a54:	0001883a 	nop
 1422a58:	e037883a 	mov	sp,fp
 1422a5c:	df000017 	ldw	fp,0(sp)
 1422a60:	dec00104 	addi	sp,sp,4
 1422a64:	f800283a 	ret

01422a68 <_ZN9BlinkSoft8set_rateEi>:
 1422a68:	defffc04 	addi	sp,sp,-16
 1422a6c:	dfc00315 	stw	ra,12(sp)
 1422a70:	df000215 	stw	fp,8(sp)
 1422a74:	df000204 	addi	fp,sp,8
 1422a78:	e13ffe15 	stw	r4,-8(fp)
 1422a7c:	e17fff15 	stw	r5,-4(fp)
 1422a80:	e17fff17 	ldw	r5,-4(fp)
 1422a84:	0100fa04 	movi	r4,1000
 1422a88:	14286e00 	call	14286e0 <__divsi3>
 1422a8c:	1007883a 	mov	r3,r2
 1422a90:	e0bffe17 	ldw	r2,-8(fp)
 1422a94:	10c00315 	stw	r3,12(r2)
 1422a98:	0001883a 	nop
 1422a9c:	e037883a 	mov	sp,fp
 1422aa0:	dfc00117 	ldw	ra,4(sp)
 1422aa4:	df000017 	ldw	fp,0(sp)
 1422aa8:	dec00204 	addi	sp,sp,8
 1422aac:	f800283a 	ret

01422ab0 <_ZN9BlinkSoft2goEv>:
 1422ab0:	defffe04 	addi	sp,sp,-8
 1422ab4:	df000115 	stw	fp,4(sp)
 1422ab8:	df000104 	addi	fp,sp,4
 1422abc:	e13fff15 	stw	r4,-4(fp)
 1422ac0:	e0bfff17 	ldw	r2,-4(fp)
 1422ac4:	10000415 	stw	zero,16(r2)
 1422ac8:	0001883a 	nop
 1422acc:	e037883a 	mov	sp,fp
 1422ad0:	df000017 	ldw	fp,0(sp)
 1422ad4:	dec00104 	addi	sp,sp,4
 1422ad8:	f800283a 	ret

01422adc <_ZN9BlinkSoft4stopEv>:
 1422adc:	defffe04 	addi	sp,sp,-8
 1422ae0:	df000115 	stw	fp,4(sp)
 1422ae4:	df000104 	addi	fp,sp,4
 1422ae8:	e13fff15 	stw	r4,-4(fp)
 1422aec:	e0bfff17 	ldw	r2,-4(fp)
 1422af0:	00c00044 	movi	r3,1
 1422af4:	10c00415 	stw	r3,16(r2)
 1422af8:	0001883a 	nop
 1422afc:	e037883a 	mov	sp,fp
 1422b00:	df000017 	ldw	fp,0(sp)
 1422b04:	dec00104 	addi	sp,sp,4
 1422b08:	f800283a 	ret

01422b0c <_ZN9BlinkSoft11SetPositionEi>:
 1422b0c:	defffd04 	addi	sp,sp,-12
 1422b10:	df000215 	stw	fp,8(sp)
 1422b14:	df000204 	addi	fp,sp,8
 1422b18:	e13ffe15 	stw	r4,-8(fp)
 1422b1c:	e17fff15 	stw	r5,-4(fp)
 1422b20:	e0bffe17 	ldw	r2,-8(fp)
 1422b24:	e0ffff17 	ldw	r3,-4(fp)
 1422b28:	10c00015 	stw	r3,0(r2)
 1422b2c:	0001883a 	nop
 1422b30:	e037883a 	mov	sp,fp
 1422b34:	df000017 	ldw	fp,0(sp)
 1422b38:	dec00104 	addi	sp,sp,4
 1422b3c:	f800283a 	ret

01422b40 <_ZN9BlinkSoft15poll_and_toggleEv>:
 1422b40:	defffa04 	addi	sp,sp,-24
 1422b44:	dfc00515 	stw	ra,20(sp)
 1422b48:	df000415 	stw	fp,16(sp)
 1422b4c:	dc800315 	stw	r18,12(sp)
 1422b50:	dc400215 	stw	r17,8(sp)
 1422b54:	dc000115 	stw	r16,4(sp)
 1422b58:	df000404 	addi	fp,sp,16
 1422b5c:	e13ffc15 	stw	r4,-16(fp)
 1422b60:	e0bffc17 	ldw	r2,-16(fp)
 1422b64:	10800417 	ldw	r2,16(r2)
 1422b68:	10000c26 	beq	r2,zero,1422b9c <_ZN9BlinkSoft15poll_and_toggleEv+0x5c>
 1422b6c:	e0bffc17 	ldw	r2,-16(fp)
 1422b70:	00c00044 	movi	r3,1
 1422b74:	10c00115 	stw	r3,4(r2)
 1422b78:	e0bffc17 	ldw	r2,-16(fp)
 1422b7c:	10c00117 	ldw	r3,4(r2)
 1422b80:	e0bffc17 	ldw	r2,-16(fp)
 1422b84:	10800017 	ldw	r2,0(r2)
 1422b88:	100d883a 	mov	r6,r2
 1422b8c:	180b883a 	mov	r5,r3
 1422b90:	d122a304 	addi	r4,gp,-30068
 1422b94:	1423b680 	call	1423b68 <_ZN7GpoCore5writeEii>
 1422b98:	00003406 	br	1422c6c <_ZN9BlinkSoft15poll_and_toggleEv+0x12c>
 1422b9c:	1422ebc0 	call	1422ebc <now_ms>
 1422ba0:	1007883a 	mov	r3,r2
 1422ba4:	e0bffc17 	ldw	r2,-16(fp)
 1422ba8:	10800217 	ldw	r2,8(r2)
 1422bac:	1885c83a 	sub	r2,r3,r2
 1422bb0:	1009883a 	mov	r4,r2
 1422bb4:	142b83c0 	call	142b83c <__floatunsidf>
 1422bb8:	1021883a 	mov	r16,r2
 1422bbc:	1823883a 	mov	r17,r3
 1422bc0:	e0bffc17 	ldw	r2,-16(fp)
 1422bc4:	10800317 	ldw	r2,12(r2)
 1422bc8:	1009883a 	mov	r4,r2
 1422bcc:	142b7600 	call	142b760 <__floatsidf>
 1422bd0:	1011883a 	mov	r8,r2
 1422bd4:	1813883a 	mov	r9,r3
 1422bd8:	000d883a 	mov	r6,zero
 1422bdc:	01cff834 	movhi	r7,16352
 1422be0:	4009883a 	mov	r4,r8
 1422be4:	480b883a 	mov	r5,r9
 1422be8:	142a5780 	call	142a578 <__muldf3>
 1422bec:	1009883a 	mov	r4,r2
 1422bf0:	180b883a 	mov	r5,r3
 1422bf4:	2005883a 	mov	r2,r4
 1422bf8:	2807883a 	mov	r3,r5
 1422bfc:	04800044 	movi	r18,1
 1422c00:	100d883a 	mov	r6,r2
 1422c04:	180f883a 	mov	r7,r3
 1422c08:	8009883a 	mov	r4,r16
 1422c0c:	880b883a 	mov	r5,r17
 1422c10:	142a3a80 	call	142a3a8 <__gedf2>
 1422c14:	00800116 	blt	zero,r2,1422c1c <_ZN9BlinkSoft15poll_and_toggleEv+0xdc>
 1422c18:	0025883a 	mov	r18,zero
 1422c1c:	90803fcc 	andi	r2,r18,255
 1422c20:	10001226 	beq	r2,zero,1422c6c <_ZN9BlinkSoft15poll_and_toggleEv+0x12c>
 1422c24:	1422ebc0 	call	1422ebc <now_ms>
 1422c28:	1007883a 	mov	r3,r2
 1422c2c:	e0bffc17 	ldw	r2,-16(fp)
 1422c30:	10c00215 	stw	r3,8(r2)
 1422c34:	e0bffc17 	ldw	r2,-16(fp)
 1422c38:	10800117 	ldw	r2,4(r2)
 1422c3c:	1005003a 	cmpeq	r2,r2,zero
 1422c40:	10c03fcc 	andi	r3,r2,255
 1422c44:	e0bffc17 	ldw	r2,-16(fp)
 1422c48:	10c00115 	stw	r3,4(r2)
 1422c4c:	e0bffc17 	ldw	r2,-16(fp)
 1422c50:	10c00117 	ldw	r3,4(r2)
 1422c54:	e0bffc17 	ldw	r2,-16(fp)
 1422c58:	10800017 	ldw	r2,0(r2)
 1422c5c:	100d883a 	mov	r6,r2
 1422c60:	180b883a 	mov	r5,r3
 1422c64:	d122a304 	addi	r4,gp,-30068
 1422c68:	1423b680 	call	1423b68 <_ZN7GpoCore5writeEii>
 1422c6c:	0001883a 	nop
 1422c70:	e6fffd04 	addi	sp,fp,-12
 1422c74:	dfc00417 	ldw	ra,16(sp)
 1422c78:	df000317 	ldw	fp,12(sp)
 1422c7c:	dc800217 	ldw	r18,8(sp)
 1422c80:	dc400117 	ldw	r17,4(sp)
 1422c84:	dc000017 	ldw	r16,0(sp)
 1422c88:	dec00504 	addi	sp,sp,20
 1422c8c:	f800283a 	ret

01422c90 <main>:
 1422c90:	deffb304 	addi	sp,sp,-308
 1422c94:	dfc04c15 	stw	ra,304(sp)
 1422c98:	df004b15 	stw	fp,300(sp)
 1422c9c:	ddc04a15 	stw	r23,296(sp)
 1422ca0:	dd804915 	stw	r22,292(sp)
 1422ca4:	dd404815 	stw	r21,288(sp)
 1422ca8:	dd004715 	stw	r20,284(sp)
 1422cac:	dcc04615 	stw	r19,280(sp)
 1422cb0:	dc804515 	stw	r18,276(sp)
 1422cb4:	dc404415 	stw	r17,272(sp)
 1422cb8:	dc004315 	stw	r16,268(sp)
 1422cbc:	df004b04 	addi	fp,sp,300
 1422cc0:	008050b4 	movhi	r2,322
 1422cc4:	10991504 	addi	r2,r2,25684
 1422cc8:	e0bfe915 	stw	r2,-92(fp)
 1422ccc:	008050f4 	movhi	r2,323
 1422cd0:	10b6eb04 	addi	r2,r2,-9300
 1422cd4:	e0bfea15 	stw	r2,-88(fp)
 1422cd8:	e0bfeb04 	addi	r2,fp,-84
 1422cdc:	e0ffb504 	addi	r3,fp,-300
 1422ce0:	10c00015 	stw	r3,0(r2)
 1422ce4:	00c050b4 	movhi	r3,322
 1422ce8:	18cb6904 	addi	r3,r3,11684
 1422cec:	10c00115 	stw	r3,4(r2)
 1422cf0:	16c00215 	stw	sp,8(r2)
 1422cf4:	e0bfe304 	addi	r2,fp,-116
 1422cf8:	1009883a 	mov	r4,r2
 1422cfc:	142baec0 	call	142baec <_Unwind_SjLj_Register>
 1422d00:	e13fb604 	addi	r4,fp,-296
 1422d04:	e13ff415 	stw	r4,-48(fp)
 1422d08:	00800204 	movi	r2,8
 1422d0c:	e0bff115 	stw	r2,-60(fp)
 1422d10:	e0fff417 	ldw	r3,-48(fp)
 1422d14:	e0fff015 	stw	r3,-64(fp)
 1422d18:	e13ff117 	ldw	r4,-60(fp)
 1422d1c:	20bfffe0 	cmpeqi	r2,r4,-1
 1422d20:	10000b1e 	bne	r2,zero,1422d50 <main+0xc0>
 1422d24:	00800044 	movi	r2,1
 1422d28:	e0bfe415 	stw	r2,-112(fp)
 1422d2c:	e13ff017 	ldw	r4,-64(fp)
 1422d30:	14229ec0 	call	14229ec <_ZN9BlinkSoftC1Ev>
 1422d34:	e0bff017 	ldw	r2,-64(fp)
 1422d38:	10800504 	addi	r2,r2,20
 1422d3c:	e0bff015 	stw	r2,-64(fp)
 1422d40:	e0fff117 	ldw	r3,-60(fp)
 1422d44:	18ffffc4 	addi	r3,r3,-1
 1422d48:	e0fff115 	stw	r3,-60(fp)
 1422d4c:	003ff206 	br	1422d18 <__alt_data_end+0xfffe2d18>
 1422d50:	e03fb515 	stw	zero,-300(fp)
 1422d54:	e0bfb517 	ldw	r2,-300(fp)
 1422d58:	10800288 	cmpgei	r2,r2,10
 1422d5c:	1000101e 	bne	r2,zero,1422da0 <main+0x110>
 1422d60:	e13fb604 	addi	r4,fp,-296
 1422d64:	e13ff515 	stw	r4,-44(fp)
 1422d68:	01400504 	movi	r5,20
 1422d6c:	e13fb517 	ldw	r4,-300(fp)
 1422d70:	14288940 	call	1428894 <__mulsi3>
 1422d74:	e13ff517 	ldw	r4,-44(fp)
 1422d78:	2087883a 	add	r3,r4,r2
 1422d7c:	00800084 	movi	r2,2
 1422d80:	e0bfe415 	stw	r2,-112(fp)
 1422d84:	e17fb517 	ldw	r5,-300(fp)
 1422d88:	1809883a 	mov	r4,r3
 1422d8c:	1422b0c0 	call	1422b0c <_ZN9BlinkSoft11SetPositionEi>
 1422d90:	e0bfb517 	ldw	r2,-300(fp)
 1422d94:	10800044 	addi	r2,r2,1
 1422d98:	e0bfb515 	stw	r2,-300(fp)
 1422d9c:	003fed06 	br	1422d54 <__alt_data_end+0xfffe2d54>
 1422da0:	003fff06 	br	1422da0 <__alt_data_end+0xfffe2da0>
 1422da4:	e7004b04 	addi	fp,fp,300
 1422da8:	e0ffe517 	ldw	r3,-108(fp)
 1422dac:	e0bfe417 	ldw	r2,-112(fp)
 1422db0:	10000426 	beq	r2,zero,1422dc4 <main+0x134>
 1422db4:	10bfffc4 	addi	r2,r2,-1
 1422db8:	10001d26 	beq	r2,zero,1422e30 <main+0x1a0>
 1422dbc:	10bfffc4 	addi	r2,r2,-1
 1422dc0:	003b68fa 	trap	3
 1422dc4:	e0fff615 	stw	r3,-40(fp)
 1422dc8:	e0bff417 	ldw	r2,-48(fp)
 1422dcc:	10001326 	beq	r2,zero,1422e1c <main+0x18c>
 1422dd0:	00800204 	movi	r2,8
 1422dd4:	e0fff117 	ldw	r3,-60(fp)
 1422dd8:	10c5c83a 	sub	r2,r2,r3
 1422ddc:	01400504 	movi	r5,20
 1422de0:	1009883a 	mov	r4,r2
 1422de4:	14288940 	call	1428894 <__mulsi3>
 1422de8:	e13ff417 	ldw	r4,-48(fp)
 1422dec:	2085883a 	add	r2,r4,r2
 1422df0:	e0bff215 	stw	r2,-56(fp)
 1422df4:	e0bff217 	ldw	r2,-56(fp)
 1422df8:	e0fff417 	ldw	r3,-48(fp)
 1422dfc:	10c00726 	beq	r2,r3,1422e1c <main+0x18c>
 1422e00:	e13ff217 	ldw	r4,-56(fp)
 1422e04:	213ffb04 	addi	r4,r4,-20
 1422e08:	e13ff215 	stw	r4,-56(fp)
 1422e0c:	e03fe415 	stw	zero,-112(fp)
 1422e10:	e13ff217 	ldw	r4,-56(fp)
 1422e14:	1422a440 	call	1422a44 <_ZN9BlinkSoftD1Ev>
 1422e18:	003ff606 	br	1422df4 <__alt_data_end+0xfffe2df4>
 1422e1c:	e0fff617 	ldw	r3,-40(fp)
 1422e20:	00bfffc4 	movi	r2,-1
 1422e24:	e0bfe415 	stw	r2,-112(fp)
 1422e28:	1809883a 	mov	r4,r3
 1422e2c:	142bce80 	call	142bce8 <_Unwind_SjLj_Resume>
 1422e30:	e0fff715 	stw	r3,-36(fp)
 1422e34:	e0bfb604 	addi	r2,fp,-296
 1422e38:	e0bff315 	stw	r2,-52(fp)
 1422e3c:	e0fff317 	ldw	r3,-52(fp)
 1422e40:	18c02d04 	addi	r3,r3,180
 1422e44:	e0fff315 	stw	r3,-52(fp)
 1422e48:	e0bfb604 	addi	r2,fp,-296
 1422e4c:	e13ff317 	ldw	r4,-52(fp)
 1422e50:	20800726 	beq	r4,r2,1422e70 <main+0x1e0>
 1422e54:	e0bff317 	ldw	r2,-52(fp)
 1422e58:	10bffb04 	addi	r2,r2,-20
 1422e5c:	e0bff315 	stw	r2,-52(fp)
 1422e60:	e03fe415 	stw	zero,-112(fp)
 1422e64:	e13ff317 	ldw	r4,-52(fp)
 1422e68:	1422a440 	call	1422a44 <_ZN9BlinkSoftD1Ev>
 1422e6c:	003ff606 	br	1422e48 <__alt_data_end+0xfffe2e48>
 1422e70:	e0fff717 	ldw	r3,-36(fp)
 1422e74:	00bfffc4 	movi	r2,-1
 1422e78:	e0bfe415 	stw	r2,-112(fp)
 1422e7c:	1809883a 	mov	r4,r3
 1422e80:	142bce80 	call	142bce8 <_Unwind_SjLj_Resume>

01422e84 <now_us>:
 1422e84:	defffe04 	addi	sp,sp,-8
 1422e88:	dfc00115 	stw	ra,4(sp)
 1422e8c:	df000015 	stw	fp,0(sp)
 1422e90:	d839883a 	mov	fp,sp
 1422e94:	d1229f04 	addi	r4,gp,-30084
 1422e98:	1424fe40 	call	1424fe4 <_ZN9TimerCore9read_timeEv>
 1422e9c:	1009883a 	mov	r4,r2
 1422ea0:	180b883a 	mov	r5,r3
 1422ea4:	2005883a 	mov	r2,r4
 1422ea8:	e037883a 	mov	sp,fp
 1422eac:	dfc00117 	ldw	ra,4(sp)
 1422eb0:	df000017 	ldw	fp,0(sp)
 1422eb4:	dec00204 	addi	sp,sp,8
 1422eb8:	f800283a 	ret

01422ebc <now_ms>:
 1422ebc:	defffe04 	addi	sp,sp,-8
 1422ec0:	dfc00115 	stw	ra,4(sp)
 1422ec4:	df000015 	stw	fp,0(sp)
 1422ec8:	d839883a 	mov	fp,sp
 1422ecc:	d1229f04 	addi	r4,gp,-30084
 1422ed0:	1424fe40 	call	1424fe4 <_ZN9TimerCore9read_timeEv>
 1422ed4:	1009883a 	mov	r4,r2
 1422ed8:	180b883a 	mov	r5,r3
 1422edc:	2005883a 	mov	r2,r4
 1422ee0:	0140fa04 	movi	r5,1000
 1422ee4:	1009883a 	mov	r4,r2
 1422ee8:	14287d80 	call	14287d8 <__udivsi3>
 1422eec:	e037883a 	mov	sp,fp
 1422ef0:	dfc00117 	ldw	ra,4(sp)
 1422ef4:	df000017 	ldw	fp,0(sp)
 1422ef8:	dec00204 	addi	sp,sp,8
 1422efc:	f800283a 	ret

01422f00 <sleep_us>:
 1422f00:	defffd04 	addi	sp,sp,-12
 1422f04:	dfc00215 	stw	ra,8(sp)
 1422f08:	df000115 	stw	fp,4(sp)
 1422f0c:	df000104 	addi	fp,sp,4
 1422f10:	e13fff15 	stw	r4,-4(fp)
 1422f14:	e13fff17 	ldw	r4,-4(fp)
 1422f18:	2005883a 	mov	r2,r4
 1422f1c:	0007883a 	mov	r3,zero
 1422f20:	100b883a 	mov	r5,r2
 1422f24:	180d883a 	mov	r6,r3
 1422f28:	d1229f04 	addi	r4,gp,-30084
 1422f2c:	14250500 	call	1425050 <_ZN9TimerCore5sleepEy>
 1422f30:	0001883a 	nop
 1422f34:	e037883a 	mov	sp,fp
 1422f38:	dfc00117 	ldw	ra,4(sp)
 1422f3c:	df000017 	ldw	fp,0(sp)
 1422f40:	dec00204 	addi	sp,sp,8
 1422f44:	f800283a 	ret

01422f48 <sleep_ms>:
 1422f48:	defffb04 	addi	sp,sp,-20
 1422f4c:	dfc00415 	stw	ra,16(sp)
 1422f50:	df000315 	stw	fp,12(sp)
 1422f54:	dc400215 	stw	r17,8(sp)
 1422f58:	dc000115 	stw	r16,4(sp)
 1422f5c:	df000304 	addi	fp,sp,12
 1422f60:	e13ffd15 	stw	r4,-12(fp)
 1422f64:	0140fa04 	movi	r5,1000
 1422f68:	e13ffd17 	ldw	r4,-12(fp)
 1422f6c:	14288940 	call	1428894 <__mulsi3>
 1422f70:	1021883a 	mov	r16,r2
 1422f74:	0023883a 	mov	r17,zero
 1422f78:	800b883a 	mov	r5,r16
 1422f7c:	880d883a 	mov	r6,r17
 1422f80:	d1229f04 	addi	r4,gp,-30084
 1422f84:	14250500 	call	1425050 <_ZN9TimerCore5sleepEy>
 1422f88:	0001883a 	nop
 1422f8c:	e6fffe04 	addi	sp,fp,-8
 1422f90:	dfc00317 	ldw	ra,12(sp)
 1422f94:	df000217 	ldw	fp,8(sp)
 1422f98:	dc400117 	ldw	r17,4(sp)
 1422f9c:	dc000017 	ldw	r16,0(sp)
 1422fa0:	dec00404 	addi	sp,sp,16
 1422fa4:	f800283a 	ret

01422fa8 <debug_on>:
 1422fa8:	defffb04 	addi	sp,sp,-20
 1422fac:	dfc00415 	stw	ra,16(sp)
 1422fb0:	df000315 	stw	fp,12(sp)
 1422fb4:	df000304 	addi	fp,sp,12
 1422fb8:	e13ffd15 	stw	r4,-12(fp)
 1422fbc:	e17ffe15 	stw	r5,-8(fp)
 1422fc0:	e1bfff15 	stw	r6,-4(fp)
 1422fc4:	014050f4 	movhi	r5,323
 1422fc8:	29771404 	addi	r5,r5,-9136
 1422fcc:	d122a104 	addi	r4,gp,-30076
 1422fd0:	142530c0 	call	142530c <_ZN8UartCore4dispEPKc>
 1422fd4:	e17ffd17 	ldw	r5,-12(fp)
 1422fd8:	d122a104 	addi	r4,gp,-30076
 1422fdc:	142530c0 	call	142530c <_ZN8UartCore4dispEPKc>
 1422fe0:	e17ffe17 	ldw	r5,-8(fp)
 1422fe4:	d122a104 	addi	r4,gp,-30076
 1422fe8:	14255500 	call	1425550 <_ZN8UartCore4dispEi>
 1422fec:	014050f4 	movhi	r5,323
 1422ff0:	29771604 	addi	r5,r5,-9128
 1422ff4:	d122a104 	addi	r4,gp,-30076
 1422ff8:	142530c0 	call	142530c <_ZN8UartCore4dispEPKc>
 1422ffc:	01800404 	movi	r6,16
 1423000:	e17ffe17 	ldw	r5,-8(fp)
 1423004:	d122a104 	addi	r4,gp,-30076
 1423008:	14255940 	call	1425594 <_ZN8UartCore4dispEii>
 142300c:	014050f4 	movhi	r5,323
 1423010:	29771704 	addi	r5,r5,-9124
 1423014:	d122a104 	addi	r4,gp,-30076
 1423018:	142530c0 	call	142530c <_ZN8UartCore4dispEPKc>
 142301c:	e17fff17 	ldw	r5,-4(fp)
 1423020:	d122a104 	addi	r4,gp,-30076
 1423024:	14255500 	call	1425550 <_ZN8UartCore4dispEi>
 1423028:	014050f4 	movhi	r5,323
 142302c:	29771604 	addi	r5,r5,-9128
 1423030:	d122a104 	addi	r4,gp,-30076
 1423034:	142530c0 	call	142530c <_ZN8UartCore4dispEPKc>
 1423038:	01800404 	movi	r6,16
 142303c:	e17fff17 	ldw	r5,-4(fp)
 1423040:	d122a104 	addi	r4,gp,-30076
 1423044:	14255940 	call	1425594 <_ZN8UartCore4dispEii>
 1423048:	014050f4 	movhi	r5,323
 142304c:	29771904 	addi	r5,r5,-9116
 1423050:	d122a104 	addi	r4,gp,-30076
 1423054:	142530c0 	call	142530c <_ZN8UartCore4dispEPKc>
 1423058:	0001883a 	nop
 142305c:	e037883a 	mov	sp,fp
 1423060:	dfc00117 	ldw	ra,4(sp)
 1423064:	df000017 	ldw	fp,0(sp)
 1423068:	dec00204 	addi	sp,sp,8
 142306c:	f800283a 	ret

01423070 <debug_off>:
 1423070:	deffff04 	addi	sp,sp,-4
 1423074:	df000015 	stw	fp,0(sp)
 1423078:	d839883a 	mov	fp,sp
 142307c:	0001883a 	nop
 1423080:	e037883a 	mov	sp,fp
 1423084:	df000017 	ldw	fp,0(sp)
 1423088:	dec00104 	addi	sp,sp,4
 142308c:	f800283a 	ret

01423090 <map>:
 1423090:	defffa04 	addi	sp,sp,-24
 1423094:	dfc00515 	stw	ra,20(sp)
 1423098:	df000415 	stw	fp,16(sp)
 142309c:	df000404 	addi	fp,sp,16
 14230a0:	e13ffc15 	stw	r4,-16(fp)
 14230a4:	e17ffd15 	stw	r5,-12(fp)
 14230a8:	e1bffe15 	stw	r6,-8(fp)
 14230ac:	e1ffff15 	stw	r7,-4(fp)
 14230b0:	e0fffc17 	ldw	r3,-16(fp)
 14230b4:	e0bffd17 	ldw	r2,-12(fp)
 14230b8:	1889c83a 	sub	r4,r3,r2
 14230bc:	e0c00217 	ldw	r3,8(fp)
 14230c0:	e0bfff17 	ldw	r2,-4(fp)
 14230c4:	1885c83a 	sub	r2,r3,r2
 14230c8:	100b883a 	mov	r5,r2
 14230cc:	14288940 	call	1428894 <__mulsi3>
 14230d0:	1009883a 	mov	r4,r2
 14230d4:	e0fffe17 	ldw	r3,-8(fp)
 14230d8:	e0bffd17 	ldw	r2,-12(fp)
 14230dc:	1885c83a 	sub	r2,r3,r2
 14230e0:	100b883a 	mov	r5,r2
 14230e4:	14286e00 	call	14286e0 <__divsi3>
 14230e8:	1007883a 	mov	r3,r2
 14230ec:	e0bfff17 	ldw	r2,-4(fp)
 14230f0:	1885883a 	add	r2,r3,r2
 14230f4:	e037883a 	mov	sp,fp
 14230f8:	dfc00117 	ldw	ra,4(sp)
 14230fc:	df000017 	ldw	fp,0(sp)
 1423100:	dec00204 	addi	sp,sp,8
 1423104:	f800283a 	ret

01423108 <_Z41__static_initialization_and_destruction_0ii>:
 1423108:	defffc04 	addi	sp,sp,-16
 142310c:	dfc00315 	stw	ra,12(sp)
 1423110:	df000215 	stw	fp,8(sp)
 1423114:	df000204 	addi	fp,sp,8
 1423118:	e13ffe15 	stw	r4,-8(fp)
 142311c:	e17fff15 	stw	r5,-4(fp)
 1423120:	e0bffe17 	ldw	r2,-8(fp)
 1423124:	10800058 	cmpnei	r2,r2,1
 1423128:	10000a1e 	bne	r2,zero,1423154 <_Z41__static_initialization_and_destruction_0ii+0x4c>
 142312c:	e0ffff17 	ldw	r3,-4(fp)
 1423130:	00bfffd4 	movui	r2,65535
 1423134:	1880071e 	bne	r3,r2,1423154 <_Z41__static_initialization_and_destruction_0ii+0x4c>
 1423138:	01700034 	movhi	r5,49152
 142313c:	d1229f04 	addi	r4,gp,-30084
 1423140:	1424de40 	call	1424de4 <_ZN9TimerCoreC1Em>
 1423144:	01700034 	movhi	r5,49152
 1423148:	29402004 	addi	r5,r5,128
 142314c:	d122a104 	addi	r4,gp,-30076
 1423150:	14250e80 	call	14250e8 <_ZN8UartCoreC1Em>
 1423154:	e0bffe17 	ldw	r2,-8(fp)
 1423158:	1000071e 	bne	r2,zero,1423178 <_Z41__static_initialization_and_destruction_0ii+0x70>
 142315c:	e0ffff17 	ldw	r3,-4(fp)
 1423160:	00bfffd4 	movui	r2,65535
 1423164:	1880041e 	bne	r3,r2,1423178 <_Z41__static_initialization_and_destruction_0ii+0x70>
 1423168:	d122a104 	addi	r4,gp,-30076
 142316c:	14251300 	call	1425130 <_ZN8UartCoreD1Ev>
 1423170:	d1229f04 	addi	r4,gp,-30084
 1423174:	1424e500 	call	1424e50 <_ZN9TimerCoreD1Ev>
 1423178:	0001883a 	nop
 142317c:	e037883a 	mov	sp,fp
 1423180:	dfc00117 	ldw	ra,4(sp)
 1423184:	df000017 	ldw	fp,0(sp)
 1423188:	dec00204 	addi	sp,sp,8
 142318c:	f800283a 	ret

01423190 <_GLOBAL__sub_I__sys_timer>:
 1423190:	defffe04 	addi	sp,sp,-8
 1423194:	dfc00115 	stw	ra,4(sp)
 1423198:	df000015 	stw	fp,0(sp)
 142319c:	d839883a 	mov	fp,sp
 14231a0:	017fffd4 	movui	r5,65535
 14231a4:	01000044 	movi	r4,1
 14231a8:	14231080 	call	1423108 <_Z41__static_initialization_and_destruction_0ii>
 14231ac:	e037883a 	mov	sp,fp
 14231b0:	dfc00117 	ldw	ra,4(sp)
 14231b4:	df000017 	ldw	fp,0(sp)
 14231b8:	dec00204 	addi	sp,sp,8
 14231bc:	f800283a 	ret

014231c0 <_GLOBAL__sub_D__sys_timer>:
 14231c0:	defffe04 	addi	sp,sp,-8
 14231c4:	dfc00115 	stw	ra,4(sp)
 14231c8:	df000015 	stw	fp,0(sp)
 14231cc:	d839883a 	mov	fp,sp
 14231d0:	017fffd4 	movui	r5,65535
 14231d4:	0009883a 	mov	r4,zero
 14231d8:	14231080 	call	1423108 <_Z41__static_initialization_and_destruction_0ii>
 14231dc:	e037883a 	mov	sp,fp
 14231e0:	dfc00117 	ldw	ra,4(sp)
 14231e4:	df000017 	ldw	fp,0(sp)
 14231e8:	dec00204 	addi	sp,sp,8
 14231ec:	f800283a 	ret

014231f0 <_ZN8DdfsCoreC1Em>:
 14231f0:	defffc04 	addi	sp,sp,-16
 14231f4:	dfc00315 	stw	ra,12(sp)
 14231f8:	df000215 	stw	fp,8(sp)
 14231fc:	df000204 	addi	fp,sp,8
 1423200:	e13ffe15 	stw	r4,-8(fp)
 1423204:	e17fff15 	stw	r5,-4(fp)
 1423208:	e0bffe17 	ldw	r2,-8(fp)
 142320c:	e0ffff17 	ldw	r3,-4(fp)
 1423210:	10c00015 	stw	r3,0(r2)
 1423214:	e13ffe17 	ldw	r4,-8(fp)
 1423218:	14232580 	call	1423258 <_ZN8DdfsCore4initEv>
 142321c:	0001883a 	nop
 1423220:	e037883a 	mov	sp,fp
 1423224:	dfc00117 	ldw	ra,4(sp)
 1423228:	df000017 	ldw	fp,0(sp)
 142322c:	dec00204 	addi	sp,sp,8
 1423230:	f800283a 	ret

01423234 <_ZN8DdfsCoreD1Ev>:
 1423234:	defffe04 	addi	sp,sp,-8
 1423238:	df000115 	stw	fp,4(sp)
 142323c:	df000104 	addi	fp,sp,4
 1423240:	e13fff15 	stw	r4,-4(fp)
 1423244:	0001883a 	nop
 1423248:	e037883a 	mov	sp,fp
 142324c:	df000017 	ldw	fp,0(sp)
 1423250:	dec00104 	addi	sp,sp,4
 1423254:	f800283a 	ret

01423258 <_ZN8DdfsCore4initEv>:
 1423258:	defffd04 	addi	sp,sp,-12
 142325c:	dfc00215 	stw	ra,8(sp)
 1423260:	df000115 	stw	fp,4(sp)
 1423264:	df000104 	addi	fp,sp,4
 1423268:	e13fff15 	stw	r4,-4(fp)
 142326c:	000b883a 	mov	r5,zero
 1423270:	e13fff17 	ldw	r4,-4(fp)
 1423274:	14235840 	call	1423584 <_ZN8DdfsCore14set_env_sourceEi>
 1423278:	000b883a 	mov	r5,zero
 142327c:	e13fff17 	ldw	r4,-4(fp)
 1423280:	14234f00 	call	14234f0 <_ZN8DdfsCore14set_fow_sourceEi>
 1423284:	000b883a 	mov	r5,zero
 1423288:	e13fff17 	ldw	r4,-4(fp)
 142328c:	14236180 	call	1423618 <_ZN8DdfsCore14set_pha_sourceEi>
 1423290:	01404184 	movi	r5,262
 1423294:	e13fff17 	ldw	r4,-4(fp)
 1423298:	14232d80 	call	14232d8 <_ZN8DdfsCore16set_carrier_freqEi>
 142329c:	000b883a 	mov	r5,zero
 14232a0:	e13fff17 	ldw	r4,-4(fp)
 14232a4:	14233740 	call	1423374 <_ZN8DdfsCore15set_offset_freqEi>
 14232a8:	000b883a 	mov	r5,zero
 14232ac:	e13fff17 	ldw	r4,-4(fp)
 14232b0:	14234140 	call	1423414 <_ZN8DdfsCore16set_phase_degreeEi>
 14232b4:	014fe034 	movhi	r5,16256
 14232b8:	e13fff17 	ldw	r4,-4(fp)
 14232bc:	142347c0 	call	142347c <_ZN8DdfsCore7set_envEf>
 14232c0:	0001883a 	nop
 14232c4:	e037883a 	mov	sp,fp
 14232c8:	dfc00117 	ldw	ra,4(sp)
 14232cc:	df000017 	ldw	fp,0(sp)
 14232d0:	dec00204 	addi	sp,sp,8
 14232d4:	f800283a 	ret

014232d8 <_ZN8DdfsCore16set_carrier_freqEi>:
 14232d8:	defff904 	addi	sp,sp,-28
 14232dc:	dfc00615 	stw	ra,24(sp)
 14232e0:	df000515 	stw	fp,20(sp)
 14232e4:	df000504 	addi	fp,sp,20
 14232e8:	e13ffe15 	stw	r4,-8(fp)
 14232ec:	e17fff15 	stw	r5,-4(fp)
 14232f0:	00900034 	movhi	r2,16384
 14232f4:	e0bffb15 	stw	r2,-20(fp)
 14232f8:	e13ffb17 	ldw	r4,-20(fp)
 14232fc:	14298600 	call	1429860 <__floatunsisf>
 1423300:	1007883a 	mov	r3,r2
 1423304:	01530ff4 	movhi	r5,19519
 1423308:	296f0804 	addi	r5,r5,-17376
 142330c:	1809883a 	mov	r4,r3
 1423310:	14288bc0 	call	14288bc <__divsf3>
 1423314:	1007883a 	mov	r3,r2
 1423318:	e0fffc15 	stw	r3,-16(fp)
 142331c:	e13fff17 	ldw	r4,-4(fp)
 1423320:	142973c0 	call	142973c <__floatsisf>
 1423324:	1007883a 	mov	r3,r2
 1423328:	e17ffc17 	ldw	r5,-16(fp)
 142332c:	1809883a 	mov	r4,r3
 1423330:	1428db80 	call	1428db8 <__mulsf3>
 1423334:	1007883a 	mov	r3,r2
 1423338:	1805883a 	mov	r2,r3
 142333c:	1009883a 	mov	r4,r2
 1423340:	1427a4c0 	call	1427a4c <__fixunssfsi>
 1423344:	e0bffd15 	stw	r2,-12(fp)
 1423348:	e0bffe17 	ldw	r2,-8(fp)
 142334c:	10800017 	ldw	r2,0(r2)
 1423350:	1007883a 	mov	r3,r2
 1423354:	e0bffd17 	ldw	r2,-12(fp)
 1423358:	18800015 	stw	r2,0(r3)
 142335c:	0001883a 	nop
 1423360:	e037883a 	mov	sp,fp
 1423364:	dfc00117 	ldw	ra,4(sp)
 1423368:	df000017 	ldw	fp,0(sp)
 142336c:	dec00204 	addi	sp,sp,8
 1423370:	f800283a 	ret

01423374 <_ZN8DdfsCore15set_offset_freqEi>:
 1423374:	defff904 	addi	sp,sp,-28
 1423378:	dfc00615 	stw	ra,24(sp)
 142337c:	df000515 	stw	fp,20(sp)
 1423380:	df000504 	addi	fp,sp,20
 1423384:	e13ffe15 	stw	r4,-8(fp)
 1423388:	e17fff15 	stw	r5,-4(fp)
 142338c:	00900034 	movhi	r2,16384
 1423390:	e0bffb15 	stw	r2,-20(fp)
 1423394:	e13ffb17 	ldw	r4,-20(fp)
 1423398:	14298600 	call	1429860 <__floatunsisf>
 142339c:	1007883a 	mov	r3,r2
 14233a0:	01530ff4 	movhi	r5,19519
 14233a4:	296f0804 	addi	r5,r5,-17376
 14233a8:	1809883a 	mov	r4,r3
 14233ac:	14288bc0 	call	14288bc <__divsf3>
 14233b0:	1007883a 	mov	r3,r2
 14233b4:	e0fffc15 	stw	r3,-16(fp)
 14233b8:	e13fff17 	ldw	r4,-4(fp)
 14233bc:	142973c0 	call	142973c <__floatsisf>
 14233c0:	1007883a 	mov	r3,r2
 14233c4:	e17ffc17 	ldw	r5,-16(fp)
 14233c8:	1809883a 	mov	r4,r3
 14233cc:	1428db80 	call	1428db8 <__mulsf3>
 14233d0:	1007883a 	mov	r3,r2
 14233d4:	1805883a 	mov	r2,r3
 14233d8:	1009883a 	mov	r4,r2
 14233dc:	1427a4c0 	call	1427a4c <__fixunssfsi>
 14233e0:	e0bffd15 	stw	r2,-12(fp)
 14233e4:	e0bffe17 	ldw	r2,-8(fp)
 14233e8:	10800017 	ldw	r2,0(r2)
 14233ec:	10800104 	addi	r2,r2,4
 14233f0:	1007883a 	mov	r3,r2
 14233f4:	e0bffd17 	ldw	r2,-12(fp)
 14233f8:	18800015 	stw	r2,0(r3)
 14233fc:	0001883a 	nop
 1423400:	e037883a 	mov	sp,fp
 1423404:	dfc00117 	ldw	ra,4(sp)
 1423408:	df000017 	ldw	fp,0(sp)
 142340c:	dec00204 	addi	sp,sp,8
 1423410:	f800283a 	ret

01423414 <_ZN8DdfsCore16set_phase_degreeEi>:
 1423414:	defffb04 	addi	sp,sp,-20
 1423418:	dfc00415 	stw	ra,16(sp)
 142341c:	df000315 	stw	fp,12(sp)
 1423420:	df000304 	addi	fp,sp,12
 1423424:	e13ffe15 	stw	r4,-8(fp)
 1423428:	e17fff15 	stw	r5,-4(fp)
 142342c:	0140bef4 	movhi	r5,763
 1423430:	297c2004 	addi	r5,r5,-3968
 1423434:	e13fff17 	ldw	r4,-4(fp)
 1423438:	14288940 	call	1428894 <__mulsi3>
 142343c:	01405a04 	movi	r5,360
 1423440:	1009883a 	mov	r4,r2
 1423444:	14286e00 	call	14286e0 <__divsi3>
 1423448:	e0bffd15 	stw	r2,-12(fp)
 142344c:	e0bffe17 	ldw	r2,-8(fp)
 1423450:	10800017 	ldw	r2,0(r2)
 1423454:	10800204 	addi	r2,r2,8
 1423458:	1007883a 	mov	r3,r2
 142345c:	e0bffd17 	ldw	r2,-12(fp)
 1423460:	18800015 	stw	r2,0(r3)
 1423464:	0001883a 	nop
 1423468:	e037883a 	mov	sp,fp
 142346c:	dfc00117 	ldw	ra,4(sp)
 1423470:	df000017 	ldw	fp,0(sp)
 1423474:	dec00204 	addi	sp,sp,8
 1423478:	f800283a 	ret

0142347c <_ZN8DdfsCore7set_envEf>:
 142347c:	defffa04 	addi	sp,sp,-24
 1423480:	dfc00515 	stw	ra,20(sp)
 1423484:	df000415 	stw	fp,16(sp)
 1423488:	df000404 	addi	fp,sp,16
 142348c:	e13ffe15 	stw	r4,-8(fp)
 1423490:	e17fff15 	stw	r5,-4(fp)
 1423494:	0091a034 	movhi	r2,18048
 1423498:	e0bffc15 	stw	r2,-16(fp)
 142349c:	e17ffc17 	ldw	r5,-16(fp)
 14234a0:	e13fff17 	ldw	r4,-4(fp)
 14234a4:	1428db80 	call	1428db8 <__mulsf3>
 14234a8:	1007883a 	mov	r3,r2
 14234ac:	1805883a 	mov	r2,r3
 14234b0:	1009883a 	mov	r4,r2
 14234b4:	14296cc0 	call	14296cc <__fixsfsi>
 14234b8:	e0bffd15 	stw	r2,-12(fp)
 14234bc:	e0bffe17 	ldw	r2,-8(fp)
 14234c0:	10800017 	ldw	r2,0(r2)
 14234c4:	10800304 	addi	r2,r2,12
 14234c8:	1007883a 	mov	r3,r2
 14234cc:	e0bffd17 	ldw	r2,-12(fp)
 14234d0:	10bfffcc 	andi	r2,r2,65535
 14234d4:	18800015 	stw	r2,0(r3)
 14234d8:	0001883a 	nop
 14234dc:	e037883a 	mov	sp,fp
 14234e0:	dfc00117 	ldw	ra,4(sp)
 14234e4:	df000017 	ldw	fp,0(sp)
 14234e8:	dec00204 	addi	sp,sp,8
 14234ec:	f800283a 	ret

014234f0 <_ZN8DdfsCore14set_fow_sourceEi>:
 14234f0:	defffc04 	addi	sp,sp,-16
 14234f4:	df000315 	stw	fp,12(sp)
 14234f8:	df000304 	addi	fp,sp,12
 14234fc:	e13ffe15 	stw	r4,-8(fp)
 1423500:	e17fff15 	stw	r5,-4(fp)
 1423504:	e03ffd15 	stw	zero,-12(fp)
 1423508:	e0bfff17 	ldw	r2,-4(fp)
 142350c:	10800058 	cmpnei	r2,r2,1
 1423510:	1000021e 	bne	r2,zero,142351c <_ZN8DdfsCore14set_fow_sourceEi+0x2c>
 1423514:	00800044 	movi	r2,1
 1423518:	e0bffd15 	stw	r2,-12(fp)
 142351c:	e0bffd17 	ldw	r2,-12(fp)
 1423520:	10000626 	beq	r2,zero,142353c <_ZN8DdfsCore14set_fow_sourceEi+0x4c>
 1423524:	e0bffe17 	ldw	r2,-8(fp)
 1423528:	10800117 	ldw	r2,4(r2)
 142352c:	10c00094 	ori	r3,r2,2
 1423530:	e0bffe17 	ldw	r2,-8(fp)
 1423534:	10c00115 	stw	r3,4(r2)
 1423538:	00000606 	br	1423554 <_ZN8DdfsCore14set_fow_sourceEi+0x64>
 142353c:	e0bffe17 	ldw	r2,-8(fp)
 1423540:	10c00117 	ldw	r3,4(r2)
 1423544:	00bfff44 	movi	r2,-3
 1423548:	1886703a 	and	r3,r3,r2
 142354c:	e0bffe17 	ldw	r2,-8(fp)
 1423550:	10c00115 	stw	r3,4(r2)
 1423554:	e0bffe17 	ldw	r2,-8(fp)
 1423558:	10800017 	ldw	r2,0(r2)
 142355c:	10800404 	addi	r2,r2,16
 1423560:	1007883a 	mov	r3,r2
 1423564:	e0bffe17 	ldw	r2,-8(fp)
 1423568:	10800117 	ldw	r2,4(r2)
 142356c:	18800015 	stw	r2,0(r3)
 1423570:	0001883a 	nop
 1423574:	e037883a 	mov	sp,fp
 1423578:	df000017 	ldw	fp,0(sp)
 142357c:	dec00104 	addi	sp,sp,4
 1423580:	f800283a 	ret

01423584 <_ZN8DdfsCore14set_env_sourceEi>:
 1423584:	defffc04 	addi	sp,sp,-16
 1423588:	df000315 	stw	fp,12(sp)
 142358c:	df000304 	addi	fp,sp,12
 1423590:	e13ffe15 	stw	r4,-8(fp)
 1423594:	e17fff15 	stw	r5,-4(fp)
 1423598:	e03ffd15 	stw	zero,-12(fp)
 142359c:	e0bfff17 	ldw	r2,-4(fp)
 14235a0:	10800058 	cmpnei	r2,r2,1
 14235a4:	1000021e 	bne	r2,zero,14235b0 <_ZN8DdfsCore14set_env_sourceEi+0x2c>
 14235a8:	00800044 	movi	r2,1
 14235ac:	e0bffd15 	stw	r2,-12(fp)
 14235b0:	e0bffd17 	ldw	r2,-12(fp)
 14235b4:	10000626 	beq	r2,zero,14235d0 <_ZN8DdfsCore14set_env_sourceEi+0x4c>
 14235b8:	e0bffe17 	ldw	r2,-8(fp)
 14235bc:	10800117 	ldw	r2,4(r2)
 14235c0:	10c00054 	ori	r3,r2,1
 14235c4:	e0bffe17 	ldw	r2,-8(fp)
 14235c8:	10c00115 	stw	r3,4(r2)
 14235cc:	00000606 	br	14235e8 <_ZN8DdfsCore14set_env_sourceEi+0x64>
 14235d0:	e0bffe17 	ldw	r2,-8(fp)
 14235d4:	10c00117 	ldw	r3,4(r2)
 14235d8:	00bfff84 	movi	r2,-2
 14235dc:	1886703a 	and	r3,r3,r2
 14235e0:	e0bffe17 	ldw	r2,-8(fp)
 14235e4:	10c00115 	stw	r3,4(r2)
 14235e8:	e0bffe17 	ldw	r2,-8(fp)
 14235ec:	10800017 	ldw	r2,0(r2)
 14235f0:	10800404 	addi	r2,r2,16
 14235f4:	1007883a 	mov	r3,r2
 14235f8:	e0bffe17 	ldw	r2,-8(fp)
 14235fc:	10800117 	ldw	r2,4(r2)
 1423600:	18800015 	stw	r2,0(r3)
 1423604:	0001883a 	nop
 1423608:	e037883a 	mov	sp,fp
 142360c:	df000017 	ldw	fp,0(sp)
 1423610:	dec00104 	addi	sp,sp,4
 1423614:	f800283a 	ret

01423618 <_ZN8DdfsCore14set_pha_sourceEi>:
 1423618:	defffc04 	addi	sp,sp,-16
 142361c:	df000315 	stw	fp,12(sp)
 1423620:	df000304 	addi	fp,sp,12
 1423624:	e13ffe15 	stw	r4,-8(fp)
 1423628:	e17fff15 	stw	r5,-4(fp)
 142362c:	e03ffd15 	stw	zero,-12(fp)
 1423630:	e0bfff17 	ldw	r2,-4(fp)
 1423634:	10800058 	cmpnei	r2,r2,1
 1423638:	1000021e 	bne	r2,zero,1423644 <_ZN8DdfsCore14set_pha_sourceEi+0x2c>
 142363c:	00800044 	movi	r2,1
 1423640:	e0bffd15 	stw	r2,-12(fp)
 1423644:	e0bffd17 	ldw	r2,-12(fp)
 1423648:	10000626 	beq	r2,zero,1423664 <_ZN8DdfsCore14set_pha_sourceEi+0x4c>
 142364c:	e0bffe17 	ldw	r2,-8(fp)
 1423650:	10800117 	ldw	r2,4(r2)
 1423654:	10c00114 	ori	r3,r2,4
 1423658:	e0bffe17 	ldw	r2,-8(fp)
 142365c:	10c00115 	stw	r3,4(r2)
 1423660:	00000606 	br	142367c <_ZN8DdfsCore14set_pha_sourceEi+0x64>
 1423664:	e0bffe17 	ldw	r2,-8(fp)
 1423668:	10c00117 	ldw	r3,4(r2)
 142366c:	00bffec4 	movi	r2,-5
 1423670:	1886703a 	and	r3,r3,r2
 1423674:	e0bffe17 	ldw	r2,-8(fp)
 1423678:	10c00115 	stw	r3,4(r2)
 142367c:	e0bffe17 	ldw	r2,-8(fp)
 1423680:	10800017 	ldw	r2,0(r2)
 1423684:	10800404 	addi	r2,r2,16
 1423688:	1007883a 	mov	r3,r2
 142368c:	e0bffe17 	ldw	r2,-8(fp)
 1423690:	10800117 	ldw	r2,4(r2)
 1423694:	18800015 	stw	r2,0(r3)
 1423698:	0001883a 	nop
 142369c:	e037883a 	mov	sp,fp
 14236a0:	df000017 	ldw	fp,0(sp)
 14236a4:	dec00104 	addi	sp,sp,4
 14236a8:	f800283a 	ret

014236ac <_ZN8DdfsCore8read_pcmEv>:
 14236ac:	defffd04 	addi	sp,sp,-12
 14236b0:	df000215 	stw	fp,8(sp)
 14236b4:	df000204 	addi	fp,sp,8
 14236b8:	e13fff15 	stw	r4,-4(fp)
 14236bc:	e0bfff17 	ldw	r2,-4(fp)
 14236c0:	10800017 	ldw	r2,0(r2)
 14236c4:	10800017 	ldw	r2,0(r2)
 14236c8:	e0bffe15 	stw	r2,-8(fp)
 14236cc:	e0bffe17 	ldw	r2,-8(fp)
 14236d0:	e037883a 	mov	sp,fp
 14236d4:	df000017 	ldw	fp,0(sp)
 14236d8:	dec00104 	addi	sp,sp,4
 14236dc:	f800283a 	ret

014236e0 <_Z41__static_initialization_and_destruction_0ii>:
 14236e0:	defffc04 	addi	sp,sp,-16
 14236e4:	dfc00315 	stw	ra,12(sp)
 14236e8:	df000215 	stw	fp,8(sp)
 14236ec:	df000204 	addi	fp,sp,8
 14236f0:	e13ffe15 	stw	r4,-8(fp)
 14236f4:	e17fff15 	stw	r5,-4(fp)
 14236f8:	e0bffe17 	ldw	r2,-8(fp)
 14236fc:	10800058 	cmpnei	r2,r2,1
 1423700:	1000321e 	bne	r2,zero,14237cc <_Z41__static_initialization_and_destruction_0ii+0xec>
 1423704:	e0ffff17 	ldw	r3,-4(fp)
 1423708:	00bfffd4 	movui	r2,65535
 142370c:	18802f1e 	bne	r3,r2,14237cc <_Z41__static_initialization_and_destruction_0ii+0xec>
 1423710:	01700034 	movhi	r5,49152
 1423714:	29404004 	addi	r5,r5,256
 1423718:	d122a304 	addi	r4,gp,-30068
 142371c:	1423abc0 	call	1423abc <_ZN7GpoCoreC1Em>
 1423720:	01700034 	movhi	r5,49152
 1423724:	29406004 	addi	r5,r5,384
 1423728:	d122a504 	addi	r4,gp,-30060
 142372c:	14238b40 	call	14238b4 <_ZN7GpiCoreC1Em>
 1423730:	01700034 	movhi	r5,49152
 1423734:	2940a004 	addi	r5,r5,640
 1423738:	d122a604 	addi	r4,gp,-30056
 142373c:	1423db40 	call	1423db4 <_ZN8MadcCoreC1Em>
 1423740:	01700034 	movhi	r5,49152
 1423744:	2940c004 	addi	r5,r5,768
 1423748:	d122a704 	addi	r4,gp,-30052
 142374c:	1423bfc0 	call	1423bfc <_ZN7PwmCoreC1Em>
 1423750:	01700034 	movhi	r5,49152
 1423754:	2940e004 	addi	r5,r5,896
 1423758:	d122a904 	addi	r4,gp,-30044
 142375c:	142397c0 	call	142397c <_ZN12DebounceCoreC1Em>
 1423760:	01800204 	movi	r6,8
 1423764:	01700034 	movhi	r5,49152
 1423768:	29410004 	addi	r5,r5,1024
 142376c:	010050f4 	movhi	r4,323
 1423770:	213d2f04 	addi	r4,r4,-2884
 1423774:	14247940 	call	1424794 <_ZN8SsegCoreC1Emi>
 1423778:	01700034 	movhi	r5,49152
 142377c:	29418004 	addi	r5,r5,1536
 1423780:	d122aa04 	addi	r4,gp,-30040
 1423784:	14231f00 	call	14231f0 <_ZN8DdfsCoreC1Em>
 1423788:	d1a2aa04 	addi	r6,gp,-30040
 142378c:	01700034 	movhi	r5,49152
 1423790:	2941a004 	addi	r5,r5,1664
 1423794:	010050f4 	movhi	r4,323
 1423798:	213d3304 	addi	r4,r4,-2868
 142379c:	14222680 	call	1422268 <_ZN8AdsrCoreC1EmP8DdfsCore>
 14237a0:	01700034 	movhi	r5,49152
 14237a4:	29420004 	addi	r5,r5,2048
 14237a8:	d122ac04 	addi	r4,gp,-30032
 14237ac:	14250e80 	call	14250e8 <_ZN8UartCoreC1Em>
 14237b0:	01c00044 	movi	r7,1
 14237b4:	01804004 	movi	r6,256
 14237b8:	01700034 	movhi	r5,49152
 14237bc:	2941c004 	addi	r5,r5,1792
 14237c0:	010050f4 	movhi	r4,323
 14237c4:	213d3a04 	addi	r4,r4,-2840
 14237c8:	142580c0 	call	142580c <_ZN10Ws2812CoreC1Emii>
 14237cc:	e0bffe17 	ldw	r2,-8(fp)
 14237d0:	10001a1e 	bne	r2,zero,142383c <_Z41__static_initialization_and_destruction_0ii+0x15c>
 14237d4:	e0ffff17 	ldw	r3,-4(fp)
 14237d8:	00bfffd4 	movui	r2,65535
 14237dc:	1880171e 	bne	r3,r2,142383c <_Z41__static_initialization_and_destruction_0ii+0x15c>
 14237e0:	010050f4 	movhi	r4,323
 14237e4:	213d3a04 	addi	r4,r4,-2840
 14237e8:	14258780 	call	1425878 <_ZN10Ws2812CoreD1Ev>
 14237ec:	d122ac04 	addi	r4,gp,-30032
 14237f0:	14251300 	call	1425130 <_ZN8UartCoreD1Ev>
 14237f4:	010050f4 	movhi	r4,323
 14237f8:	213d3304 	addi	r4,r4,-2868
 14237fc:	14222c80 	call	14222c8 <_ZN8AdsrCoreD1Ev>
 1423800:	d122aa04 	addi	r4,gp,-30040
 1423804:	14232340 	call	1423234 <_ZN8DdfsCoreD1Ev>
 1423808:	010050f4 	movhi	r4,323
 142380c:	213d2f04 	addi	r4,r4,-2884
 1423810:	14248480 	call	1424848 <_ZN8SsegCoreD1Ev>
 1423814:	d122a904 	addi	r4,gp,-30044
 1423818:	14239b00 	call	14239b0 <_ZN12DebounceCoreD1Ev>
 142381c:	d122a704 	addi	r4,gp,-30052
 1423820:	1423c440 	call	1423c44 <_ZN7PwmCoreD1Ev>
 1423824:	d122a604 	addi	r4,gp,-30056
 1423828:	1423de80 	call	1423de8 <_ZN8MadcCoreD1Ev>
 142382c:	d122a504 	addi	r4,gp,-30060
 1423830:	14238e80 	call	14238e8 <_ZN7GpiCoreD1Ev>
 1423834:	d122a304 	addi	r4,gp,-30068
 1423838:	1423af80 	call	1423af8 <_ZN7GpoCoreD1Ev>
 142383c:	0001883a 	nop
 1423840:	e037883a 	mov	sp,fp
 1423844:	dfc00117 	ldw	ra,4(sp)
 1423848:	df000017 	ldw	fp,0(sp)
 142384c:	dec00204 	addi	sp,sp,8
 1423850:	f800283a 	ret

01423854 <_GLOBAL__sub_I_led>:
 1423854:	defffe04 	addi	sp,sp,-8
 1423858:	dfc00115 	stw	ra,4(sp)
 142385c:	df000015 	stw	fp,0(sp)
 1423860:	d839883a 	mov	fp,sp
 1423864:	017fffd4 	movui	r5,65535
 1423868:	01000044 	movi	r4,1
 142386c:	14236e00 	call	14236e0 <_Z41__static_initialization_and_destruction_0ii>
 1423870:	e037883a 	mov	sp,fp
 1423874:	dfc00117 	ldw	ra,4(sp)
 1423878:	df000017 	ldw	fp,0(sp)
 142387c:	dec00204 	addi	sp,sp,8
 1423880:	f800283a 	ret

01423884 <_GLOBAL__sub_D_led>:
 1423884:	defffe04 	addi	sp,sp,-8
 1423888:	dfc00115 	stw	ra,4(sp)
 142388c:	df000015 	stw	fp,0(sp)
 1423890:	d839883a 	mov	fp,sp
 1423894:	017fffd4 	movui	r5,65535
 1423898:	0009883a 	mov	r4,zero
 142389c:	14236e00 	call	14236e0 <_Z41__static_initialization_and_destruction_0ii>
 14238a0:	e037883a 	mov	sp,fp
 14238a4:	dfc00117 	ldw	ra,4(sp)
 14238a8:	df000017 	ldw	fp,0(sp)
 14238ac:	dec00204 	addi	sp,sp,8
 14238b0:	f800283a 	ret

014238b4 <_ZN7GpiCoreC1Em>:
 14238b4:	defffd04 	addi	sp,sp,-12
 14238b8:	df000215 	stw	fp,8(sp)
 14238bc:	df000204 	addi	fp,sp,8
 14238c0:	e13ffe15 	stw	r4,-8(fp)
 14238c4:	e17fff15 	stw	r5,-4(fp)
 14238c8:	e0bffe17 	ldw	r2,-8(fp)
 14238cc:	e0ffff17 	ldw	r3,-4(fp)
 14238d0:	10c00015 	stw	r3,0(r2)
 14238d4:	0001883a 	nop
 14238d8:	e037883a 	mov	sp,fp
 14238dc:	df000017 	ldw	fp,0(sp)
 14238e0:	dec00104 	addi	sp,sp,4
 14238e4:	f800283a 	ret

014238e8 <_ZN7GpiCoreD1Ev>:
 14238e8:	defffe04 	addi	sp,sp,-8
 14238ec:	df000115 	stw	fp,4(sp)
 14238f0:	df000104 	addi	fp,sp,4
 14238f4:	e13fff15 	stw	r4,-4(fp)
 14238f8:	0001883a 	nop
 14238fc:	e037883a 	mov	sp,fp
 1423900:	df000017 	ldw	fp,0(sp)
 1423904:	dec00104 	addi	sp,sp,4
 1423908:	f800283a 	ret

0142390c <_ZN7GpiCore4readEv>:
 142390c:	defffe04 	addi	sp,sp,-8
 1423910:	df000115 	stw	fp,4(sp)
 1423914:	df000104 	addi	fp,sp,4
 1423918:	e13fff15 	stw	r4,-4(fp)
 142391c:	e0bfff17 	ldw	r2,-4(fp)
 1423920:	10800017 	ldw	r2,0(r2)
 1423924:	10800017 	ldw	r2,0(r2)
 1423928:	e037883a 	mov	sp,fp
 142392c:	df000017 	ldw	fp,0(sp)
 1423930:	dec00104 	addi	sp,sp,4
 1423934:	f800283a 	ret

01423938 <_ZN7GpiCore4readEi>:
 1423938:	defffc04 	addi	sp,sp,-16
 142393c:	df000315 	stw	fp,12(sp)
 1423940:	df000304 	addi	fp,sp,12
 1423944:	e13ffe15 	stw	r4,-8(fp)
 1423948:	e17fff15 	stw	r5,-4(fp)
 142394c:	e0bffe17 	ldw	r2,-8(fp)
 1423950:	10800017 	ldw	r2,0(r2)
 1423954:	10800017 	ldw	r2,0(r2)
 1423958:	e0bffd15 	stw	r2,-12(fp)
 142395c:	e0fffd17 	ldw	r3,-12(fp)
 1423960:	e0bfff17 	ldw	r2,-4(fp)
 1423964:	1884d83a 	srl	r2,r3,r2
 1423968:	1080004c 	andi	r2,r2,1
 142396c:	e037883a 	mov	sp,fp
 1423970:	df000017 	ldw	fp,0(sp)
 1423974:	dec00104 	addi	sp,sp,4
 1423978:	f800283a 	ret

0142397c <_ZN12DebounceCoreC1Em>:
 142397c:	defffd04 	addi	sp,sp,-12
 1423980:	df000215 	stw	fp,8(sp)
 1423984:	df000204 	addi	fp,sp,8
 1423988:	e13ffe15 	stw	r4,-8(fp)
 142398c:	e17fff15 	stw	r5,-4(fp)
 1423990:	e0bffe17 	ldw	r2,-8(fp)
 1423994:	e0ffff17 	ldw	r3,-4(fp)
 1423998:	10c00015 	stw	r3,0(r2)
 142399c:	0001883a 	nop
 14239a0:	e037883a 	mov	sp,fp
 14239a4:	df000017 	ldw	fp,0(sp)
 14239a8:	dec00104 	addi	sp,sp,4
 14239ac:	f800283a 	ret

014239b0 <_ZN12DebounceCoreD1Ev>:
 14239b0:	defffe04 	addi	sp,sp,-8
 14239b4:	df000115 	stw	fp,4(sp)
 14239b8:	df000104 	addi	fp,sp,4
 14239bc:	e13fff15 	stw	r4,-4(fp)
 14239c0:	0001883a 	nop
 14239c4:	e037883a 	mov	sp,fp
 14239c8:	df000017 	ldw	fp,0(sp)
 14239cc:	dec00104 	addi	sp,sp,4
 14239d0:	f800283a 	ret

014239d4 <_ZN12DebounceCore4readEv>:
 14239d4:	defffe04 	addi	sp,sp,-8
 14239d8:	df000115 	stw	fp,4(sp)
 14239dc:	df000104 	addi	fp,sp,4
 14239e0:	e13fff15 	stw	r4,-4(fp)
 14239e4:	e0bfff17 	ldw	r2,-4(fp)
 14239e8:	10800017 	ldw	r2,0(r2)
 14239ec:	10800017 	ldw	r2,0(r2)
 14239f0:	e037883a 	mov	sp,fp
 14239f4:	df000017 	ldw	fp,0(sp)
 14239f8:	dec00104 	addi	sp,sp,4
 14239fc:	f800283a 	ret

01423a00 <_ZN12DebounceCore4readEi>:
 1423a00:	defffc04 	addi	sp,sp,-16
 1423a04:	df000315 	stw	fp,12(sp)
 1423a08:	df000304 	addi	fp,sp,12
 1423a0c:	e13ffe15 	stw	r4,-8(fp)
 1423a10:	e17fff15 	stw	r5,-4(fp)
 1423a14:	e0bffe17 	ldw	r2,-8(fp)
 1423a18:	10800017 	ldw	r2,0(r2)
 1423a1c:	10800017 	ldw	r2,0(r2)
 1423a20:	e0bffd15 	stw	r2,-12(fp)
 1423a24:	e0fffd17 	ldw	r3,-12(fp)
 1423a28:	e0bfff17 	ldw	r2,-4(fp)
 1423a2c:	1884d83a 	srl	r2,r3,r2
 1423a30:	1080004c 	andi	r2,r2,1
 1423a34:	e037883a 	mov	sp,fp
 1423a38:	df000017 	ldw	fp,0(sp)
 1423a3c:	dec00104 	addi	sp,sp,4
 1423a40:	f800283a 	ret

01423a44 <_ZN12DebounceCore7read_dbEv>:
 1423a44:	defffe04 	addi	sp,sp,-8
 1423a48:	df000115 	stw	fp,4(sp)
 1423a4c:	df000104 	addi	fp,sp,4
 1423a50:	e13fff15 	stw	r4,-4(fp)
 1423a54:	e0bfff17 	ldw	r2,-4(fp)
 1423a58:	10800017 	ldw	r2,0(r2)
 1423a5c:	10800104 	addi	r2,r2,4
 1423a60:	10800017 	ldw	r2,0(r2)
 1423a64:	e037883a 	mov	sp,fp
 1423a68:	df000017 	ldw	fp,0(sp)
 1423a6c:	dec00104 	addi	sp,sp,4
 1423a70:	f800283a 	ret

01423a74 <_ZN12DebounceCore7read_dbEi>:
 1423a74:	defffc04 	addi	sp,sp,-16
 1423a78:	df000315 	stw	fp,12(sp)
 1423a7c:	df000304 	addi	fp,sp,12
 1423a80:	e13ffe15 	stw	r4,-8(fp)
 1423a84:	e17fff15 	stw	r5,-4(fp)
 1423a88:	e0bffe17 	ldw	r2,-8(fp)
 1423a8c:	10800017 	ldw	r2,0(r2)
 1423a90:	10800104 	addi	r2,r2,4
 1423a94:	10800017 	ldw	r2,0(r2)
 1423a98:	e0bffd15 	stw	r2,-12(fp)
 1423a9c:	e0fffd17 	ldw	r3,-12(fp)
 1423aa0:	e0bfff17 	ldw	r2,-4(fp)
 1423aa4:	1884d83a 	srl	r2,r3,r2
 1423aa8:	1080004c 	andi	r2,r2,1
 1423aac:	e037883a 	mov	sp,fp
 1423ab0:	df000017 	ldw	fp,0(sp)
 1423ab4:	dec00104 	addi	sp,sp,4
 1423ab8:	f800283a 	ret

01423abc <_ZN7GpoCoreC1Em>:
 1423abc:	defffd04 	addi	sp,sp,-12
 1423ac0:	df000215 	stw	fp,8(sp)
 1423ac4:	df000204 	addi	fp,sp,8
 1423ac8:	e13ffe15 	stw	r4,-8(fp)
 1423acc:	e17fff15 	stw	r5,-4(fp)
 1423ad0:	e0bffe17 	ldw	r2,-8(fp)
 1423ad4:	e0ffff17 	ldw	r3,-4(fp)
 1423ad8:	10c00015 	stw	r3,0(r2)
 1423adc:	e0bffe17 	ldw	r2,-8(fp)
 1423ae0:	10000115 	stw	zero,4(r2)
 1423ae4:	0001883a 	nop
 1423ae8:	e037883a 	mov	sp,fp
 1423aec:	df000017 	ldw	fp,0(sp)
 1423af0:	dec00104 	addi	sp,sp,4
 1423af4:	f800283a 	ret

01423af8 <_ZN7GpoCoreD1Ev>:
 1423af8:	defffe04 	addi	sp,sp,-8
 1423afc:	df000115 	stw	fp,4(sp)
 1423b00:	df000104 	addi	fp,sp,4
 1423b04:	e13fff15 	stw	r4,-4(fp)
 1423b08:	0001883a 	nop
 1423b0c:	e037883a 	mov	sp,fp
 1423b10:	df000017 	ldw	fp,0(sp)
 1423b14:	dec00104 	addi	sp,sp,4
 1423b18:	f800283a 	ret

01423b1c <_ZN7GpoCore5writeEm>:
 1423b1c:	defffd04 	addi	sp,sp,-12
 1423b20:	df000215 	stw	fp,8(sp)
 1423b24:	df000204 	addi	fp,sp,8
 1423b28:	e13ffe15 	stw	r4,-8(fp)
 1423b2c:	e17fff15 	stw	r5,-4(fp)
 1423b30:	e0bffe17 	ldw	r2,-8(fp)
 1423b34:	e0ffff17 	ldw	r3,-4(fp)
 1423b38:	10c00115 	stw	r3,4(r2)
 1423b3c:	e0bffe17 	ldw	r2,-8(fp)
 1423b40:	10800017 	ldw	r2,0(r2)
 1423b44:	1007883a 	mov	r3,r2
 1423b48:	e0bffe17 	ldw	r2,-8(fp)
 1423b4c:	10800117 	ldw	r2,4(r2)
 1423b50:	18800015 	stw	r2,0(r3)
 1423b54:	0001883a 	nop
 1423b58:	e037883a 	mov	sp,fp
 1423b5c:	df000017 	ldw	fp,0(sp)
 1423b60:	dec00104 	addi	sp,sp,4
 1423b64:	f800283a 	ret

01423b68 <_ZN7GpoCore5writeEii>:
 1423b68:	defffc04 	addi	sp,sp,-16
 1423b6c:	df000315 	stw	fp,12(sp)
 1423b70:	df000304 	addi	fp,sp,12
 1423b74:	e13ffd15 	stw	r4,-12(fp)
 1423b78:	e17ffe15 	stw	r5,-8(fp)
 1423b7c:	e1bfff15 	stw	r6,-4(fp)
 1423b80:	e0bffe17 	ldw	r2,-8(fp)
 1423b84:	10000926 	beq	r2,zero,1423bac <_ZN7GpoCore5writeEii+0x44>
 1423b88:	e0bffd17 	ldw	r2,-12(fp)
 1423b8c:	10c00117 	ldw	r3,4(r2)
 1423b90:	01000044 	movi	r4,1
 1423b94:	e0bfff17 	ldw	r2,-4(fp)
 1423b98:	2084983a 	sll	r2,r4,r2
 1423b9c:	1886b03a 	or	r3,r3,r2
 1423ba0:	e0bffd17 	ldw	r2,-12(fp)
 1423ba4:	10c00115 	stw	r3,4(r2)
 1423ba8:	00000906 	br	1423bd0 <_ZN7GpoCore5writeEii+0x68>
 1423bac:	e0bffd17 	ldw	r2,-12(fp)
 1423bb0:	10c00117 	ldw	r3,4(r2)
 1423bb4:	01000044 	movi	r4,1
 1423bb8:	e0bfff17 	ldw	r2,-4(fp)
 1423bbc:	2084983a 	sll	r2,r4,r2
 1423bc0:	0084303a 	nor	r2,zero,r2
 1423bc4:	1886703a 	and	r3,r3,r2
 1423bc8:	e0bffd17 	ldw	r2,-12(fp)
 1423bcc:	10c00115 	stw	r3,4(r2)
 1423bd0:	e0bffd17 	ldw	r2,-12(fp)
 1423bd4:	10800017 	ldw	r2,0(r2)
 1423bd8:	1007883a 	mov	r3,r2
 1423bdc:	e0bffd17 	ldw	r2,-12(fp)
 1423be0:	10800117 	ldw	r2,4(r2)
 1423be4:	18800015 	stw	r2,0(r3)
 1423be8:	0001883a 	nop
 1423bec:	e037883a 	mov	sp,fp
 1423bf0:	df000017 	ldw	fp,0(sp)
 1423bf4:	dec00104 	addi	sp,sp,4
 1423bf8:	f800283a 	ret

01423bfc <_ZN7PwmCoreC1Em>:
 1423bfc:	defffc04 	addi	sp,sp,-16
 1423c00:	dfc00315 	stw	ra,12(sp)
 1423c04:	df000215 	stw	fp,8(sp)
 1423c08:	df000204 	addi	fp,sp,8
 1423c0c:	e13ffe15 	stw	r4,-8(fp)
 1423c10:	e17fff15 	stw	r5,-4(fp)
 1423c14:	e0bffe17 	ldw	r2,-8(fp)
 1423c18:	e0ffff17 	ldw	r3,-4(fp)
 1423c1c:	10c00015 	stw	r3,0(r2)
 1423c20:	0140fa04 	movi	r5,1000
 1423c24:	e13ffe17 	ldw	r4,-8(fp)
 1423c28:	1423c680 	call	1423c68 <_ZN7PwmCore8set_freqEi>
 1423c2c:	0001883a 	nop
 1423c30:	e037883a 	mov	sp,fp
 1423c34:	dfc00117 	ldw	ra,4(sp)
 1423c38:	df000017 	ldw	fp,0(sp)
 1423c3c:	dec00204 	addi	sp,sp,8
 1423c40:	f800283a 	ret

01423c44 <_ZN7PwmCoreD1Ev>:
 1423c44:	defffe04 	addi	sp,sp,-8
 1423c48:	df000115 	stw	fp,4(sp)
 1423c4c:	df000104 	addi	fp,sp,4
 1423c50:	e13fff15 	stw	r4,-4(fp)
 1423c54:	0001883a 	nop
 1423c58:	e037883a 	mov	sp,fp
 1423c5c:	df000017 	ldw	fp,0(sp)
 1423c60:	dec00104 	addi	sp,sp,4
 1423c64:	f800283a 	ret

01423c68 <_ZN7PwmCore8set_freqEi>:
 1423c68:	defffb04 	addi	sp,sp,-20
 1423c6c:	dfc00415 	stw	ra,16(sp)
 1423c70:	df000315 	stw	fp,12(sp)
 1423c74:	df000304 	addi	fp,sp,12
 1423c78:	e13ffe15 	stw	r4,-8(fp)
 1423c7c:	e17fff15 	stw	r5,-4(fp)
 1423c80:	e0bfff17 	ldw	r2,-4(fp)
 1423c84:	100b883a 	mov	r5,r2
 1423c88:	012faf14 	movui	r4,48828
 1423c8c:	14287d80 	call	14287d8 <__udivsi3>
 1423c90:	e0bffd15 	stw	r2,-12(fp)
 1423c94:	e0bffe17 	ldw	r2,-8(fp)
 1423c98:	10800017 	ldw	r2,0(r2)
 1423c9c:	1007883a 	mov	r3,r2
 1423ca0:	e0bffd17 	ldw	r2,-12(fp)
 1423ca4:	18800015 	stw	r2,0(r3)
 1423ca8:	0001883a 	nop
 1423cac:	e037883a 	mov	sp,fp
 1423cb0:	dfc00117 	ldw	ra,4(sp)
 1423cb4:	df000017 	ldw	fp,0(sp)
 1423cb8:	dec00204 	addi	sp,sp,8
 1423cbc:	f800283a 	ret

01423cc0 <_ZN7PwmCore8set_dutyEii>:
 1423cc0:	defffb04 	addi	sp,sp,-20
 1423cc4:	df000415 	stw	fp,16(sp)
 1423cc8:	df000404 	addi	fp,sp,16
 1423ccc:	e13ffd15 	stw	r4,-12(fp)
 1423cd0:	e17ffe15 	stw	r5,-8(fp)
 1423cd4:	e1bfff15 	stw	r6,-4(fp)
 1423cd8:	e0bffe17 	ldw	r2,-8(fp)
 1423cdc:	10810050 	cmplti	r2,r2,1025
 1423ce0:	1000031e 	bne	r2,zero,1423cf0 <_ZN7PwmCore8set_dutyEii+0x30>
 1423ce4:	00810004 	movi	r2,1024
 1423ce8:	e0bffc15 	stw	r2,-16(fp)
 1423cec:	00000206 	br	1423cf8 <_ZN7PwmCore8set_dutyEii+0x38>
 1423cf0:	e0bffe17 	ldw	r2,-8(fp)
 1423cf4:	e0bffc15 	stw	r2,-16(fp)
 1423cf8:	e0bffd17 	ldw	r2,-12(fp)
 1423cfc:	10c00017 	ldw	r3,0(r2)
 1423d00:	e0bfff17 	ldw	r2,-4(fp)
 1423d04:	10800404 	addi	r2,r2,16
 1423d08:	1085883a 	add	r2,r2,r2
 1423d0c:	1085883a 	add	r2,r2,r2
 1423d10:	1885883a 	add	r2,r3,r2
 1423d14:	1007883a 	mov	r3,r2
 1423d18:	e0bffc17 	ldw	r2,-16(fp)
 1423d1c:	18800015 	stw	r2,0(r3)
 1423d20:	0001883a 	nop
 1423d24:	e037883a 	mov	sp,fp
 1423d28:	df000017 	ldw	fp,0(sp)
 1423d2c:	dec00104 	addi	sp,sp,4
 1423d30:	f800283a 	ret

01423d34 <_ZN7PwmCore8set_dutyEdi>:
 1423d34:	defff904 	addi	sp,sp,-28
 1423d38:	dfc00615 	stw	ra,24(sp)
 1423d3c:	df000515 	stw	fp,20(sp)
 1423d40:	df000504 	addi	fp,sp,20
 1423d44:	e13ffc15 	stw	r4,-16(fp)
 1423d48:	e17ffd15 	stw	r5,-12(fp)
 1423d4c:	e1bffe15 	stw	r6,-8(fp)
 1423d50:	e1ffff15 	stw	r7,-4(fp)
 1423d54:	000d883a 	mov	r6,zero
 1423d58:	01d02434 	movhi	r7,16528
 1423d5c:	e13ffd17 	ldw	r4,-12(fp)
 1423d60:	e17ffe17 	ldw	r5,-8(fp)
 1423d64:	142a5780 	call	142a578 <__muldf3>
 1423d68:	1009883a 	mov	r4,r2
 1423d6c:	180b883a 	mov	r5,r3
 1423d70:	2005883a 	mov	r2,r4
 1423d74:	2807883a 	mov	r3,r5
 1423d78:	1009883a 	mov	r4,r2
 1423d7c:	180b883a 	mov	r5,r3
 1423d80:	142b6e00 	call	142b6e0 <__fixdfsi>
 1423d84:	e0bffb15 	stw	r2,-20(fp)
 1423d88:	14230700 	call	1423070 <debug_off>
 1423d8c:	e1bfff17 	ldw	r6,-4(fp)
 1423d90:	e17ffb17 	ldw	r5,-20(fp)
 1423d94:	e13ffc17 	ldw	r4,-16(fp)
 1423d98:	1423cc00 	call	1423cc0 <_ZN7PwmCore8set_dutyEii>
 1423d9c:	0001883a 	nop
 1423da0:	e037883a 	mov	sp,fp
 1423da4:	dfc00117 	ldw	ra,4(sp)
 1423da8:	df000017 	ldw	fp,0(sp)
 1423dac:	dec00204 	addi	sp,sp,8
 1423db0:	f800283a 	ret

01423db4 <_ZN8MadcCoreC1Em>:
 1423db4:	defffd04 	addi	sp,sp,-12
 1423db8:	df000215 	stw	fp,8(sp)
 1423dbc:	df000204 	addi	fp,sp,8
 1423dc0:	e13ffe15 	stw	r4,-8(fp)
 1423dc4:	e17fff15 	stw	r5,-4(fp)
 1423dc8:	e0bffe17 	ldw	r2,-8(fp)
 1423dcc:	e0ffff17 	ldw	r3,-4(fp)
 1423dd0:	10c00015 	stw	r3,0(r2)
 1423dd4:	0001883a 	nop
 1423dd8:	e037883a 	mov	sp,fp
 1423ddc:	df000017 	ldw	fp,0(sp)
 1423de0:	dec00104 	addi	sp,sp,4
 1423de4:	f800283a 	ret

01423de8 <_ZN8MadcCoreD1Ev>:
 1423de8:	defffe04 	addi	sp,sp,-8
 1423dec:	df000115 	stw	fp,4(sp)
 1423df0:	df000104 	addi	fp,sp,4
 1423df4:	e13fff15 	stw	r4,-4(fp)
 1423df8:	0001883a 	nop
 1423dfc:	e037883a 	mov	sp,fp
 1423e00:	df000017 	ldw	fp,0(sp)
 1423e04:	dec00104 	addi	sp,sp,4
 1423e08:	f800283a 	ret

01423e0c <_ZN8MadcCore16read_channel_rawEi>:
 1423e0c:	defffc04 	addi	sp,sp,-16
 1423e10:	df000315 	stw	fp,12(sp)
 1423e14:	df000304 	addi	fp,sp,12
 1423e18:	e13ffe15 	stw	r4,-8(fp)
 1423e1c:	e17fff15 	stw	r5,-4(fp)
 1423e20:	e0bffe17 	ldw	r2,-8(fp)
 1423e24:	10c00017 	ldw	r3,0(r2)
 1423e28:	e0bfff17 	ldw	r2,-4(fp)
 1423e2c:	1085883a 	add	r2,r2,r2
 1423e30:	1085883a 	add	r2,r2,r2
 1423e34:	1885883a 	add	r2,r3,r2
 1423e38:	10800017 	ldw	r2,0(r2)
 1423e3c:	1083ffcc 	andi	r2,r2,4095
 1423e40:	e0bffd0d 	sth	r2,-12(fp)
 1423e44:	e0bffd0b 	ldhu	r2,-12(fp)
 1423e48:	e037883a 	mov	sp,fp
 1423e4c:	df000017 	ldw	fp,0(sp)
 1423e50:	dec00104 	addi	sp,sp,4
 1423e54:	f800283a 	ret

01423e58 <_ZN8MadcCore11read_adc_inEi>:
 1423e58:	defff804 	addi	sp,sp,-32
 1423e5c:	dfc00715 	stw	ra,28(sp)
 1423e60:	df000615 	stw	fp,24(sp)
 1423e64:	df000604 	addi	fp,sp,24
 1423e68:	e13ffe15 	stw	r4,-8(fp)
 1423e6c:	e17fff15 	stw	r5,-4(fp)
 1423e70:	e17fff17 	ldw	r5,-4(fp)
 1423e74:	e13ffe17 	ldw	r4,-8(fp)
 1423e78:	1423e0c0 	call	1423e0c <_ZN8MadcCore16read_channel_rawEi>
 1423e7c:	10bfffcc 	andi	r2,r2,65535
 1423e80:	1009883a 	mov	r4,r2
 1423e84:	142b83c0 	call	142b83c <__floatunsidf>
 1423e88:	1009883a 	mov	r4,r2
 1423e8c:	180b883a 	mov	r5,r3
 1423e90:	e13ffa15 	stw	r4,-24(fp)
 1423e94:	e17ffb15 	stw	r5,-20(fp)
 1423e98:	000d883a 	mov	r6,zero
 1423e9c:	01d02c34 	movhi	r7,16560
 1423ea0:	e13ffa17 	ldw	r4,-24(fp)
 1423ea4:	e17ffb17 	ldw	r5,-20(fp)
 1423ea8:	14299500 	call	1429950 <__divdf3>
 1423eac:	1009883a 	mov	r4,r2
 1423eb0:	180b883a 	mov	r5,r3
 1423eb4:	2005883a 	mov	r2,r4
 1423eb8:	2807883a 	mov	r3,r5
 1423ebc:	000d883a 	mov	r6,zero
 1423ec0:	01d00534 	movhi	r7,16404
 1423ec4:	1009883a 	mov	r4,r2
 1423ec8:	180b883a 	mov	r5,r3
 1423ecc:	142a5780 	call	142a578 <__muldf3>
 1423ed0:	1009883a 	mov	r4,r2
 1423ed4:	180b883a 	mov	r5,r3
 1423ed8:	e13ffc15 	stw	r4,-16(fp)
 1423edc:	e17ffd15 	stw	r5,-12(fp)
 1423ee0:	e0bffc17 	ldw	r2,-16(fp)
 1423ee4:	e0fffd17 	ldw	r3,-12(fp)
 1423ee8:	1009883a 	mov	r4,r2
 1423eec:	180b883a 	mov	r5,r3
 1423ef0:	2005883a 	mov	r2,r4
 1423ef4:	2807883a 	mov	r3,r5
 1423ef8:	e037883a 	mov	sp,fp
 1423efc:	dfc00117 	ldw	ra,4(sp)
 1423f00:	df000017 	ldw	fp,0(sp)
 1423f04:	dec00204 	addi	sp,sp,8
 1423f08:	f800283a 	ret

01423f0c <_ZN8MadcCore14read_fpga_tempEv>:
 1423f0c:	defffe04 	addi	sp,sp,-8
 1423f10:	df000115 	stw	fp,4(sp)
 1423f14:	df000104 	addi	fp,sp,4
 1423f18:	e13fff15 	stw	r4,-4(fp)
 1423f1c:	0005883a 	mov	r2,zero
 1423f20:	00d00e74 	movhi	r3,16441
 1423f24:	1009883a 	mov	r4,r2
 1423f28:	180b883a 	mov	r5,r3
 1423f2c:	2005883a 	mov	r2,r4
 1423f30:	2807883a 	mov	r3,r5
 1423f34:	e037883a 	mov	sp,fp
 1423f38:	df000017 	ldw	fp,0(sp)
 1423f3c:	dec00104 	addi	sp,sp,4
 1423f40:	f800283a 	ret

01423f44 <_ZN5RtttlC1Ev>:
 1423f44:	defffc04 	addi	sp,sp,-16
 1423f48:	dfc00315 	stw	ra,12(sp)
 1423f4c:	df000215 	stw	fp,8(sp)
 1423f50:	df000204 	addi	fp,sp,8
 1423f54:	e13fff15 	stw	r4,-4(fp)
 1423f58:	008050f4 	movhi	r2,323
 1423f5c:	10b71b04 	addi	r2,r2,-9108
 1423f60:	e0bffe15 	stw	r2,-8(fp)
 1423f64:	e17ffe17 	ldw	r5,-8(fp)
 1423f68:	e13fff17 	ldw	r4,-4(fp)
 1423f6c:	1423fac0 	call	1423fac <_ZN5Rtttl12parse_headerEPc>
 1423f70:	0001883a 	nop
 1423f74:	e037883a 	mov	sp,fp
 1423f78:	dfc00117 	ldw	ra,4(sp)
 1423f7c:	df000017 	ldw	fp,0(sp)
 1423f80:	dec00204 	addi	sp,sp,8
 1423f84:	f800283a 	ret

01423f88 <_ZN5RtttlD1Ev>:
 1423f88:	defffe04 	addi	sp,sp,-8
 1423f8c:	df000115 	stw	fp,4(sp)
 1423f90:	df000104 	addi	fp,sp,4
 1423f94:	e13fff15 	stw	r4,-4(fp)
 1423f98:	0001883a 	nop
 1423f9c:	e037883a 	mov	sp,fp
 1423fa0:	df000017 	ldw	fp,0(sp)
 1423fa4:	dec00104 	addi	sp,sp,4
 1423fa8:	f800283a 	ret

01423fac <_ZN5Rtttl12parse_headerEPc>:
 1423fac:	defffa04 	addi	sp,sp,-24
 1423fb0:	dfc00515 	stw	ra,20(sp)
 1423fb4:	df000415 	stw	fp,16(sp)
 1423fb8:	df000404 	addi	fp,sp,16
 1423fbc:	e13ffe15 	stw	r4,-8(fp)
 1423fc0:	e17fff15 	stw	r5,-4(fp)
 1423fc4:	e03ffc15 	stw	zero,-16(fp)
 1423fc8:	00800f04 	movi	r2,60
 1423fcc:	e0bffd15 	stw	r2,-12(fp)
 1423fd0:	e0bffe17 	ldw	r2,-8(fp)
 1423fd4:	e0ffff17 	ldw	r3,-4(fp)
 1423fd8:	10c00615 	stw	r3,24(r2)
 1423fdc:	e0bffe17 	ldw	r2,-8(fp)
 1423fe0:	10800617 	ldw	r2,24(r2)
 1423fe4:	10800003 	ldbu	r2,0(r2)
 1423fe8:	10803fcc 	andi	r2,r2,255
 1423fec:	1080201c 	xori	r2,r2,128
 1423ff0:	10bfe004 	addi	r2,r2,-128
 1423ff4:	10800ea0 	cmpeqi	r2,r2,58
 1423ff8:	1000061e 	bne	r2,zero,1424014 <_ZN5Rtttl12parse_headerEPc+0x68>
 1423ffc:	e0bffe17 	ldw	r2,-8(fp)
 1424000:	10800617 	ldw	r2,24(r2)
 1424004:	10c00044 	addi	r3,r2,1
 1424008:	e0bffe17 	ldw	r2,-8(fp)
 142400c:	10c00615 	stw	r3,24(r2)
 1424010:	003ff206 	br	1423fdc <__alt_data_end+0xfffe3fdc>
 1424014:	e0bffe17 	ldw	r2,-8(fp)
 1424018:	10800617 	ldw	r2,24(r2)
 142401c:	10c00044 	addi	r3,r2,1
 1424020:	e0bffe17 	ldw	r2,-8(fp)
 1424024:	10c00615 	stw	r3,24(r2)
 1424028:	e0bffe17 	ldw	r2,-8(fp)
 142402c:	10800617 	ldw	r2,24(r2)
 1424030:	10800003 	ldbu	r2,0(r2)
 1424034:	10803fcc 	andi	r2,r2,255
 1424038:	1080201c 	xori	r2,r2,128
 142403c:	10bfe004 	addi	r2,r2,-128
 1424040:	10801918 	cmpnei	r2,r2,100
 1424044:	1000321e 	bne	r2,zero,1424110 <_ZN5Rtttl12parse_headerEPc+0x164>
 1424048:	e0bffe17 	ldw	r2,-8(fp)
 142404c:	10800617 	ldw	r2,24(r2)
 1424050:	10c00044 	addi	r3,r2,1
 1424054:	e0bffe17 	ldw	r2,-8(fp)
 1424058:	10c00615 	stw	r3,24(r2)
 142405c:	e0bffe17 	ldw	r2,-8(fp)
 1424060:	10800617 	ldw	r2,24(r2)
 1424064:	10c00044 	addi	r3,r2,1
 1424068:	e0bffe17 	ldw	r2,-8(fp)
 142406c:	10c00615 	stw	r3,24(r2)
 1424070:	e03ffc15 	stw	zero,-16(fp)
 1424074:	e0bffe17 	ldw	r2,-8(fp)
 1424078:	10800617 	ldw	r2,24(r2)
 142407c:	10800003 	ldbu	r2,0(r2)
 1424080:	10803fcc 	andi	r2,r2,255
 1424084:	1080201c 	xori	r2,r2,128
 1424088:	10bfe004 	addi	r2,r2,-128
 142408c:	100b883a 	mov	r5,r2
 1424090:	e13ffe17 	ldw	r4,-8(fp)
 1424094:	14247480 	call	1424748 <_ZN5Rtttl8is_digitEc>
 1424098:	1004c03a 	cmpne	r2,r2,zero
 142409c:	10803fcc 	andi	r2,r2,255
 14240a0:	10001326 	beq	r2,zero,14240f0 <_ZN5Rtttl12parse_headerEPc+0x144>
 14240a4:	01400284 	movi	r5,10
 14240a8:	e13ffc17 	ldw	r4,-16(fp)
 14240ac:	14288940 	call	1428894 <__mulsi3>
 14240b0:	1007883a 	mov	r3,r2
 14240b4:	e0bffe17 	ldw	r2,-8(fp)
 14240b8:	10800617 	ldw	r2,24(r2)
 14240bc:	10800003 	ldbu	r2,0(r2)
 14240c0:	10803fcc 	andi	r2,r2,255
 14240c4:	1080201c 	xori	r2,r2,128
 14240c8:	10bfe004 	addi	r2,r2,-128
 14240cc:	10bff404 	addi	r2,r2,-48
 14240d0:	1885883a 	add	r2,r3,r2
 14240d4:	e0bffc15 	stw	r2,-16(fp)
 14240d8:	e0bffe17 	ldw	r2,-8(fp)
 14240dc:	10800617 	ldw	r2,24(r2)
 14240e0:	10c00044 	addi	r3,r2,1
 14240e4:	e0bffe17 	ldw	r2,-8(fp)
 14240e8:	10c00615 	stw	r3,24(r2)
 14240ec:	003fe106 	br	1424074 <__alt_data_end+0xfffe4074>
 14240f0:	e0bffe17 	ldw	r2,-8(fp)
 14240f4:	e0fffc17 	ldw	r3,-16(fp)
 14240f8:	10c00015 	stw	r3,0(r2)
 14240fc:	e0bffe17 	ldw	r2,-8(fp)
 1424100:	10800617 	ldw	r2,24(r2)
 1424104:	10c00044 	addi	r3,r2,1
 1424108:	e0bffe17 	ldw	r2,-8(fp)
 142410c:	10c00615 	stw	r3,24(r2)
 1424110:	e0bffe17 	ldw	r2,-8(fp)
 1424114:	10800617 	ldw	r2,24(r2)
 1424118:	10800003 	ldbu	r2,0(r2)
 142411c:	10803fcc 	andi	r2,r2,255
 1424120:	1080201c 	xori	r2,r2,128
 1424124:	10bfe004 	addi	r2,r2,-128
 1424128:	10801bd8 	cmpnei	r2,r2,111
 142412c:	10001f1e 	bne	r2,zero,14241ac <_ZN5Rtttl12parse_headerEPc+0x200>
 1424130:	e0bffe17 	ldw	r2,-8(fp)
 1424134:	10800617 	ldw	r2,24(r2)
 1424138:	10c00044 	addi	r3,r2,1
 142413c:	e0bffe17 	ldw	r2,-8(fp)
 1424140:	10c00615 	stw	r3,24(r2)
 1424144:	e0bffe17 	ldw	r2,-8(fp)
 1424148:	10800617 	ldw	r2,24(r2)
 142414c:	10c00044 	addi	r3,r2,1
 1424150:	e0bffe17 	ldw	r2,-8(fp)
 1424154:	10c00615 	stw	r3,24(r2)
 1424158:	e0bffe17 	ldw	r2,-8(fp)
 142415c:	10800617 	ldw	r2,24(r2)
 1424160:	10800003 	ldbu	r2,0(r2)
 1424164:	10803fcc 	andi	r2,r2,255
 1424168:	1080201c 	xori	r2,r2,128
 142416c:	10bfe004 	addi	r2,r2,-128
 1424170:	10bff404 	addi	r2,r2,-48
 1424174:	e0bffc15 	stw	r2,-16(fp)
 1424178:	e0bffe17 	ldw	r2,-8(fp)
 142417c:	10800617 	ldw	r2,24(r2)
 1424180:	10c00044 	addi	r3,r2,1
 1424184:	e0bffe17 	ldw	r2,-8(fp)
 1424188:	10c00615 	stw	r3,24(r2)
 142418c:	e0bffe17 	ldw	r2,-8(fp)
 1424190:	e0fffc17 	ldw	r3,-16(fp)
 1424194:	10c00115 	stw	r3,4(r2)
 1424198:	e0bffe17 	ldw	r2,-8(fp)
 142419c:	10800617 	ldw	r2,24(r2)
 14241a0:	10c00044 	addi	r3,r2,1
 14241a4:	e0bffe17 	ldw	r2,-8(fp)
 14241a8:	10c00615 	stw	r3,24(r2)
 14241ac:	e0bffe17 	ldw	r2,-8(fp)
 14241b0:	10800617 	ldw	r2,24(r2)
 14241b4:	10800003 	ldbu	r2,0(r2)
 14241b8:	10803fcc 	andi	r2,r2,255
 14241bc:	1080201c 	xori	r2,r2,128
 14241c0:	10bfe004 	addi	r2,r2,-128
 14241c4:	10801898 	cmpnei	r2,r2,98
 14241c8:	1000311e 	bne	r2,zero,1424290 <_ZN5Rtttl12parse_headerEPc+0x2e4>
 14241cc:	e0bffe17 	ldw	r2,-8(fp)
 14241d0:	10800617 	ldw	r2,24(r2)
 14241d4:	10c00044 	addi	r3,r2,1
 14241d8:	e0bffe17 	ldw	r2,-8(fp)
 14241dc:	10c00615 	stw	r3,24(r2)
 14241e0:	e0bffe17 	ldw	r2,-8(fp)
 14241e4:	10800617 	ldw	r2,24(r2)
 14241e8:	10c00044 	addi	r3,r2,1
 14241ec:	e0bffe17 	ldw	r2,-8(fp)
 14241f0:	10c00615 	stw	r3,24(r2)
 14241f4:	e03ffc15 	stw	zero,-16(fp)
 14241f8:	e0bffe17 	ldw	r2,-8(fp)
 14241fc:	10800617 	ldw	r2,24(r2)
 1424200:	10800003 	ldbu	r2,0(r2)
 1424204:	10803fcc 	andi	r2,r2,255
 1424208:	1080201c 	xori	r2,r2,128
 142420c:	10bfe004 	addi	r2,r2,-128
 1424210:	100b883a 	mov	r5,r2
 1424214:	e13ffe17 	ldw	r4,-8(fp)
 1424218:	14247480 	call	1424748 <_ZN5Rtttl8is_digitEc>
 142421c:	1004c03a 	cmpne	r2,r2,zero
 1424220:	10803fcc 	andi	r2,r2,255
 1424224:	10001326 	beq	r2,zero,1424274 <_ZN5Rtttl12parse_headerEPc+0x2c8>
 1424228:	01400284 	movi	r5,10
 142422c:	e13ffc17 	ldw	r4,-16(fp)
 1424230:	14288940 	call	1428894 <__mulsi3>
 1424234:	1007883a 	mov	r3,r2
 1424238:	e0bffe17 	ldw	r2,-8(fp)
 142423c:	10800617 	ldw	r2,24(r2)
 1424240:	10800003 	ldbu	r2,0(r2)
 1424244:	10803fcc 	andi	r2,r2,255
 1424248:	1080201c 	xori	r2,r2,128
 142424c:	10bfe004 	addi	r2,r2,-128
 1424250:	10bff404 	addi	r2,r2,-48
 1424254:	1885883a 	add	r2,r3,r2
 1424258:	e0bffc15 	stw	r2,-16(fp)
 142425c:	e0bffe17 	ldw	r2,-8(fp)
 1424260:	10800617 	ldw	r2,24(r2)
 1424264:	10c00044 	addi	r3,r2,1
 1424268:	e0bffe17 	ldw	r2,-8(fp)
 142426c:	10c00615 	stw	r3,24(r2)
 1424270:	003fe106 	br	14241f8 <__alt_data_end+0xfffe41f8>
 1424274:	e0bffc17 	ldw	r2,-16(fp)
 1424278:	e0bffd15 	stw	r2,-12(fp)
 142427c:	e0bffe17 	ldw	r2,-8(fp)
 1424280:	10800617 	ldw	r2,24(r2)
 1424284:	10c00044 	addi	r3,r2,1
 1424288:	e0bffe17 	ldw	r2,-8(fp)
 142428c:	10c00615 	stw	r3,24(r2)
 1424290:	e17ffd17 	ldw	r5,-12(fp)
 1424294:	013a9814 	movui	r4,60000
 1424298:	14286e00 	call	14286e0 <__divsi3>
 142429c:	1085883a 	add	r2,r2,r2
 14242a0:	1085883a 	add	r2,r2,r2
 14242a4:	1007883a 	mov	r3,r2
 14242a8:	e0bffe17 	ldw	r2,-8(fp)
 14242ac:	10c00215 	stw	r3,8(r2)
 14242b0:	e0bffe17 	ldw	r2,-8(fp)
 14242b4:	10c00617 	ldw	r3,24(r2)
 14242b8:	e0bffe17 	ldw	r2,-8(fp)
 14242bc:	10c00715 	stw	r3,28(r2)
 14242c0:	0001883a 	nop
 14242c4:	e037883a 	mov	sp,fp
 14242c8:	dfc00117 	ldw	ra,4(sp)
 14242cc:	df000017 	ldw	fp,0(sp)
 14242d0:	dec00204 	addi	sp,sp,8
 14242d4:	f800283a 	ret

014242d8 <_ZN5Rtttl15parse_next_noteEv>:
 14242d8:	defffc04 	addi	sp,sp,-16
 14242dc:	dfc00315 	stw	ra,12(sp)
 14242e0:	df000215 	stw	fp,8(sp)
 14242e4:	df000204 	addi	fp,sp,8
 14242e8:	e13fff15 	stw	r4,-4(fp)
 14242ec:	e03ffe15 	stw	zero,-8(fp)
 14242f0:	e0bfff17 	ldw	r2,-4(fp)
 14242f4:	10800617 	ldw	r2,24(r2)
 14242f8:	1000021e 	bne	r2,zero,1424304 <_ZN5Rtttl15parse_next_noteEv+0x2c>
 14242fc:	00bfffc4 	movi	r2,-1
 1424300:	0000d106 	br	1424648 <_ZN5Rtttl15parse_next_noteEv+0x370>
 1424304:	e03ffe15 	stw	zero,-8(fp)
 1424308:	e0bfff17 	ldw	r2,-4(fp)
 142430c:	10800617 	ldw	r2,24(r2)
 1424310:	10800003 	ldbu	r2,0(r2)
 1424314:	10803fcc 	andi	r2,r2,255
 1424318:	1080201c 	xori	r2,r2,128
 142431c:	10bfe004 	addi	r2,r2,-128
 1424320:	100b883a 	mov	r5,r2
 1424324:	e13fff17 	ldw	r4,-4(fp)
 1424328:	14247480 	call	1424748 <_ZN5Rtttl8is_digitEc>
 142432c:	1004c03a 	cmpne	r2,r2,zero
 1424330:	10803fcc 	andi	r2,r2,255
 1424334:	10001326 	beq	r2,zero,1424384 <_ZN5Rtttl15parse_next_noteEv+0xac>
 1424338:	01400284 	movi	r5,10
 142433c:	e13ffe17 	ldw	r4,-8(fp)
 1424340:	14288940 	call	1428894 <__mulsi3>
 1424344:	1007883a 	mov	r3,r2
 1424348:	e0bfff17 	ldw	r2,-4(fp)
 142434c:	10800617 	ldw	r2,24(r2)
 1424350:	10800003 	ldbu	r2,0(r2)
 1424354:	10803fcc 	andi	r2,r2,255
 1424358:	1080201c 	xori	r2,r2,128
 142435c:	10bfe004 	addi	r2,r2,-128
 1424360:	10bff404 	addi	r2,r2,-48
 1424364:	1885883a 	add	r2,r3,r2
 1424368:	e0bffe15 	stw	r2,-8(fp)
 142436c:	e0bfff17 	ldw	r2,-4(fp)
 1424370:	10800617 	ldw	r2,24(r2)
 1424374:	10c00044 	addi	r3,r2,1
 1424378:	e0bfff17 	ldw	r2,-4(fp)
 142437c:	10c00615 	stw	r3,24(r2)
 1424380:	003fe106 	br	1424308 <__alt_data_end+0xfffe4308>
 1424384:	e0bffe17 	ldw	r2,-8(fp)
 1424388:	0080090e 	bge	zero,r2,14243b0 <_ZN5Rtttl15parse_next_noteEv+0xd8>
 142438c:	e0bfff17 	ldw	r2,-4(fp)
 1424390:	10800217 	ldw	r2,8(r2)
 1424394:	e17ffe17 	ldw	r5,-8(fp)
 1424398:	1009883a 	mov	r4,r2
 142439c:	14286e00 	call	14286e0 <__divsi3>
 14243a0:	1007883a 	mov	r3,r2
 14243a4:	e0bfff17 	ldw	r2,-4(fp)
 14243a8:	10c00515 	stw	r3,20(r2)
 14243ac:	00000a06 	br	14243d8 <_ZN5Rtttl15parse_next_noteEv+0x100>
 14243b0:	e0bfff17 	ldw	r2,-4(fp)
 14243b4:	10c00217 	ldw	r3,8(r2)
 14243b8:	e0bfff17 	ldw	r2,-4(fp)
 14243bc:	10800017 	ldw	r2,0(r2)
 14243c0:	100b883a 	mov	r5,r2
 14243c4:	1809883a 	mov	r4,r3
 14243c8:	14286e00 	call	14286e0 <__divsi3>
 14243cc:	1007883a 	mov	r3,r2
 14243d0:	e0bfff17 	ldw	r2,-4(fp)
 14243d4:	10c00515 	stw	r3,20(r2)
 14243d8:	e0bfff17 	ldw	r2,-4(fp)
 14243dc:	10800617 	ldw	r2,24(r2)
 14243e0:	10800003 	ldbu	r2,0(r2)
 14243e4:	10803fcc 	andi	r2,r2,255
 14243e8:	1080201c 	xori	r2,r2,128
 14243ec:	10bfe004 	addi	r2,r2,-128
 14243f0:	10bfe7c4 	addi	r2,r2,-97
 14243f4:	10c00428 	cmpgeui	r3,r2,16
 14243f8:	1800351e 	bne	r3,zero,14244d0 <_ZN5Rtttl15parse_next_noteEv+0x1f8>
 14243fc:	100690ba 	slli	r3,r2,2
 1424400:	008050b4 	movhi	r2,322
 1424404:	10910504 	addi	r2,r2,17428
 1424408:	1885883a 	add	r2,r3,r2
 142440c:	10800017 	ldw	r2,0(r2)
 1424410:	1000683a 	jmp	r2
 1424414:	014244a0 	cmpeqi	r5,zero,2322
 1424418:	014244b0 	cmpltui	r5,zero,2322
 142441c:	01424454 	movui	r5,2321
 1424420:	01424460 	cmpeqi	r5,zero,2321
 1424424:	01424470 	cmpltui	r5,zero,2321
 1424428:	01424480 	call	142448 <__alt_mem_onchip_flash_0_data-0x10bdbb8>
 142442c:	01424490 	cmplti	r5,zero,2322
 1424430:	014244d0 	cmplti	r5,zero,2323
 1424434:	014244d0 	cmplti	r5,zero,2323
 1424438:	014244d0 	cmplti	r5,zero,2323
 142443c:	014244d0 	cmplti	r5,zero,2323
 1424440:	014244d0 	cmplti	r5,zero,2323
 1424444:	014244d0 	cmplti	r5,zero,2323
 1424448:	014244d0 	cmplti	r5,zero,2323
 142444c:	014244d0 	cmplti	r5,zero,2323
 1424450:	014244c0 	call	14244c <__alt_mem_onchip_flash_0_data-0x10bdbb4>
 1424454:	e0bfff17 	ldw	r2,-4(fp)
 1424458:	10000415 	stw	zero,16(r2)
 142445c:	00001f06 	br	14244dc <_ZN5Rtttl15parse_next_noteEv+0x204>
 1424460:	e0bfff17 	ldw	r2,-4(fp)
 1424464:	00c00084 	movi	r3,2
 1424468:	10c00415 	stw	r3,16(r2)
 142446c:	00001b06 	br	14244dc <_ZN5Rtttl15parse_next_noteEv+0x204>
 1424470:	e0bfff17 	ldw	r2,-4(fp)
 1424474:	00c00104 	movi	r3,4
 1424478:	10c00415 	stw	r3,16(r2)
 142447c:	00001706 	br	14244dc <_ZN5Rtttl15parse_next_noteEv+0x204>
 1424480:	e0bfff17 	ldw	r2,-4(fp)
 1424484:	00c00144 	movi	r3,5
 1424488:	10c00415 	stw	r3,16(r2)
 142448c:	00001306 	br	14244dc <_ZN5Rtttl15parse_next_noteEv+0x204>
 1424490:	e0bfff17 	ldw	r2,-4(fp)
 1424494:	00c001c4 	movi	r3,7
 1424498:	10c00415 	stw	r3,16(r2)
 142449c:	00000f06 	br	14244dc <_ZN5Rtttl15parse_next_noteEv+0x204>
 14244a0:	e0bfff17 	ldw	r2,-4(fp)
 14244a4:	00c00244 	movi	r3,9
 14244a8:	10c00415 	stw	r3,16(r2)
 14244ac:	00000b06 	br	14244dc <_ZN5Rtttl15parse_next_noteEv+0x204>
 14244b0:	e0bfff17 	ldw	r2,-4(fp)
 14244b4:	00c002c4 	movi	r3,11
 14244b8:	10c00415 	stw	r3,16(r2)
 14244bc:	00000706 	br	14244dc <_ZN5Rtttl15parse_next_noteEv+0x204>
 14244c0:	e0bfff17 	ldw	r2,-4(fp)
 14244c4:	00ffffc4 	movi	r3,-1
 14244c8:	10c00415 	stw	r3,16(r2)
 14244cc:	00000306 	br	14244dc <_ZN5Rtttl15parse_next_noteEv+0x204>
 14244d0:	e0bfff17 	ldw	r2,-4(fp)
 14244d4:	00ffffc4 	movi	r3,-1
 14244d8:	10c00415 	stw	r3,16(r2)
 14244dc:	e0bfff17 	ldw	r2,-4(fp)
 14244e0:	10800617 	ldw	r2,24(r2)
 14244e4:	10c00044 	addi	r3,r2,1
 14244e8:	e0bfff17 	ldw	r2,-4(fp)
 14244ec:	10c00615 	stw	r3,24(r2)
 14244f0:	e0bfff17 	ldw	r2,-4(fp)
 14244f4:	10800617 	ldw	r2,24(r2)
 14244f8:	10800003 	ldbu	r2,0(r2)
 14244fc:	10803fcc 	andi	r2,r2,255
 1424500:	1080201c 	xori	r2,r2,128
 1424504:	10bfe004 	addi	r2,r2,-128
 1424508:	108008d8 	cmpnei	r2,r2,35
 142450c:	10000a1e 	bne	r2,zero,1424538 <_ZN5Rtttl15parse_next_noteEv+0x260>
 1424510:	e0bfff17 	ldw	r2,-4(fp)
 1424514:	10800417 	ldw	r2,16(r2)
 1424518:	10c00044 	addi	r3,r2,1
 142451c:	e0bfff17 	ldw	r2,-4(fp)
 1424520:	10c00415 	stw	r3,16(r2)
 1424524:	e0bfff17 	ldw	r2,-4(fp)
 1424528:	10800617 	ldw	r2,24(r2)
 142452c:	10c00044 	addi	r3,r2,1
 1424530:	e0bfff17 	ldw	r2,-4(fp)
 1424534:	10c00615 	stw	r3,24(r2)
 1424538:	e0bfff17 	ldw	r2,-4(fp)
 142453c:	10800617 	ldw	r2,24(r2)
 1424540:	10800003 	ldbu	r2,0(r2)
 1424544:	10803fcc 	andi	r2,r2,255
 1424548:	1080201c 	xori	r2,r2,128
 142454c:	10bfe004 	addi	r2,r2,-128
 1424550:	10800b98 	cmpnei	r2,r2,46
 1424554:	10000f1e 	bne	r2,zero,1424594 <_ZN5Rtttl15parse_next_noteEv+0x2bc>
 1424558:	e0bfff17 	ldw	r2,-4(fp)
 142455c:	10c00517 	ldw	r3,20(r2)
 1424560:	e0bfff17 	ldw	r2,-4(fp)
 1424564:	10800517 	ldw	r2,20(r2)
 1424568:	1008d7fa 	srli	r4,r2,31
 142456c:	2085883a 	add	r2,r4,r2
 1424570:	1005d07a 	srai	r2,r2,1
 1424574:	1887883a 	add	r3,r3,r2
 1424578:	e0bfff17 	ldw	r2,-4(fp)
 142457c:	10c00515 	stw	r3,20(r2)
 1424580:	e0bfff17 	ldw	r2,-4(fp)
 1424584:	10800617 	ldw	r2,24(r2)
 1424588:	10c00044 	addi	r3,r2,1
 142458c:	e0bfff17 	ldw	r2,-4(fp)
 1424590:	10c00615 	stw	r3,24(r2)
 1424594:	e0bfff17 	ldw	r2,-4(fp)
 1424598:	10800617 	ldw	r2,24(r2)
 142459c:	10800003 	ldbu	r2,0(r2)
 14245a0:	10803fcc 	andi	r2,r2,255
 14245a4:	1080201c 	xori	r2,r2,128
 14245a8:	10bfe004 	addi	r2,r2,-128
 14245ac:	100b883a 	mov	r5,r2
 14245b0:	e13fff17 	ldw	r4,-4(fp)
 14245b4:	14247480 	call	1424748 <_ZN5Rtttl8is_digitEc>
 14245b8:	1004c03a 	cmpne	r2,r2,zero
 14245bc:	10803fcc 	andi	r2,r2,255
 14245c0:	10000f26 	beq	r2,zero,1424600 <_ZN5Rtttl15parse_next_noteEv+0x328>
 14245c4:	e0bfff17 	ldw	r2,-4(fp)
 14245c8:	10800617 	ldw	r2,24(r2)
 14245cc:	10800003 	ldbu	r2,0(r2)
 14245d0:	10803fcc 	andi	r2,r2,255
 14245d4:	1080201c 	xori	r2,r2,128
 14245d8:	10bfe004 	addi	r2,r2,-128
 14245dc:	10fff404 	addi	r3,r2,-48
 14245e0:	e0bfff17 	ldw	r2,-4(fp)
 14245e4:	10c00315 	stw	r3,12(r2)
 14245e8:	e0bfff17 	ldw	r2,-4(fp)
 14245ec:	10800617 	ldw	r2,24(r2)
 14245f0:	10c00044 	addi	r3,r2,1
 14245f4:	e0bfff17 	ldw	r2,-4(fp)
 14245f8:	10c00615 	stw	r3,24(r2)
 14245fc:	00000406 	br	1424610 <_ZN5Rtttl15parse_next_noteEv+0x338>
 1424600:	e0bfff17 	ldw	r2,-4(fp)
 1424604:	10c00117 	ldw	r3,4(r2)
 1424608:	e0bfff17 	ldw	r2,-4(fp)
 142460c:	10c00315 	stw	r3,12(r2)
 1424610:	e0bfff17 	ldw	r2,-4(fp)
 1424614:	10800617 	ldw	r2,24(r2)
 1424618:	10800003 	ldbu	r2,0(r2)
 142461c:	10803fcc 	andi	r2,r2,255
 1424620:	1080201c 	xori	r2,r2,128
 1424624:	10bfe004 	addi	r2,r2,-128
 1424628:	10800b18 	cmpnei	r2,r2,44
 142462c:	1000051e 	bne	r2,zero,1424644 <_ZN5Rtttl15parse_next_noteEv+0x36c>
 1424630:	e0bfff17 	ldw	r2,-4(fp)
 1424634:	10800617 	ldw	r2,24(r2)
 1424638:	10c00044 	addi	r3,r2,1
 142463c:	e0bfff17 	ldw	r2,-4(fp)
 1424640:	10c00615 	stw	r3,24(r2)
 1424644:	0005883a 	mov	r2,zero
 1424648:	e037883a 	mov	sp,fp
 142464c:	dfc00117 	ldw	ra,4(sp)
 1424650:	df000017 	ldw	fp,0(sp)
 1424654:	dec00204 	addi	sp,sp,8
 1424658:	f800283a 	ret

0142465c <_ZN5Rtttl8read_octEv>:
 142465c:	defffe04 	addi	sp,sp,-8
 1424660:	df000115 	stw	fp,4(sp)
 1424664:	df000104 	addi	fp,sp,4
 1424668:	e13fff15 	stw	r4,-4(fp)
 142466c:	e0bfff17 	ldw	r2,-4(fp)
 1424670:	10800317 	ldw	r2,12(r2)
 1424674:	e037883a 	mov	sp,fp
 1424678:	df000017 	ldw	fp,0(sp)
 142467c:	dec00104 	addi	sp,sp,4
 1424680:	f800283a 	ret

01424684 <_ZN5Rtttl9read_noteEv>:
 1424684:	defffe04 	addi	sp,sp,-8
 1424688:	df000115 	stw	fp,4(sp)
 142468c:	df000104 	addi	fp,sp,4
 1424690:	e13fff15 	stw	r4,-4(fp)
 1424694:	e0bfff17 	ldw	r2,-4(fp)
 1424698:	10800417 	ldw	r2,16(r2)
 142469c:	e037883a 	mov	sp,fp
 14246a0:	df000017 	ldw	fp,0(sp)
 14246a4:	dec00104 	addi	sp,sp,4
 14246a8:	f800283a 	ret

014246ac <_ZN5Rtttl13read_intervalEv>:
 14246ac:	defffe04 	addi	sp,sp,-8
 14246b0:	df000115 	stw	fp,4(sp)
 14246b4:	df000104 	addi	fp,sp,4
 14246b8:	e13fff15 	stw	r4,-4(fp)
 14246bc:	e0bfff17 	ldw	r2,-4(fp)
 14246c0:	10800517 	ldw	r2,20(r2)
 14246c4:	e037883a 	mov	sp,fp
 14246c8:	df000017 	ldw	fp,0(sp)
 14246cc:	dec00104 	addi	sp,sp,4
 14246d0:	f800283a 	ret

014246d4 <_ZN5Rtttl6is_endEv>:
 14246d4:	defffe04 	addi	sp,sp,-8
 14246d8:	df000115 	stw	fp,4(sp)
 14246dc:	df000104 	addi	fp,sp,4
 14246e0:	e13fff15 	stw	r4,-4(fp)
 14246e4:	e0bfff17 	ldw	r2,-4(fp)
 14246e8:	10800617 	ldw	r2,24(r2)
 14246ec:	10800003 	ldbu	r2,0(r2)
 14246f0:	10803fcc 	andi	r2,r2,255
 14246f4:	1080201c 	xori	r2,r2,128
 14246f8:	10bfe004 	addi	r2,r2,-128
 14246fc:	1005003a 	cmpeq	r2,r2,zero
 1424700:	10803fcc 	andi	r2,r2,255
 1424704:	e037883a 	mov	sp,fp
 1424708:	df000017 	ldw	fp,0(sp)
 142470c:	dec00104 	addi	sp,sp,4
 1424710:	f800283a 	ret

01424714 <_ZN5Rtttl6rewindEv>:
 1424714:	defffe04 	addi	sp,sp,-8
 1424718:	df000115 	stw	fp,4(sp)
 142471c:	df000104 	addi	fp,sp,4
 1424720:	e13fff15 	stw	r4,-4(fp)
 1424724:	e0bfff17 	ldw	r2,-4(fp)
 1424728:	10c00717 	ldw	r3,28(r2)
 142472c:	e0bfff17 	ldw	r2,-4(fp)
 1424730:	10c00615 	stw	r3,24(r2)
 1424734:	0001883a 	nop
 1424738:	e037883a 	mov	sp,fp
 142473c:	df000017 	ldw	fp,0(sp)
 1424740:	dec00104 	addi	sp,sp,4
 1424744:	f800283a 	ret

01424748 <_ZN5Rtttl8is_digitEc>:
 1424748:	defffd04 	addi	sp,sp,-12
 142474c:	df000215 	stw	fp,8(sp)
 1424750:	df000204 	addi	fp,sp,8
 1424754:	e13ffe15 	stw	r4,-8(fp)
 1424758:	2805883a 	mov	r2,r5
 142475c:	e0bfff05 	stb	r2,-4(fp)
 1424760:	e0bfff07 	ldb	r2,-4(fp)
 1424764:	10800c10 	cmplti	r2,r2,48
 1424768:	1000051e 	bne	r2,zero,1424780 <_ZN5Rtttl8is_digitEc+0x38>
 142476c:	e0bfff07 	ldb	r2,-4(fp)
 1424770:	10800e88 	cmpgei	r2,r2,58
 1424774:	1000021e 	bne	r2,zero,1424780 <_ZN5Rtttl8is_digitEc+0x38>
 1424778:	00800044 	movi	r2,1
 142477c:	00000106 	br	1424784 <_ZN5Rtttl8is_digitEc+0x3c>
 1424780:	0005883a 	mov	r2,zero
 1424784:	e037883a 	mov	sp,fp
 1424788:	df000017 	ldw	fp,0(sp)
 142478c:	dec00104 	addi	sp,sp,4
 1424790:	f800283a 	ret

01424794 <_ZN8SsegCoreC1Emi>:
 1424794:	defff904 	addi	sp,sp,-28
 1424798:	dfc00615 	stw	ra,24(sp)
 142479c:	df000515 	stw	fp,20(sp)
 14247a0:	df000504 	addi	fp,sp,20
 14247a4:	e13ffd15 	stw	r4,-12(fp)
 14247a8:	e17ffe15 	stw	r5,-8(fp)
 14247ac:	e1bfff15 	stw	r6,-4(fp)
 14247b0:	00bfffc4 	movi	r2,-1
 14247b4:	e0bffb05 	stb	r2,-20(fp)
 14247b8:	00bffe44 	movi	r2,-7
 14247bc:	e0bffb45 	stb	r2,-19(fp)
 14247c0:	00bfe244 	movi	r2,-119
 14247c4:	e0bffb85 	stb	r2,-18(fp)
 14247c8:	00bfffc4 	movi	r2,-1
 14247cc:	e0bffbc5 	stb	r2,-17(fp)
 14247d0:	00bfffc4 	movi	r2,-1
 14247d4:	e0bffc05 	stb	r2,-16(fp)
 14247d8:	00bfffc4 	movi	r2,-1
 14247dc:	e0bffc45 	stb	r2,-15(fp)
 14247e0:	00bfffc4 	movi	r2,-1
 14247e4:	e0bffc85 	stb	r2,-14(fp)
 14247e8:	00bfffc4 	movi	r2,-1
 14247ec:	e0bffcc5 	stb	r2,-13(fp)
 14247f0:	e0bffd17 	ldw	r2,-12(fp)
 14247f4:	e0fffe17 	ldw	r3,-8(fp)
 14247f8:	10c00015 	stw	r3,0(r2)
 14247fc:	e0bfff17 	ldw	r2,-4(fp)
 1424800:	1007883a 	mov	r3,r2
 1424804:	e0bffd17 	ldw	r2,-12(fp)
 1424808:	10c00345 	stb	r3,13(r2)
 142480c:	e17ffb04 	addi	r5,fp,-20
 1424810:	e13ffd17 	ldw	r4,-12(fp)
 1424814:	1424a7c0 	call	1424a7c <_ZN8SsegCore10write_8ptnEPh>
 1424818:	01400084 	movi	r5,2
 142481c:	e13ffd17 	ldw	r4,-12(fp)
 1424820:	1424b540 	call	1424b54 <_ZN8SsegCore6set_dpEh>
 1424824:	01402004 	movi	r5,128
 1424828:	e13ffd17 	ldw	r4,-12(fp)
 142482c:	1424ba40 	call	1424ba4 <_ZN8SsegCore14set_brightnessEh>
 1424830:	0001883a 	nop
 1424834:	e037883a 	mov	sp,fp
 1424838:	dfc00117 	ldw	ra,4(sp)
 142483c:	df000017 	ldw	fp,0(sp)
 1424840:	dec00204 	addi	sp,sp,8
 1424844:	f800283a 	ret

01424848 <_ZN8SsegCoreD1Ev>:
 1424848:	defffe04 	addi	sp,sp,-8
 142484c:	df000115 	stw	fp,4(sp)
 1424850:	df000104 	addi	fp,sp,4
 1424854:	e13fff15 	stw	r4,-4(fp)
 1424858:	0001883a 	nop
 142485c:	e037883a 	mov	sp,fp
 1424860:	df000017 	ldw	fp,0(sp)
 1424864:	dec00104 	addi	sp,sp,4
 1424868:	f800283a 	ret

0142486c <_ZN8SsegCore9write_ledEv>:
 142486c:	defffb04 	addi	sp,sp,-20
 1424870:	df000415 	stw	fp,16(sp)
 1424874:	df000404 	addi	fp,sp,16
 1424878:	e13fff15 	stw	r4,-4(fp)
 142487c:	e03ffd15 	stw	zero,-12(fp)
 1424880:	e03ffc15 	stw	zero,-16(fp)
 1424884:	e0bffc17 	ldw	r2,-16(fp)
 1424888:	10800108 	cmpgei	r2,r2,4
 142488c:	1000101e 	bne	r2,zero,14248d0 <_ZN8SsegCore9write_ledEv+0x64>
 1424890:	e0bffd17 	ldw	r2,-12(fp)
 1424894:	1006923a 	slli	r3,r2,8
 1424898:	010000c4 	movi	r4,3
 142489c:	e0bffc17 	ldw	r2,-16(fp)
 14248a0:	2085c83a 	sub	r2,r4,r2
 14248a4:	e13fff17 	ldw	r4,-4(fp)
 14248a8:	2085883a 	add	r2,r4,r2
 14248ac:	10800104 	addi	r2,r2,4
 14248b0:	10800003 	ldbu	r2,0(r2)
 14248b4:	10803fcc 	andi	r2,r2,255
 14248b8:	1884b03a 	or	r2,r3,r2
 14248bc:	e0bffd15 	stw	r2,-12(fp)
 14248c0:	e0bffc17 	ldw	r2,-16(fp)
 14248c4:	10800044 	addi	r2,r2,1
 14248c8:	e0bffc15 	stw	r2,-16(fp)
 14248cc:	003fed06 	br	1424884 <__alt_data_end+0xfffe4884>
 14248d0:	e03ffc15 	stw	zero,-16(fp)
 14248d4:	e0bffc17 	ldw	r2,-16(fp)
 14248d8:	10800108 	cmpgei	r2,r2,4
 14248dc:	10001f1e 	bne	r2,zero,142495c <_ZN8SsegCore9write_ledEv+0xf0>
 14248e0:	e0bfff17 	ldw	r2,-4(fp)
 14248e4:	10800303 	ldbu	r2,12(r2)
 14248e8:	10c03fcc 	andi	r3,r2,255
 14248ec:	e0bffc17 	ldw	r2,-16(fp)
 14248f0:	1885d83a 	sra	r2,r3,r2
 14248f4:	1080004c 	andi	r2,r2,1
 14248f8:	e0bffe15 	stw	r2,-8(fp)
 14248fc:	e0bffe17 	ldw	r2,-8(fp)
 1424900:	10000926 	beq	r2,zero,1424928 <_ZN8SsegCore9write_ledEv+0xbc>
 1424904:	e0bffc17 	ldw	r2,-16(fp)
 1424908:	100490fa 	slli	r2,r2,3
 142490c:	108001c4 	addi	r2,r2,7
 1424910:	00c00044 	movi	r3,1
 1424914:	1884983a 	sll	r2,r3,r2
 1424918:	e0fffd17 	ldw	r3,-12(fp)
 142491c:	1884b03a 	or	r2,r3,r2
 1424920:	e0bffd15 	stw	r2,-12(fp)
 1424924:	00000906 	br	142494c <_ZN8SsegCore9write_ledEv+0xe0>
 1424928:	e0bffc17 	ldw	r2,-16(fp)
 142492c:	100490fa 	slli	r2,r2,3
 1424930:	108001c4 	addi	r2,r2,7
 1424934:	00c00044 	movi	r3,1
 1424938:	1884983a 	sll	r2,r3,r2
 142493c:	0084303a 	nor	r2,zero,r2
 1424940:	e0fffd17 	ldw	r3,-12(fp)
 1424944:	1884703a 	and	r2,r3,r2
 1424948:	e0bffd15 	stw	r2,-12(fp)
 142494c:	e0bffc17 	ldw	r2,-16(fp)
 1424950:	10800044 	addi	r2,r2,1
 1424954:	e0bffc15 	stw	r2,-16(fp)
 1424958:	003fde06 	br	14248d4 <__alt_data_end+0xfffe48d4>
 142495c:	e0bfff17 	ldw	r2,-4(fp)
 1424960:	10800017 	ldw	r2,0(r2)
 1424964:	1007883a 	mov	r3,r2
 1424968:	e0bffd17 	ldw	r2,-12(fp)
 142496c:	18800015 	stw	r2,0(r3)
 1424970:	e03ffc15 	stw	zero,-16(fp)
 1424974:	e0bffc17 	ldw	r2,-16(fp)
 1424978:	10800108 	cmpgei	r2,r2,4
 142497c:	1000101e 	bne	r2,zero,14249c0 <_ZN8SsegCore9write_ledEv+0x154>
 1424980:	e0bffd17 	ldw	r2,-12(fp)
 1424984:	1006923a 	slli	r3,r2,8
 1424988:	010001c4 	movi	r4,7
 142498c:	e0bffc17 	ldw	r2,-16(fp)
 1424990:	2085c83a 	sub	r2,r4,r2
 1424994:	e13fff17 	ldw	r4,-4(fp)
 1424998:	2085883a 	add	r2,r4,r2
 142499c:	10800104 	addi	r2,r2,4
 14249a0:	10800003 	ldbu	r2,0(r2)
 14249a4:	10803fcc 	andi	r2,r2,255
 14249a8:	1884b03a 	or	r2,r3,r2
 14249ac:	e0bffd15 	stw	r2,-12(fp)
 14249b0:	e0bffc17 	ldw	r2,-16(fp)
 14249b4:	10800044 	addi	r2,r2,1
 14249b8:	e0bffc15 	stw	r2,-16(fp)
 14249bc:	003fed06 	br	1424974 <__alt_data_end+0xfffe4974>
 14249c0:	e03ffc15 	stw	zero,-16(fp)
 14249c4:	e0bffc17 	ldw	r2,-16(fp)
 14249c8:	10800108 	cmpgei	r2,r2,4
 14249cc:	1000201e 	bne	r2,zero,1424a50 <_ZN8SsegCore9write_ledEv+0x1e4>
 14249d0:	e0bfff17 	ldw	r2,-4(fp)
 14249d4:	10800303 	ldbu	r2,12(r2)
 14249d8:	10c03fcc 	andi	r3,r2,255
 14249dc:	e0bffc17 	ldw	r2,-16(fp)
 14249e0:	10800104 	addi	r2,r2,4
 14249e4:	1885d83a 	sra	r2,r3,r2
 14249e8:	1080004c 	andi	r2,r2,1
 14249ec:	e0bffe15 	stw	r2,-8(fp)
 14249f0:	e0bffe17 	ldw	r2,-8(fp)
 14249f4:	10000926 	beq	r2,zero,1424a1c <_ZN8SsegCore9write_ledEv+0x1b0>
 14249f8:	e0bffc17 	ldw	r2,-16(fp)
 14249fc:	100490fa 	slli	r2,r2,3
 1424a00:	108001c4 	addi	r2,r2,7
 1424a04:	00c00044 	movi	r3,1
 1424a08:	1884983a 	sll	r2,r3,r2
 1424a0c:	e0fffd17 	ldw	r3,-12(fp)
 1424a10:	1884b03a 	or	r2,r3,r2
 1424a14:	e0bffd15 	stw	r2,-12(fp)
 1424a18:	00000906 	br	1424a40 <_ZN8SsegCore9write_ledEv+0x1d4>
 1424a1c:	e0bffc17 	ldw	r2,-16(fp)
 1424a20:	100490fa 	slli	r2,r2,3
 1424a24:	108001c4 	addi	r2,r2,7
 1424a28:	00c00044 	movi	r3,1
 1424a2c:	1884983a 	sll	r2,r3,r2
 1424a30:	0084303a 	nor	r2,zero,r2
 1424a34:	e0fffd17 	ldw	r3,-12(fp)
 1424a38:	1884703a 	and	r2,r3,r2
 1424a3c:	e0bffd15 	stw	r2,-12(fp)
 1424a40:	e0bffc17 	ldw	r2,-16(fp)
 1424a44:	10800044 	addi	r2,r2,1
 1424a48:	e0bffc15 	stw	r2,-16(fp)
 1424a4c:	003fdd06 	br	14249c4 <__alt_data_end+0xfffe49c4>
 1424a50:	e0bfff17 	ldw	r2,-4(fp)
 1424a54:	10800017 	ldw	r2,0(r2)
 1424a58:	10800104 	addi	r2,r2,4
 1424a5c:	1007883a 	mov	r3,r2
 1424a60:	e0bffd17 	ldw	r2,-12(fp)
 1424a64:	18800015 	stw	r2,0(r3)
 1424a68:	0001883a 	nop
 1424a6c:	e037883a 	mov	sp,fp
 1424a70:	df000017 	ldw	fp,0(sp)
 1424a74:	dec00104 	addi	sp,sp,4
 1424a78:	f800283a 	ret

01424a7c <_ZN8SsegCore10write_8ptnEPh>:
 1424a7c:	defffb04 	addi	sp,sp,-20
 1424a80:	dfc00415 	stw	ra,16(sp)
 1424a84:	df000315 	stw	fp,12(sp)
 1424a88:	df000304 	addi	fp,sp,12
 1424a8c:	e13ffe15 	stw	r4,-8(fp)
 1424a90:	e17fff15 	stw	r5,-4(fp)
 1424a94:	e03ffd15 	stw	zero,-12(fp)
 1424a98:	e0bffd17 	ldw	r2,-12(fp)
 1424a9c:	10800208 	cmpgei	r2,r2,8
 1424aa0:	10000e1e 	bne	r2,zero,1424adc <_ZN8SsegCore10write_8ptnEPh+0x60>
 1424aa4:	e0bfff17 	ldw	r2,-4(fp)
 1424aa8:	10c00003 	ldbu	r3,0(r2)
 1424aac:	e13ffe17 	ldw	r4,-8(fp)
 1424ab0:	e0bffd17 	ldw	r2,-12(fp)
 1424ab4:	2085883a 	add	r2,r4,r2
 1424ab8:	10800104 	addi	r2,r2,4
 1424abc:	10c00005 	stb	r3,0(r2)
 1424ac0:	e0bfff17 	ldw	r2,-4(fp)
 1424ac4:	10800044 	addi	r2,r2,1
 1424ac8:	e0bfff15 	stw	r2,-4(fp)
 1424acc:	e0bffd17 	ldw	r2,-12(fp)
 1424ad0:	10800044 	addi	r2,r2,1
 1424ad4:	e0bffd15 	stw	r2,-12(fp)
 1424ad8:	003fef06 	br	1424a98 <__alt_data_end+0xfffe4a98>
 1424adc:	e13ffe17 	ldw	r4,-8(fp)
 1424ae0:	142486c0 	call	142486c <_ZN8SsegCore9write_ledEv>
 1424ae4:	0001883a 	nop
 1424ae8:	e037883a 	mov	sp,fp
 1424aec:	dfc00117 	ldw	ra,4(sp)
 1424af0:	df000017 	ldw	fp,0(sp)
 1424af4:	dec00204 	addi	sp,sp,8
 1424af8:	f800283a 	ret

01424afc <_ZN8SsegCore10write_1ptnEhi>:
 1424afc:	defffb04 	addi	sp,sp,-20
 1424b00:	dfc00415 	stw	ra,16(sp)
 1424b04:	df000315 	stw	fp,12(sp)
 1424b08:	df000304 	addi	fp,sp,12
 1424b0c:	e13ffd15 	stw	r4,-12(fp)
 1424b10:	2805883a 	mov	r2,r5
 1424b14:	e1bfff15 	stw	r6,-4(fp)
 1424b18:	e0bffe05 	stb	r2,-8(fp)
 1424b1c:	e0fffd17 	ldw	r3,-12(fp)
 1424b20:	e0bfff17 	ldw	r2,-4(fp)
 1424b24:	1885883a 	add	r2,r3,r2
 1424b28:	10800104 	addi	r2,r2,4
 1424b2c:	e0fffe03 	ldbu	r3,-8(fp)
 1424b30:	10c00005 	stb	r3,0(r2)
 1424b34:	e13ffd17 	ldw	r4,-12(fp)
 1424b38:	142486c0 	call	142486c <_ZN8SsegCore9write_ledEv>
 1424b3c:	0001883a 	nop
 1424b40:	e037883a 	mov	sp,fp
 1424b44:	dfc00117 	ldw	ra,4(sp)
 1424b48:	df000017 	ldw	fp,0(sp)
 1424b4c:	dec00204 	addi	sp,sp,8
 1424b50:	f800283a 	ret

01424b54 <_ZN8SsegCore6set_dpEh>:
 1424b54:	defffc04 	addi	sp,sp,-16
 1424b58:	dfc00315 	stw	ra,12(sp)
 1424b5c:	df000215 	stw	fp,8(sp)
 1424b60:	df000204 	addi	fp,sp,8
 1424b64:	e13ffe15 	stw	r4,-8(fp)
 1424b68:	2805883a 	mov	r2,r5
 1424b6c:	e0bfff05 	stb	r2,-4(fp)
 1424b70:	e0bfff03 	ldbu	r2,-4(fp)
 1424b74:	0084303a 	nor	r2,zero,r2
 1424b78:	1007883a 	mov	r3,r2
 1424b7c:	e0bffe17 	ldw	r2,-8(fp)
 1424b80:	10c00305 	stb	r3,12(r2)
 1424b84:	e13ffe17 	ldw	r4,-8(fp)
 1424b88:	142486c0 	call	142486c <_ZN8SsegCore9write_ledEv>
 1424b8c:	0001883a 	nop
 1424b90:	e037883a 	mov	sp,fp
 1424b94:	dfc00117 	ldw	ra,4(sp)
 1424b98:	df000017 	ldw	fp,0(sp)
 1424b9c:	dec00204 	addi	sp,sp,8
 1424ba0:	f800283a 	ret

01424ba4 <_ZN8SsegCore14set_brightnessEh>:
 1424ba4:	defffd04 	addi	sp,sp,-12
 1424ba8:	df000215 	stw	fp,8(sp)
 1424bac:	df000204 	addi	fp,sp,8
 1424bb0:	e13ffe15 	stw	r4,-8(fp)
 1424bb4:	2805883a 	mov	r2,r5
 1424bb8:	e0bfff05 	stb	r2,-4(fp)
 1424bbc:	e0bffe17 	ldw	r2,-8(fp)
 1424bc0:	10800017 	ldw	r2,0(r2)
 1424bc4:	10800204 	addi	r2,r2,8
 1424bc8:	1007883a 	mov	r3,r2
 1424bcc:	e0bfff03 	ldbu	r2,-4(fp)
 1424bd0:	18800015 	stw	r2,0(r3)
 1424bd4:	0001883a 	nop
 1424bd8:	e037883a 	mov	sp,fp
 1424bdc:	df000017 	ldw	fp,0(sp)
 1424be0:	dec00104 	addi	sp,sp,4
 1424be4:	f800283a 	ret

01424be8 <_ZN8SsegCore3h2sEi>:
 1424be8:	defffc04 	addi	sp,sp,-16
 1424bec:	df000315 	stw	fp,12(sp)
 1424bf0:	df000304 	addi	fp,sp,12
 1424bf4:	e13ffe15 	stw	r4,-8(fp)
 1424bf8:	e17fff15 	stw	r5,-4(fp)
 1424bfc:	e0bfff17 	ldw	r2,-4(fp)
 1424c00:	10800408 	cmpgei	r2,r2,16
 1424c04:	1000071e 	bne	r2,zero,1424c24 <_ZN8SsegCore3h2sEi+0x3c>
 1424c08:	008050f4 	movhi	r2,323
 1424c0c:	10b733c4 	addi	r2,r2,-9009
 1424c10:	e0ffff17 	ldw	r3,-4(fp)
 1424c14:	10c5883a 	add	r2,r2,r3
 1424c18:	10800003 	ldbu	r2,0(r2)
 1424c1c:	e0bffd05 	stb	r2,-12(fp)
 1424c20:	00000206 	br	1424c2c <_ZN8SsegCore3h2sEi+0x44>
 1424c24:	00bfffc4 	movi	r2,-1
 1424c28:	e0bffd05 	stb	r2,-12(fp)
 1424c2c:	e0bffd03 	ldbu	r2,-12(fp)
 1424c30:	e037883a 	mov	sp,fp
 1424c34:	df000017 	ldw	fp,0(sp)
 1424c38:	dec00104 	addi	sp,sp,4
 1424c3c:	f800283a 	ret

01424c40 <_ZN8SsegCore6i2ssegEiiiiii>:
 1424c40:	defff504 	addi	sp,sp,-44
 1424c44:	dfc00a15 	stw	ra,40(sp)
 1424c48:	df000915 	stw	fp,36(sp)
 1424c4c:	df000904 	addi	fp,sp,36
 1424c50:	e13ffc15 	stw	r4,-16(fp)
 1424c54:	e17ffd15 	stw	r5,-12(fp)
 1424c58:	e1bffe15 	stw	r6,-8(fp)
 1424c5c:	e1ffff15 	stw	r7,-4(fp)
 1424c60:	e0bffe17 	ldw	r2,-8(fp)
 1424c64:	10800298 	cmpnei	r2,r2,10
 1424c68:	10000a1e 	bne	r2,zero,1424c94 <_ZN8SsegCore6i2ssegEiiiiii+0x54>
 1424c6c:	e0800417 	ldw	r2,16(fp)
 1424c70:	10000826 	beq	r2,zero,1424c94 <_ZN8SsegCore6i2ssegEiiiiii+0x54>
 1424c74:	e0bffd17 	ldw	r2,-12(fp)
 1424c78:	1000060e 	bge	r2,zero,1424c94 <_ZN8SsegCore6i2ssegEiiiiii+0x54>
 1424c7c:	e0bffd17 	ldw	r2,-12(fp)
 1424c80:	0085c83a 	sub	r2,zero,r2
 1424c84:	e0bff915 	stw	r2,-28(fp)
 1424c88:	00800fc4 	movi	r2,63
 1424c8c:	e0bffa05 	stb	r2,-24(fp)
 1424c90:	00000406 	br	1424ca4 <_ZN8SsegCore6i2ssegEiiiiii+0x64>
 1424c94:	e0bffd17 	ldw	r2,-12(fp)
 1424c98:	e0bff915 	stw	r2,-28(fp)
 1424c9c:	00bfffc4 	movi	r2,-1
 1424ca0:	e0bffa05 	stb	r2,-24(fp)
 1424ca4:	e03ff715 	stw	zero,-36(fp)
 1424ca8:	e0800217 	ldw	r2,8(fp)
 1424cac:	e0bff815 	stw	r2,-32(fp)
 1424cb0:	e0fffe17 	ldw	r3,-8(fp)
 1424cb4:	e0bff917 	ldw	r2,-28(fp)
 1424cb8:	180b883a 	mov	r5,r3
 1424cbc:	1009883a 	mov	r4,r2
 1424cc0:	142883c0 	call	142883c <__umodsi3>
 1424cc4:	e0bffb15 	stw	r2,-20(fp)
 1424cc8:	e17ffb17 	ldw	r5,-20(fp)
 1424ccc:	e13ffc17 	ldw	r4,-16(fp)
 1424cd0:	1424be80 	call	1424be8 <_ZN8SsegCore3h2sEi>
 1424cd4:	1009883a 	mov	r4,r2
 1424cd8:	e0fffc17 	ldw	r3,-16(fp)
 1424cdc:	e0bff817 	ldw	r2,-32(fp)
 1424ce0:	1885883a 	add	r2,r3,r2
 1424ce4:	10800104 	addi	r2,r2,4
 1424ce8:	11000005 	stb	r4,0(r2)
 1424cec:	e0bffe17 	ldw	r2,-8(fp)
 1424cf0:	100b883a 	mov	r5,r2
 1424cf4:	e13ff917 	ldw	r4,-28(fp)
 1424cf8:	14287d80 	call	14287d8 <__udivsi3>
 1424cfc:	e0bff915 	stw	r2,-28(fp)
 1424d00:	e0bff717 	ldw	r2,-36(fp)
 1424d04:	10800044 	addi	r2,r2,1
 1424d08:	e0bff715 	stw	r2,-36(fp)
 1424d0c:	e0bff817 	ldw	r2,-32(fp)
 1424d10:	10800044 	addi	r2,r2,1
 1424d14:	e0bff815 	stw	r2,-32(fp)
 1424d18:	e0bff917 	ldw	r2,-28(fp)
 1424d1c:	10000a26 	beq	r2,zero,1424d48 <_ZN8SsegCore6i2ssegEiiiiii+0x108>
 1424d20:	e0fff717 	ldw	r3,-36(fp)
 1424d24:	e0bfff17 	ldw	r2,-4(fp)
 1424d28:	1884983a 	sll	r2,r3,r2
 1424d2c:	10000626 	beq	r2,zero,1424d48 <_ZN8SsegCore6i2ssegEiiiiii+0x108>
 1424d30:	e0bffc17 	ldw	r2,-16(fp)
 1424d34:	10800343 	ldbu	r2,13(r2)
 1424d38:	10803fcc 	andi	r2,r2,255
 1424d3c:	e0fff817 	ldw	r3,-32(fp)
 1424d40:	1880010e 	bge	r3,r2,1424d48 <_ZN8SsegCore6i2ssegEiiiiii+0x108>
 1424d44:	003fda06 	br	1424cb0 <__alt_data_end+0xfffe4cb0>
 1424d48:	e0fff717 	ldw	r3,-36(fp)
 1424d4c:	e0bfff17 	ldw	r2,-4(fp)
 1424d50:	1880130e 	bge	r3,r2,1424da0 <_ZN8SsegCore6i2ssegEiiiiii+0x160>
 1424d54:	e0800317 	ldw	r2,12(fp)
 1424d58:	10000426 	beq	r2,zero,1424d6c <_ZN8SsegCore6i2ssegEiiiiii+0x12c>
 1424d5c:	000b883a 	mov	r5,zero
 1424d60:	e13ffc17 	ldw	r4,-16(fp)
 1424d64:	1424be80 	call	1424be8 <_ZN8SsegCore3h2sEi>
 1424d68:	00000106 	br	1424d70 <_ZN8SsegCore6i2ssegEiiiiii+0x130>
 1424d6c:	00bfffc4 	movi	r2,-1
 1424d70:	e13ffc17 	ldw	r4,-16(fp)
 1424d74:	e0fff817 	ldw	r3,-32(fp)
 1424d78:	20c7883a 	add	r3,r4,r3
 1424d7c:	18c00104 	addi	r3,r3,4
 1424d80:	18800005 	stb	r2,0(r3)
 1424d84:	e0bff717 	ldw	r2,-36(fp)
 1424d88:	10800044 	addi	r2,r2,1
 1424d8c:	e0bff715 	stw	r2,-36(fp)
 1424d90:	e0bff817 	ldw	r2,-32(fp)
 1424d94:	10800044 	addi	r2,r2,1
 1424d98:	e0bff815 	stw	r2,-32(fp)
 1424d9c:	003fea06 	br	1424d48 <__alt_data_end+0xfffe4d48>
 1424da0:	e0800417 	ldw	r2,16(fp)
 1424da4:	10000726 	beq	r2,zero,1424dc4 <_ZN8SsegCore6i2ssegEiiiiii+0x184>
 1424da8:	e0bfff17 	ldw	r2,-4(fp)
 1424dac:	10bfffc4 	addi	r2,r2,-1
 1424db0:	e0fffc17 	ldw	r3,-16(fp)
 1424db4:	1885883a 	add	r2,r3,r2
 1424db8:	10800104 	addi	r2,r2,4
 1424dbc:	e0fffa03 	ldbu	r3,-24(fp)
 1424dc0:	10c00005 	stb	r3,0(r2)
 1424dc4:	e13ffc17 	ldw	r4,-16(fp)
 1424dc8:	142486c0 	call	142486c <_ZN8SsegCore9write_ledEv>
 1424dcc:	0001883a 	nop
 1424dd0:	e037883a 	mov	sp,fp
 1424dd4:	dfc00117 	ldw	ra,4(sp)
 1424dd8:	df000017 	ldw	fp,0(sp)
 1424ddc:	dec00204 	addi	sp,sp,8
 1424de0:	f800283a 	ret

01424de4 <_ZN9TimerCoreC1Em>:
 1424de4:	defffc04 	addi	sp,sp,-16
 1424de8:	dfc00315 	stw	ra,12(sp)
 1424dec:	df000215 	stw	fp,8(sp)
 1424df0:	df000204 	addi	fp,sp,8
 1424df4:	e13ffe15 	stw	r4,-8(fp)
 1424df8:	e17fff15 	stw	r5,-4(fp)
 1424dfc:	e0bffe17 	ldw	r2,-8(fp)
 1424e00:	e0ffff17 	ldw	r3,-4(fp)
 1424e04:	10c00015 	stw	r3,0(r2)
 1424e08:	e0bffe17 	ldw	r2,-8(fp)
 1424e0c:	00c00044 	movi	r3,1
 1424e10:	10c00115 	stw	r3,4(r2)
 1424e14:	e13ffe17 	ldw	r4,-8(fp)
 1424e18:	1424f200 	call	1424f20 <_ZN9TimerCore5clearEv>
 1424e1c:	e0bffe17 	ldw	r2,-8(fp)
 1424e20:	10800017 	ldw	r2,0(r2)
 1424e24:	10800204 	addi	r2,r2,8
 1424e28:	1007883a 	mov	r3,r2
 1424e2c:	e0bffe17 	ldw	r2,-8(fp)
 1424e30:	10800117 	ldw	r2,4(r2)
 1424e34:	18800015 	stw	r2,0(r3)
 1424e38:	0001883a 	nop
 1424e3c:	e037883a 	mov	sp,fp
 1424e40:	dfc00117 	ldw	ra,4(sp)
 1424e44:	df000017 	ldw	fp,0(sp)
 1424e48:	dec00204 	addi	sp,sp,8
 1424e4c:	f800283a 	ret

01424e50 <_ZN9TimerCoreD1Ev>:
 1424e50:	defffe04 	addi	sp,sp,-8
 1424e54:	df000115 	stw	fp,4(sp)
 1424e58:	df000104 	addi	fp,sp,4
 1424e5c:	e13fff15 	stw	r4,-4(fp)
 1424e60:	0001883a 	nop
 1424e64:	e037883a 	mov	sp,fp
 1424e68:	df000017 	ldw	fp,0(sp)
 1424e6c:	dec00104 	addi	sp,sp,4
 1424e70:	f800283a 	ret

01424e74 <_ZN9TimerCore5pauseEv>:
 1424e74:	defffe04 	addi	sp,sp,-8
 1424e78:	df000115 	stw	fp,4(sp)
 1424e7c:	df000104 	addi	fp,sp,4
 1424e80:	e13fff15 	stw	r4,-4(fp)
 1424e84:	e0bfff17 	ldw	r2,-4(fp)
 1424e88:	10c00117 	ldw	r3,4(r2)
 1424e8c:	00bfff84 	movi	r2,-2
 1424e90:	1886703a 	and	r3,r3,r2
 1424e94:	e0bfff17 	ldw	r2,-4(fp)
 1424e98:	10c00115 	stw	r3,4(r2)
 1424e9c:	e0bfff17 	ldw	r2,-4(fp)
 1424ea0:	10800017 	ldw	r2,0(r2)
 1424ea4:	10800204 	addi	r2,r2,8
 1424ea8:	1007883a 	mov	r3,r2
 1424eac:	e0bfff17 	ldw	r2,-4(fp)
 1424eb0:	10800117 	ldw	r2,4(r2)
 1424eb4:	18800015 	stw	r2,0(r3)
 1424eb8:	0001883a 	nop
 1424ebc:	e037883a 	mov	sp,fp
 1424ec0:	df000017 	ldw	fp,0(sp)
 1424ec4:	dec00104 	addi	sp,sp,4
 1424ec8:	f800283a 	ret

01424ecc <_ZN9TimerCore2goEv>:
 1424ecc:	defffe04 	addi	sp,sp,-8
 1424ed0:	df000115 	stw	fp,4(sp)
 1424ed4:	df000104 	addi	fp,sp,4
 1424ed8:	e13fff15 	stw	r4,-4(fp)
 1424edc:	e0bfff17 	ldw	r2,-4(fp)
 1424ee0:	10800117 	ldw	r2,4(r2)
 1424ee4:	10c00054 	ori	r3,r2,1
 1424ee8:	e0bfff17 	ldw	r2,-4(fp)
 1424eec:	10c00115 	stw	r3,4(r2)
 1424ef0:	e0bfff17 	ldw	r2,-4(fp)
 1424ef4:	10800017 	ldw	r2,0(r2)
 1424ef8:	10800204 	addi	r2,r2,8
 1424efc:	1007883a 	mov	r3,r2
 1424f00:	e0bfff17 	ldw	r2,-4(fp)
 1424f04:	10800117 	ldw	r2,4(r2)
 1424f08:	18800015 	stw	r2,0(r3)
 1424f0c:	0001883a 	nop
 1424f10:	e037883a 	mov	sp,fp
 1424f14:	df000017 	ldw	fp,0(sp)
 1424f18:	dec00104 	addi	sp,sp,4
 1424f1c:	f800283a 	ret

01424f20 <_ZN9TimerCore5clearEv>:
 1424f20:	defffd04 	addi	sp,sp,-12
 1424f24:	df000215 	stw	fp,8(sp)
 1424f28:	df000204 	addi	fp,sp,8
 1424f2c:	e13fff15 	stw	r4,-4(fp)
 1424f30:	e0bfff17 	ldw	r2,-4(fp)
 1424f34:	10800117 	ldw	r2,4(r2)
 1424f38:	10800094 	ori	r2,r2,2
 1424f3c:	e0bffe15 	stw	r2,-8(fp)
 1424f40:	e0bfff17 	ldw	r2,-4(fp)
 1424f44:	10800017 	ldw	r2,0(r2)
 1424f48:	10800204 	addi	r2,r2,8
 1424f4c:	1007883a 	mov	r3,r2
 1424f50:	e0bffe17 	ldw	r2,-8(fp)
 1424f54:	18800015 	stw	r2,0(r3)
 1424f58:	0001883a 	nop
 1424f5c:	e037883a 	mov	sp,fp
 1424f60:	df000017 	ldw	fp,0(sp)
 1424f64:	dec00104 	addi	sp,sp,4
 1424f68:	f800283a 	ret

01424f6c <_ZN9TimerCore9read_tickEv>:
 1424f6c:	defffa04 	addi	sp,sp,-24
 1424f70:	df000515 	stw	fp,20(sp)
 1424f74:	df000504 	addi	fp,sp,20
 1424f78:	e13fff15 	stw	r4,-4(fp)
 1424f7c:	e13fff17 	ldw	r4,-4(fp)
 1424f80:	21000017 	ldw	r4,0(r4)
 1424f84:	21000017 	ldw	r4,0(r4)
 1424f88:	e13ffb15 	stw	r4,-20(fp)
 1424f8c:	e03ffc15 	stw	zero,-16(fp)
 1424f90:	e13fff17 	ldw	r4,-4(fp)
 1424f94:	21000017 	ldw	r4,0(r4)
 1424f98:	21000104 	addi	r4,r4,4
 1424f9c:	21000017 	ldw	r4,0(r4)
 1424fa0:	e13ffd15 	stw	r4,-12(fp)
 1424fa4:	e03ffe15 	stw	zero,-8(fp)
 1424fa8:	e13ffd17 	ldw	r4,-12(fp)
 1424fac:	2006983a 	sll	r3,r4,zero
 1424fb0:	0005883a 	mov	r2,zero
 1424fb4:	e13ffb17 	ldw	r4,-20(fp)
 1424fb8:	208ab03a 	or	r5,r4,r2
 1424fbc:	e13ffc17 	ldw	r4,-16(fp)
 1424fc0:	20ccb03a 	or	r6,r4,r3
 1424fc4:	2807883a 	mov	r3,r5
 1424fc8:	3009883a 	mov	r4,r6
 1424fcc:	1805883a 	mov	r2,r3
 1424fd0:	2007883a 	mov	r3,r4
 1424fd4:	e037883a 	mov	sp,fp
 1424fd8:	df000017 	ldw	fp,0(sp)
 1424fdc:	dec00104 	addi	sp,sp,4
 1424fe0:	f800283a 	ret

01424fe4 <_ZN9TimerCore9read_timeEv>:
 1424fe4:	defffd04 	addi	sp,sp,-12
 1424fe8:	dfc00215 	stw	ra,8(sp)
 1424fec:	df000115 	stw	fp,4(sp)
 1424ff0:	df000104 	addi	fp,sp,4
 1424ff4:	e13fff15 	stw	r4,-4(fp)
 1424ff8:	e13fff17 	ldw	r4,-4(fp)
 1424ffc:	1424f6c0 	call	1424f6c <_ZN9TimerCore9read_tickEv>
 1425000:	1011883a 	mov	r8,r2
 1425004:	1813883a 	mov	r9,r3
 1425008:	01800c84 	movi	r6,50
 142500c:	000f883a 	mov	r7,zero
 1425010:	4009883a 	mov	r4,r8
 1425014:	480b883a 	mov	r5,r9
 1425018:	1427b200 	call	1427b20 <__udivdi3>
 142501c:	100f883a 	mov	r7,r2
 1425020:	1811883a 	mov	r8,r3
 1425024:	380b883a 	mov	r5,r7
 1425028:	400d883a 	mov	r6,r8
 142502c:	2807883a 	mov	r3,r5
 1425030:	3009883a 	mov	r4,r6
 1425034:	1805883a 	mov	r2,r3
 1425038:	2007883a 	mov	r3,r4
 142503c:	e037883a 	mov	sp,fp
 1425040:	dfc00117 	ldw	ra,4(sp)
 1425044:	df000017 	ldw	fp,0(sp)
 1425048:	dec00204 	addi	sp,sp,8
 142504c:	f800283a 	ret

01425050 <_ZN9TimerCore5sleepEy>:
 1425050:	defff704 	addi	sp,sp,-36
 1425054:	dfc00815 	stw	ra,32(sp)
 1425058:	df000715 	stw	fp,28(sp)
 142505c:	df000704 	addi	fp,sp,28
 1425060:	e13ffd15 	stw	r4,-12(fp)
 1425064:	e17ffe15 	stw	r5,-8(fp)
 1425068:	e1bfff15 	stw	r6,-4(fp)
 142506c:	e13ffd17 	ldw	r4,-12(fp)
 1425070:	1424fe40 	call	1424fe4 <_ZN9TimerCore9read_timeEv>
 1425074:	e0bff915 	stw	r2,-28(fp)
 1425078:	e0fffa15 	stw	r3,-24(fp)
 142507c:	e13ffd17 	ldw	r4,-12(fp)
 1425080:	1424fe40 	call	1424fe4 <_ZN9TimerCore9read_timeEv>
 1425084:	e0bffb15 	stw	r2,-20(fp)
 1425088:	e0fffc15 	stw	r3,-16(fp)
 142508c:	e13ffb17 	ldw	r4,-20(fp)
 1425090:	e17ffc17 	ldw	r5,-16(fp)
 1425094:	e1bff917 	ldw	r6,-28(fp)
 1425098:	e1fffa17 	ldw	r7,-24(fp)
 142509c:	2185c83a 	sub	r2,r4,r6
 14250a0:	2091803a 	cmpltu	r8,r4,r2
 14250a4:	29c7c83a 	sub	r3,r5,r7
 14250a8:	1a09c83a 	sub	r4,r3,r8
 14250ac:	2007883a 	mov	r3,r4
 14250b0:	1009883a 	mov	r4,r2
 14250b4:	180b883a 	mov	r5,r3
 14250b8:	e0bfff17 	ldw	r2,-4(fp)
 14250bc:	28bfef36 	bltu	r5,r2,142507c <__alt_data_end+0xfffe507c>
 14250c0:	e0bfff17 	ldw	r2,-4(fp)
 14250c4:	1140021e 	bne	r2,r5,14250d0 <_ZN9TimerCore5sleepEy+0x80>
 14250c8:	e0bffe17 	ldw	r2,-8(fp)
 14250cc:	20bfeb36 	bltu	r4,r2,142507c <__alt_data_end+0xfffe507c>
 14250d0:	0001883a 	nop
 14250d4:	e037883a 	mov	sp,fp
 14250d8:	dfc00117 	ldw	ra,4(sp)
 14250dc:	df000017 	ldw	fp,0(sp)
 14250e0:	dec00204 	addi	sp,sp,8
 14250e4:	f800283a 	ret

014250e8 <_ZN8UartCoreC1Em>:
 14250e8:	defffc04 	addi	sp,sp,-16
 14250ec:	dfc00315 	stw	ra,12(sp)
 14250f0:	df000215 	stw	fp,8(sp)
 14250f4:	df000204 	addi	fp,sp,8
 14250f8:	e13ffe15 	stw	r4,-8(fp)
 14250fc:	e17fff15 	stw	r5,-4(fp)
 1425100:	e0bffe17 	ldw	r2,-8(fp)
 1425104:	e0ffff17 	ldw	r3,-4(fp)
 1425108:	10c00015 	stw	r3,0(r2)
 142510c:	01496004 	movi	r5,9600
 1425110:	e13ffe17 	ldw	r4,-8(fp)
 1425114:	14251540 	call	1425154 <_ZN8UartCore13set_baud_rateEi>
 1425118:	0001883a 	nop
 142511c:	e037883a 	mov	sp,fp
 1425120:	dfc00117 	ldw	ra,4(sp)
 1425124:	df000017 	ldw	fp,0(sp)
 1425128:	dec00204 	addi	sp,sp,8
 142512c:	f800283a 	ret

01425130 <_ZN8UartCoreD1Ev>:
 1425130:	defffe04 	addi	sp,sp,-8
 1425134:	df000115 	stw	fp,4(sp)
 1425138:	df000104 	addi	fp,sp,4
 142513c:	e13fff15 	stw	r4,-4(fp)
 1425140:	0001883a 	nop
 1425144:	e037883a 	mov	sp,fp
 1425148:	df000017 	ldw	fp,0(sp)
 142514c:	dec00104 	addi	sp,sp,4
 1425150:	f800283a 	ret

01425154 <_ZN8UartCore13set_baud_rateEi>:
 1425154:	defffb04 	addi	sp,sp,-20
 1425158:	dfc00415 	stw	ra,16(sp)
 142515c:	df000315 	stw	fp,12(sp)
 1425160:	df000304 	addi	fp,sp,12
 1425164:	e13ffe15 	stw	r4,-8(fp)
 1425168:	e17fff15 	stw	r5,-4(fp)
 142516c:	e17fff17 	ldw	r5,-4(fp)
 1425170:	01000c34 	movhi	r4,48
 1425174:	212bc204 	addi	r4,r4,-20728
 1425178:	14286e00 	call	14286e0 <__divsi3>
 142517c:	10bfffc4 	addi	r2,r2,-1
 1425180:	e0bffd15 	stw	r2,-12(fp)
 1425184:	e0bffe17 	ldw	r2,-8(fp)
 1425188:	10800017 	ldw	r2,0(r2)
 142518c:	10800104 	addi	r2,r2,4
 1425190:	1007883a 	mov	r3,r2
 1425194:	e0bffd17 	ldw	r2,-12(fp)
 1425198:	18800015 	stw	r2,0(r3)
 142519c:	0001883a 	nop
 14251a0:	e037883a 	mov	sp,fp
 14251a4:	dfc00117 	ldw	ra,4(sp)
 14251a8:	df000017 	ldw	fp,0(sp)
 14251ac:	dec00204 	addi	sp,sp,8
 14251b0:	f800283a 	ret

014251b4 <_ZN8UartCore13rx_fifo_emptyEv>:
 14251b4:	defffc04 	addi	sp,sp,-16
 14251b8:	df000315 	stw	fp,12(sp)
 14251bc:	df000304 	addi	fp,sp,12
 14251c0:	e13fff15 	stw	r4,-4(fp)
 14251c4:	e0bfff17 	ldw	r2,-4(fp)
 14251c8:	10800017 	ldw	r2,0(r2)
 14251cc:	10800017 	ldw	r2,0(r2)
 14251d0:	e0bffd15 	stw	r2,-12(fp)
 14251d4:	e0bffd17 	ldw	r2,-12(fp)
 14251d8:	1080400c 	andi	r2,r2,256
 14251dc:	1005d23a 	srai	r2,r2,8
 14251e0:	e0bffe15 	stw	r2,-8(fp)
 14251e4:	e0bffe17 	ldw	r2,-8(fp)
 14251e8:	e037883a 	mov	sp,fp
 14251ec:	df000017 	ldw	fp,0(sp)
 14251f0:	dec00104 	addi	sp,sp,4
 14251f4:	f800283a 	ret

014251f8 <_ZN8UartCore12tx_fifo_fullEv>:
 14251f8:	defffc04 	addi	sp,sp,-16
 14251fc:	df000315 	stw	fp,12(sp)
 1425200:	df000304 	addi	fp,sp,12
 1425204:	e13fff15 	stw	r4,-4(fp)
 1425208:	e0bfff17 	ldw	r2,-4(fp)
 142520c:	10800017 	ldw	r2,0(r2)
 1425210:	10800017 	ldw	r2,0(r2)
 1425214:	e0bffd15 	stw	r2,-12(fp)
 1425218:	e0bffd17 	ldw	r2,-12(fp)
 142521c:	1080800c 	andi	r2,r2,512
 1425220:	1005d27a 	srai	r2,r2,9
 1425224:	e0bffe15 	stw	r2,-8(fp)
 1425228:	e0bffe17 	ldw	r2,-8(fp)
 142522c:	e037883a 	mov	sp,fp
 1425230:	df000017 	ldw	fp,0(sp)
 1425234:	dec00104 	addi	sp,sp,4
 1425238:	f800283a 	ret

0142523c <_ZN8UartCore7tx_byteEh>:
 142523c:	defffc04 	addi	sp,sp,-16
 1425240:	dfc00315 	stw	ra,12(sp)
 1425244:	df000215 	stw	fp,8(sp)
 1425248:	df000204 	addi	fp,sp,8
 142524c:	e13ffe15 	stw	r4,-8(fp)
 1425250:	2805883a 	mov	r2,r5
 1425254:	e0bfff05 	stb	r2,-4(fp)
 1425258:	e13ffe17 	ldw	r4,-8(fp)
 142525c:	14251f80 	call	14251f8 <_ZN8UartCore12tx_fifo_fullEv>
 1425260:	1004c03a 	cmpne	r2,r2,zero
 1425264:	10803fcc 	andi	r2,r2,255
 1425268:	10000126 	beq	r2,zero,1425270 <_ZN8UartCore7tx_byteEh+0x34>
 142526c:	003ffa06 	br	1425258 <__alt_data_end+0xfffe5258>
 1425270:	e0bffe17 	ldw	r2,-8(fp)
 1425274:	10800017 	ldw	r2,0(r2)
 1425278:	10800204 	addi	r2,r2,8
 142527c:	1007883a 	mov	r3,r2
 1425280:	e0bfff03 	ldbu	r2,-4(fp)
 1425284:	18800015 	stw	r2,0(r3)
 1425288:	0001883a 	nop
 142528c:	e037883a 	mov	sp,fp
 1425290:	dfc00117 	ldw	ra,4(sp)
 1425294:	df000017 	ldw	fp,0(sp)
 1425298:	dec00204 	addi	sp,sp,8
 142529c:	f800283a 	ret

014252a0 <_ZN8UartCore7rx_byteEv>:
 14252a0:	defffc04 	addi	sp,sp,-16
 14252a4:	dfc00315 	stw	ra,12(sp)
 14252a8:	df000215 	stw	fp,8(sp)
 14252ac:	df000204 	addi	fp,sp,8
 14252b0:	e13fff15 	stw	r4,-4(fp)
 14252b4:	e13fff17 	ldw	r4,-4(fp)
 14252b8:	14251b40 	call	14251b4 <_ZN8UartCore13rx_fifo_emptyEv>
 14252bc:	1004c03a 	cmpne	r2,r2,zero
 14252c0:	10803fcc 	andi	r2,r2,255
 14252c4:	10000226 	beq	r2,zero,14252d0 <_ZN8UartCore7rx_byteEv+0x30>
 14252c8:	00bfffc4 	movi	r2,-1
 14252cc:	00000a06 	br	14252f8 <_ZN8UartCore7rx_byteEv+0x58>
 14252d0:	e0bfff17 	ldw	r2,-4(fp)
 14252d4:	10800017 	ldw	r2,0(r2)
 14252d8:	10800017 	ldw	r2,0(r2)
 14252dc:	10803fcc 	andi	r2,r2,255
 14252e0:	e0bffe15 	stw	r2,-8(fp)
 14252e4:	e0bfff17 	ldw	r2,-4(fp)
 14252e8:	10800017 	ldw	r2,0(r2)
 14252ec:	10800304 	addi	r2,r2,12
 14252f0:	10000015 	stw	zero,0(r2)
 14252f4:	e0bffe17 	ldw	r2,-8(fp)
 14252f8:	e037883a 	mov	sp,fp
 14252fc:	dfc00117 	ldw	ra,4(sp)
 1425300:	df000017 	ldw	fp,0(sp)
 1425304:	dec00204 	addi	sp,sp,8
 1425308:	f800283a 	ret

0142530c <_ZN8UartCore4dispEPKc>:
 142530c:	defffc04 	addi	sp,sp,-16
 1425310:	dfc00315 	stw	ra,12(sp)
 1425314:	df000215 	stw	fp,8(sp)
 1425318:	df000204 	addi	fp,sp,8
 142531c:	e13ffe15 	stw	r4,-8(fp)
 1425320:	e17fff15 	stw	r5,-4(fp)
 1425324:	e17fff17 	ldw	r5,-4(fp)
 1425328:	e13ffe17 	ldw	r4,-8(fp)
 142532c:	142579c0 	call	142579c <_ZN8UartCore8disp_strEPKc>
 1425330:	0001883a 	nop
 1425334:	e037883a 	mov	sp,fp
 1425338:	dfc00117 	ldw	ra,4(sp)
 142533c:	df000017 	ldw	fp,0(sp)
 1425340:	dec00204 	addi	sp,sp,8
 1425344:	f800283a 	ret

01425348 <_ZN8UartCore4dispEc>:
 1425348:	defffc04 	addi	sp,sp,-16
 142534c:	dfc00315 	stw	ra,12(sp)
 1425350:	df000215 	stw	fp,8(sp)
 1425354:	df000204 	addi	fp,sp,8
 1425358:	e13ffe15 	stw	r4,-8(fp)
 142535c:	2805883a 	mov	r2,r5
 1425360:	e0bfff05 	stb	r2,-4(fp)
 1425364:	e0bfff03 	ldbu	r2,-4(fp)
 1425368:	10803fcc 	andi	r2,r2,255
 142536c:	100b883a 	mov	r5,r2
 1425370:	e13ffe17 	ldw	r4,-8(fp)
 1425374:	142523c0 	call	142523c <_ZN8UartCore7tx_byteEh>
 1425378:	0001883a 	nop
 142537c:	e037883a 	mov	sp,fp
 1425380:	dfc00117 	ldw	ra,4(sp)
 1425384:	df000017 	ldw	fp,0(sp)
 1425388:	dec00204 	addi	sp,sp,8
 142538c:	f800283a 	ret

01425390 <_ZN8UartCore4dispEiii>:
 1425390:	deffec04 	addi	sp,sp,-80
 1425394:	dfc01315 	stw	ra,76(sp)
 1425398:	df001215 	stw	fp,72(sp)
 142539c:	df001204 	addi	fp,sp,72
 14253a0:	e13ffc15 	stw	r4,-16(fp)
 14253a4:	e17ffd15 	stw	r5,-12(fp)
 14253a8:	e1bffe15 	stw	r6,-8(fp)
 14253ac:	e1ffff15 	stw	r7,-4(fp)
 14253b0:	e0bffe17 	ldw	r2,-8(fp)
 14253b4:	108000a0 	cmpeqi	r2,r2,2
 14253b8:	1000081e 	bne	r2,zero,14253dc <_ZN8UartCore4dispEiii+0x4c>
 14253bc:	e0bffe17 	ldw	r2,-8(fp)
 14253c0:	10800220 	cmpeqi	r2,r2,8
 14253c4:	1000051e 	bne	r2,zero,14253dc <_ZN8UartCore4dispEiii+0x4c>
 14253c8:	e0bffe17 	ldw	r2,-8(fp)
 14253cc:	10800420 	cmpeqi	r2,r2,16
 14253d0:	1000021e 	bne	r2,zero,14253dc <_ZN8UartCore4dispEiii+0x4c>
 14253d4:	00800284 	movi	r2,10
 14253d8:	e0bffe15 	stw	r2,-8(fp)
 14253dc:	e0bfff17 	ldw	r2,-4(fp)
 14253e0:	10800850 	cmplti	r2,r2,33
 14253e4:	1000021e 	bne	r2,zero,14253f0 <_ZN8UartCore4dispEiii+0x60>
 14253e8:	00800804 	movi	r2,32
 14253ec:	e0bfff15 	stw	r2,-4(fp)
 14253f0:	e0bffe17 	ldw	r2,-8(fp)
 14253f4:	10800298 	cmpnei	r2,r2,10
 14253f8:	1000081e 	bne	r2,zero,142541c <_ZN8UartCore4dispEiii+0x8c>
 14253fc:	e0bffd17 	ldw	r2,-12(fp)
 1425400:	1000060e 	bge	r2,zero,142541c <_ZN8UartCore4dispEiii+0x8c>
 1425404:	e0bffd17 	ldw	r2,-12(fp)
 1425408:	0085c83a 	sub	r2,zero,r2
 142540c:	e0bff115 	stw	r2,-60(fp)
 1425410:	00800b44 	movi	r2,45
 1425414:	e0bfef45 	stb	r2,-67(fp)
 1425418:	00000406 	br	142542c <_ZN8UartCore4dispEiii+0x9c>
 142541c:	e0bffd17 	ldw	r2,-12(fp)
 1425420:	e0bff115 	stw	r2,-60(fp)
 1425424:	00800804 	movi	r2,32
 1425428:	e0bfef45 	stb	r2,-67(fp)
 142542c:	e0bff304 	addi	r2,fp,-52
 1425430:	10800844 	addi	r2,r2,33
 1425434:	e0bfee15 	stw	r2,-72(fp)
 1425438:	e0bfee17 	ldw	r2,-72(fp)
 142543c:	10000005 	stb	zero,0(r2)
 1425440:	e03ff015 	stw	zero,-64(fp)
 1425444:	e0bfee17 	ldw	r2,-72(fp)
 1425448:	10bfffc4 	addi	r2,r2,-1
 142544c:	e0bfee15 	stw	r2,-72(fp)
 1425450:	e0fffe17 	ldw	r3,-8(fp)
 1425454:	e0bff117 	ldw	r2,-60(fp)
 1425458:	180b883a 	mov	r5,r3
 142545c:	1009883a 	mov	r4,r2
 1425460:	142883c0 	call	142883c <__umodsi3>
 1425464:	e0bff215 	stw	r2,-56(fp)
 1425468:	e0bffe17 	ldw	r2,-8(fp)
 142546c:	100b883a 	mov	r5,r2
 1425470:	e13ff117 	ldw	r4,-60(fp)
 1425474:	14287d80 	call	14287d8 <__udivsi3>
 1425478:	e0bff115 	stw	r2,-60(fp)
 142547c:	e0bff217 	ldw	r2,-56(fp)
 1425480:	10800288 	cmpgei	r2,r2,10
 1425484:	1000041e 	bne	r2,zero,1425498 <_ZN8UartCore4dispEiii+0x108>
 1425488:	e0bff217 	ldw	r2,-56(fp)
 142548c:	10800c04 	addi	r2,r2,48
 1425490:	e0bfef05 	stb	r2,-68(fp)
 1425494:	00000306 	br	14254a4 <_ZN8UartCore4dispEiii+0x114>
 1425498:	e0bff217 	ldw	r2,-56(fp)
 142549c:	108015c4 	addi	r2,r2,87
 14254a0:	e0bfef05 	stb	r2,-68(fp)
 14254a4:	e0bfee17 	ldw	r2,-72(fp)
 14254a8:	e0ffef03 	ldbu	r3,-68(fp)
 14254ac:	10c00005 	stb	r3,0(r2)
 14254b0:	e0bff017 	ldw	r2,-64(fp)
 14254b4:	10800044 	addi	r2,r2,1
 14254b8:	e0bff015 	stw	r2,-64(fp)
 14254bc:	e0bff117 	ldw	r2,-60(fp)
 14254c0:	10000126 	beq	r2,zero,14254c8 <_ZN8UartCore4dispEiii+0x138>
 14254c4:	003fdf06 	br	1425444 <__alt_data_end+0xfffe5444>
 14254c8:	e0bfef47 	ldb	r2,-67(fp)
 14254cc:	10800b58 	cmpnei	r2,r2,45
 14254d0:	1000091e 	bne	r2,zero,14254f8 <_ZN8UartCore4dispEiii+0x168>
 14254d4:	e0bfee17 	ldw	r2,-72(fp)
 14254d8:	10bfffc4 	addi	r2,r2,-1
 14254dc:	e0bfee15 	stw	r2,-72(fp)
 14254e0:	e0bfee17 	ldw	r2,-72(fp)
 14254e4:	e0ffef43 	ldbu	r3,-67(fp)
 14254e8:	10c00005 	stb	r3,0(r2)
 14254ec:	e0bff017 	ldw	r2,-64(fp)
 14254f0:	10800044 	addi	r2,r2,1
 14254f4:	e0bff015 	stw	r2,-64(fp)
 14254f8:	e0fff017 	ldw	r3,-64(fp)
 14254fc:	e0bfff17 	ldw	r2,-4(fp)
 1425500:	18800a0e 	bge	r3,r2,142552c <_ZN8UartCore4dispEiii+0x19c>
 1425504:	e0bfee17 	ldw	r2,-72(fp)
 1425508:	10bfffc4 	addi	r2,r2,-1
 142550c:	e0bfee15 	stw	r2,-72(fp)
 1425510:	e0bfee17 	ldw	r2,-72(fp)
 1425514:	00c00804 	movi	r3,32
 1425518:	10c00005 	stb	r3,0(r2)
 142551c:	e0bff017 	ldw	r2,-64(fp)
 1425520:	10800044 	addi	r2,r2,1
 1425524:	e0bff015 	stw	r2,-64(fp)
 1425528:	003ff306 	br	14254f8 <__alt_data_end+0xfffe54f8>
 142552c:	e17fee17 	ldw	r5,-72(fp)
 1425530:	e13ffc17 	ldw	r4,-16(fp)
 1425534:	142579c0 	call	142579c <_ZN8UartCore8disp_strEPKc>
 1425538:	0001883a 	nop
 142553c:	e037883a 	mov	sp,fp
 1425540:	dfc00117 	ldw	ra,4(sp)
 1425544:	df000017 	ldw	fp,0(sp)
 1425548:	dec00204 	addi	sp,sp,8
 142554c:	f800283a 	ret

01425550 <_ZN8UartCore4dispEi>:
 1425550:	defffc04 	addi	sp,sp,-16
 1425554:	dfc00315 	stw	ra,12(sp)
 1425558:	df000215 	stw	fp,8(sp)
 142555c:	df000204 	addi	fp,sp,8
 1425560:	e13ffe15 	stw	r4,-8(fp)
 1425564:	e17fff15 	stw	r5,-4(fp)
 1425568:	000f883a 	mov	r7,zero
 142556c:	01800284 	movi	r6,10
 1425570:	e17fff17 	ldw	r5,-4(fp)
 1425574:	e13ffe17 	ldw	r4,-8(fp)
 1425578:	14253900 	call	1425390 <_ZN8UartCore4dispEiii>
 142557c:	0001883a 	nop
 1425580:	e037883a 	mov	sp,fp
 1425584:	dfc00117 	ldw	ra,4(sp)
 1425588:	df000017 	ldw	fp,0(sp)
 142558c:	dec00204 	addi	sp,sp,8
 1425590:	f800283a 	ret

01425594 <_ZN8UartCore4dispEii>:
 1425594:	defffb04 	addi	sp,sp,-20
 1425598:	dfc00415 	stw	ra,16(sp)
 142559c:	df000315 	stw	fp,12(sp)
 14255a0:	df000304 	addi	fp,sp,12
 14255a4:	e13ffd15 	stw	r4,-12(fp)
 14255a8:	e17ffe15 	stw	r5,-8(fp)
 14255ac:	e1bfff15 	stw	r6,-4(fp)
 14255b0:	000f883a 	mov	r7,zero
 14255b4:	e1bfff17 	ldw	r6,-4(fp)
 14255b8:	e17ffe17 	ldw	r5,-8(fp)
 14255bc:	e13ffd17 	ldw	r4,-12(fp)
 14255c0:	14253900 	call	1425390 <_ZN8UartCore4dispEiii>
 14255c4:	0001883a 	nop
 14255c8:	e037883a 	mov	sp,fp
 14255cc:	dfc00117 	ldw	ra,4(sp)
 14255d0:	df000017 	ldw	fp,0(sp)
 14255d4:	dec00204 	addi	sp,sp,8
 14255d8:	f800283a 	ret

014255dc <_ZN8UartCore4dispEdi>:
 14255dc:	defff304 	addi	sp,sp,-52
 14255e0:	dfc00c15 	stw	ra,48(sp)
 14255e4:	df000b15 	stw	fp,44(sp)
 14255e8:	df000b04 	addi	fp,sp,44
 14255ec:	e13ffc15 	stw	r4,-16(fp)
 14255f0:	e17ffd15 	stw	r5,-12(fp)
 14255f4:	e1bffe15 	stw	r6,-8(fp)
 14255f8:	e1ffff15 	stw	r7,-4(fp)
 14255fc:	e0bffd17 	ldw	r2,-12(fp)
 1425600:	e0bff515 	stw	r2,-44(fp)
 1425604:	e0bffe17 	ldw	r2,-8(fp)
 1425608:	e0bff615 	stw	r2,-40(fp)
 142560c:	000d883a 	mov	r6,zero
 1425610:	000f883a 	mov	r7,zero
 1425614:	e13ffd17 	ldw	r4,-12(fp)
 1425618:	e17ffe17 	ldw	r5,-8(fp)
 142561c:	142a4840 	call	142a484 <__ledf2>
 1425620:	1000090e 	bge	r2,zero,1425648 <_ZN8UartCore4dispEdi+0x6c>
 1425624:	e0bffd17 	ldw	r2,-12(fp)
 1425628:	e0bff515 	stw	r2,-44(fp)
 142562c:	e0bffe17 	ldw	r2,-8(fp)
 1425630:	10a0003c 	xorhi	r2,r2,32768
 1425634:	e0bff615 	stw	r2,-40(fp)
 1425638:	014050f4 	movhi	r5,323
 142563c:	29773804 	addi	r5,r5,-8992
 1425640:	e13ffc17 	ldw	r4,-16(fp)
 1425644:	142579c0 	call	142579c <_ZN8UartCore8disp_strEPKc>
 1425648:	e13ff517 	ldw	r4,-44(fp)
 142564c:	e17ff617 	ldw	r5,-40(fp)
 1425650:	142b6e00 	call	142b6e0 <__fixdfsi>
 1425654:	e0bffa15 	stw	r2,-24(fp)
 1425658:	e17ffa17 	ldw	r5,-24(fp)
 142565c:	e13ffc17 	ldw	r4,-16(fp)
 1425660:	14255500 	call	1425550 <_ZN8UartCore4dispEi>
 1425664:	014050f4 	movhi	r5,323
 1425668:	29773904 	addi	r5,r5,-8988
 142566c:	e13ffc17 	ldw	r4,-16(fp)
 1425670:	142579c0 	call	142579c <_ZN8UartCore8disp_strEPKc>
 1425674:	e13ffa17 	ldw	r4,-24(fp)
 1425678:	142b7600 	call	142b760 <__floatsidf>
 142567c:	1009883a 	mov	r4,r2
 1425680:	180b883a 	mov	r5,r3
 1425684:	200d883a 	mov	r6,r4
 1425688:	280f883a 	mov	r7,r5
 142568c:	e13ff517 	ldw	r4,-44(fp)
 1425690:	e17ff617 	ldw	r5,-40(fp)
 1425694:	142ade40 	call	142ade4 <__subdf3>
 1425698:	1009883a 	mov	r4,r2
 142569c:	180b883a 	mov	r5,r3
 14256a0:	e13ff715 	stw	r4,-36(fp)
 14256a4:	e17ff815 	stw	r5,-32(fp)
 14256a8:	e03ff915 	stw	zero,-28(fp)
 14256ac:	e0fff917 	ldw	r3,-28(fp)
 14256b0:	e0bfff17 	ldw	r2,-4(fp)
 14256b4:	1880210e 	bge	r3,r2,142573c <_ZN8UartCore4dispEdi+0x160>
 14256b8:	000d883a 	mov	r6,zero
 14256bc:	01d00934 	movhi	r7,16420
 14256c0:	e13ff717 	ldw	r4,-36(fp)
 14256c4:	e17ff817 	ldw	r5,-32(fp)
 14256c8:	142a5780 	call	142a578 <__muldf3>
 14256cc:	1009883a 	mov	r4,r2
 14256d0:	180b883a 	mov	r5,r3
 14256d4:	e13ff715 	stw	r4,-36(fp)
 14256d8:	e17ff815 	stw	r5,-32(fp)
 14256dc:	e13ff717 	ldw	r4,-36(fp)
 14256e0:	e17ff817 	ldw	r5,-32(fp)
 14256e4:	142b6e00 	call	142b6e0 <__fixdfsi>
 14256e8:	e0bffb15 	stw	r2,-20(fp)
 14256ec:	e17ffb17 	ldw	r5,-20(fp)
 14256f0:	e13ffc17 	ldw	r4,-16(fp)
 14256f4:	14255500 	call	1425550 <_ZN8UartCore4dispEi>
 14256f8:	e13ffb17 	ldw	r4,-20(fp)
 14256fc:	142b7600 	call	142b760 <__floatsidf>
 1425700:	1009883a 	mov	r4,r2
 1425704:	180b883a 	mov	r5,r3
 1425708:	200d883a 	mov	r6,r4
 142570c:	280f883a 	mov	r7,r5
 1425710:	e13ff717 	ldw	r4,-36(fp)
 1425714:	e17ff817 	ldw	r5,-32(fp)
 1425718:	142ade40 	call	142ade4 <__subdf3>
 142571c:	1009883a 	mov	r4,r2
 1425720:	180b883a 	mov	r5,r3
 1425724:	e13ff715 	stw	r4,-36(fp)
 1425728:	e17ff815 	stw	r5,-32(fp)
 142572c:	e0bff917 	ldw	r2,-28(fp)
 1425730:	10800044 	addi	r2,r2,1
 1425734:	e0bff915 	stw	r2,-28(fp)
 1425738:	003fdc06 	br	14256ac <__alt_data_end+0xfffe56ac>
 142573c:	0001883a 	nop
 1425740:	e037883a 	mov	sp,fp
 1425744:	dfc00117 	ldw	ra,4(sp)
 1425748:	df000017 	ldw	fp,0(sp)
 142574c:	dec00204 	addi	sp,sp,8
 1425750:	f800283a 	ret

01425754 <_ZN8UartCore4dispEd>:
 1425754:	defffb04 	addi	sp,sp,-20
 1425758:	dfc00415 	stw	ra,16(sp)
 142575c:	df000315 	stw	fp,12(sp)
 1425760:	df000304 	addi	fp,sp,12
 1425764:	e13ffd15 	stw	r4,-12(fp)
 1425768:	e17ffe15 	stw	r5,-8(fp)
 142576c:	e1bfff15 	stw	r6,-4(fp)
 1425770:	01c000c4 	movi	r7,3
 1425774:	e17ffe17 	ldw	r5,-8(fp)
 1425778:	e1bfff17 	ldw	r6,-4(fp)
 142577c:	e13ffd17 	ldw	r4,-12(fp)
 1425780:	14255dc0 	call	14255dc <_ZN8UartCore4dispEdi>
 1425784:	0001883a 	nop
 1425788:	e037883a 	mov	sp,fp
 142578c:	dfc00117 	ldw	ra,4(sp)
 1425790:	df000017 	ldw	fp,0(sp)
 1425794:	dec00204 	addi	sp,sp,8
 1425798:	f800283a 	ret

0142579c <_ZN8UartCore8disp_strEPKc>:
 142579c:	defffc04 	addi	sp,sp,-16
 14257a0:	dfc00315 	stw	ra,12(sp)
 14257a4:	df000215 	stw	fp,8(sp)
 14257a8:	df000204 	addi	fp,sp,8
 14257ac:	e13ffe15 	stw	r4,-8(fp)
 14257b0:	e17fff15 	stw	r5,-4(fp)
 14257b4:	e0bfff17 	ldw	r2,-4(fp)
 14257b8:	10800003 	ldbu	r2,0(r2)
 14257bc:	10803fcc 	andi	r2,r2,255
 14257c0:	1080201c 	xori	r2,r2,128
 14257c4:	10bfe004 	addi	r2,r2,-128
 14257c8:	10000a26 	beq	r2,zero,14257f4 <_ZN8UartCore8disp_strEPKc+0x58>
 14257cc:	e0bfff17 	ldw	r2,-4(fp)
 14257d0:	10800003 	ldbu	r2,0(r2)
 14257d4:	10803fcc 	andi	r2,r2,255
 14257d8:	100b883a 	mov	r5,r2
 14257dc:	e13ffe17 	ldw	r4,-8(fp)
 14257e0:	142523c0 	call	142523c <_ZN8UartCore7tx_byteEh>
 14257e4:	e0bfff17 	ldw	r2,-4(fp)
 14257e8:	10800044 	addi	r2,r2,1
 14257ec:	e0bfff15 	stw	r2,-4(fp)
 14257f0:	003ff006 	br	14257b4 <__alt_data_end+0xfffe57b4>
 14257f4:	0001883a 	nop
 14257f8:	e037883a 	mov	sp,fp
 14257fc:	dfc00117 	ldw	ra,4(sp)
 1425800:	df000017 	ldw	fp,0(sp)
 1425804:	dec00204 	addi	sp,sp,8
 1425808:	f800283a 	ret

0142580c <_ZN10Ws2812CoreC1Emii>:
 142580c:	defffa04 	addi	sp,sp,-24
 1425810:	dfc00515 	stw	ra,20(sp)
 1425814:	df000415 	stw	fp,16(sp)
 1425818:	df000404 	addi	fp,sp,16
 142581c:	e13ffc15 	stw	r4,-16(fp)
 1425820:	e17ffd15 	stw	r5,-12(fp)
 1425824:	e1bffe15 	stw	r6,-8(fp)
 1425828:	e1ffff15 	stw	r7,-4(fp)
 142582c:	e0bffc17 	ldw	r2,-16(fp)
 1425830:	e0fffd17 	ldw	r3,-12(fp)
 1425834:	10c00015 	stw	r3,0(r2)
 1425838:	e0bffc17 	ldw	r2,-16(fp)
 142583c:	e0fffe17 	ldw	r3,-8(fp)
 1425840:	10c00115 	stw	r3,4(r2)
 1425844:	e0bffc17 	ldw	r2,-16(fp)
 1425848:	e0ffff17 	ldw	r3,-4(fp)
 142584c:	10c00215 	stw	r3,8(r2)
 1425850:	000b883a 	mov	r5,zero
 1425854:	018ff434 	movhi	r6,16336
 1425858:	e13ffc17 	ldw	r4,-16(fp)
 142585c:	142589c0 	call	142589c <_ZN10Ws2812Core14set_brightnessEd>
 1425860:	0001883a 	nop
 1425864:	e037883a 	mov	sp,fp
 1425868:	dfc00117 	ldw	ra,4(sp)
 142586c:	df000017 	ldw	fp,0(sp)
 1425870:	dec00204 	addi	sp,sp,8
 1425874:	f800283a 	ret

01425878 <_ZN10Ws2812CoreD1Ev>:
 1425878:	defffe04 	addi	sp,sp,-8
 142587c:	df000115 	stw	fp,4(sp)
 1425880:	df000104 	addi	fp,sp,4
 1425884:	e13fff15 	stw	r4,-4(fp)
 1425888:	0001883a 	nop
 142588c:	e037883a 	mov	sp,fp
 1425890:	df000017 	ldw	fp,0(sp)
 1425894:	dec00104 	addi	sp,sp,4
 1425898:	f800283a 	ret

0142589c <_ZN10Ws2812Core14set_brightnessEd>:
 142589c:	defffb04 	addi	sp,sp,-20
 14258a0:	dfc00415 	stw	ra,16(sp)
 14258a4:	df000315 	stw	fp,12(sp)
 14258a8:	df000304 	addi	fp,sp,12
 14258ac:	e13ffd15 	stw	r4,-12(fp)
 14258b0:	e17ffe15 	stw	r5,-8(fp)
 14258b4:	e1bfff15 	stw	r6,-4(fp)
 14258b8:	000d883a 	mov	r6,zero
 14258bc:	01cffc34 	movhi	r7,16368
 14258c0:	e13ffe17 	ldw	r4,-8(fp)
 14258c4:	e17fff17 	ldw	r5,-4(fp)
 14258c8:	142a3a80 	call	142a3a8 <__gedf2>
 14258cc:	0080050e 	bge	zero,r2,14258e4 <_ZN10Ws2812Core14set_brightnessEd+0x48>
 14258d0:	e0bffd17 	ldw	r2,-12(fp)
 14258d4:	10000315 	stw	zero,12(r2)
 14258d8:	00cffc34 	movhi	r3,16368
 14258dc:	10c00415 	stw	r3,16(r2)
 14258e0:	00001006 	br	1425924 <_ZN10Ws2812Core14set_brightnessEd+0x88>
 14258e4:	000d883a 	mov	r6,zero
 14258e8:	000f883a 	mov	r7,zero
 14258ec:	e13ffe17 	ldw	r4,-8(fp)
 14258f0:	e17fff17 	ldw	r5,-4(fp)
 14258f4:	142a4840 	call	142a484 <__ledf2>
 14258f8:	1000040e 	bge	r2,zero,142590c <_ZN10Ws2812Core14set_brightnessEd+0x70>
 14258fc:	e0bffd17 	ldw	r2,-12(fp)
 1425900:	10000315 	stw	zero,12(r2)
 1425904:	10000415 	stw	zero,16(r2)
 1425908:	00000606 	br	1425924 <_ZN10Ws2812Core14set_brightnessEd+0x88>
 142590c:	e0bffd17 	ldw	r2,-12(fp)
 1425910:	e0fffe17 	ldw	r3,-8(fp)
 1425914:	10c00315 	stw	r3,12(r2)
 1425918:	e0ffff17 	ldw	r3,-4(fp)
 142591c:	10c00415 	stw	r3,16(r2)
 1425920:	0001883a 	nop
 1425924:	e037883a 	mov	sp,fp
 1425928:	dfc00117 	ldw	ra,4(sp)
 142592c:	df000017 	ldw	fp,0(sp)
 1425930:	dec00204 	addi	sp,sp,8
 1425934:	f800283a 	ret

01425938 <_ZN10Ws2812Core6wr_pixEiii>:
 1425938:	defff704 	addi	sp,sp,-36
 142593c:	dfc00815 	stw	ra,32(sp)
 1425940:	df000715 	stw	fp,28(sp)
 1425944:	df000704 	addi	fp,sp,28
 1425948:	e13ffc15 	stw	r4,-16(fp)
 142594c:	e17ffd15 	stw	r5,-12(fp)
 1425950:	e1bffe15 	stw	r6,-8(fp)
 1425954:	e1ffff15 	stw	r7,-4(fp)
 1425958:	e0bfff17 	ldw	r2,-4(fp)
 142595c:	e0bffb05 	stb	r2,-20(fp)
 1425960:	e0bfff17 	ldw	r2,-4(fp)
 1425964:	1005d23a 	srai	r2,r2,8
 1425968:	e0bffb45 	stb	r2,-19(fp)
 142596c:	e0bfff17 	ldw	r2,-4(fp)
 1425970:	1005d43a 	srai	r2,r2,16
 1425974:	e0bffb85 	stb	r2,-18(fp)
 1425978:	e13ffb83 	ldbu	r4,-18(fp)
 142597c:	e0bffb43 	ldbu	r2,-19(fp)
 1425980:	e0fffb03 	ldbu	r3,-20(fp)
 1425984:	d8c00115 	stw	r3,4(sp)
 1425988:	d8800015 	stw	r2,0(sp)
 142598c:	200f883a 	mov	r7,r4
 1425990:	e1bffe17 	ldw	r6,-8(fp)
 1425994:	e17ffd17 	ldw	r5,-12(fp)
 1425998:	e13ffc17 	ldw	r4,-16(fp)
 142599c:	14259b80 	call	14259b8 <_ZN10Ws2812Core6wr_pixEiihhh>
 14259a0:	0001883a 	nop
 14259a4:	e037883a 	mov	sp,fp
 14259a8:	dfc00117 	ldw	ra,4(sp)
 14259ac:	df000017 	ldw	fp,0(sp)
 14259b0:	dec00204 	addi	sp,sp,8
 14259b4:	f800283a 	ret

014259b8 <_ZN10Ws2812Core6wr_pixEiihhh>:
 14259b8:	defff104 	addi	sp,sp,-60
 14259bc:	dfc00e15 	stw	ra,56(sp)
 14259c0:	df000d15 	stw	fp,52(sp)
 14259c4:	df000d04 	addi	fp,sp,52
 14259c8:	e13ffa15 	stw	r4,-24(fp)
 14259cc:	e17ffb15 	stw	r5,-20(fp)
 14259d0:	e1bffc15 	stw	r6,-16(fp)
 14259d4:	3809883a 	mov	r4,r7
 14259d8:	e0c00217 	ldw	r3,8(fp)
 14259dc:	e0800317 	ldw	r2,12(fp)
 14259e0:	e13ffd05 	stb	r4,-12(fp)
 14259e4:	e0fffe05 	stb	r3,-8(fp)
 14259e8:	e0bfff05 	stb	r2,-4(fp)
 14259ec:	e0bffa17 	ldw	r2,-24(fp)
 14259f0:	10800117 	ldw	r2,4(r2)
 14259f4:	10bfffc4 	addi	r2,r2,-1
 14259f8:	e0fffb17 	ldw	r3,-20(fp)
 14259fc:	1880010e 	bge	r3,r2,1425a04 <_ZN10Ws2812Core6wr_pixEiihhh+0x4c>
 1425a00:	1805883a 	mov	r2,r3
 1425a04:	e0bff315 	stw	r2,-52(fp)
 1425a08:	e0bffa17 	ldw	r2,-24(fp)
 1425a0c:	10800217 	ldw	r2,8(r2)
 1425a10:	10bfffc4 	addi	r2,r2,-1
 1425a14:	e0fffc17 	ldw	r3,-16(fp)
 1425a18:	1880010e 	bge	r3,r2,1425a20 <_ZN10Ws2812Core6wr_pixEiihhh+0x68>
 1425a1c:	1805883a 	mov	r2,r3
 1425a20:	e0bff415 	stw	r2,-48(fp)
 1425a24:	e0bffa17 	ldw	r2,-24(fp)
 1425a28:	10800117 	ldw	r2,4(r2)
 1425a2c:	e17ff417 	ldw	r5,-48(fp)
 1425a30:	1009883a 	mov	r4,r2
 1425a34:	14288940 	call	1428894 <__mulsi3>
 1425a38:	1007883a 	mov	r3,r2
 1425a3c:	e0bff317 	ldw	r2,-52(fp)
 1425a40:	1885883a 	add	r2,r3,r2
 1425a44:	e0bff515 	stw	r2,-44(fp)
 1425a48:	e0bffd03 	ldbu	r2,-12(fp)
 1425a4c:	1009883a 	mov	r4,r2
 1425a50:	142b7600 	call	142b760 <__floatsidf>
 1425a54:	1011883a 	mov	r8,r2
 1425a58:	1813883a 	mov	r9,r3
 1425a5c:	e13ffa17 	ldw	r4,-24(fp)
 1425a60:	20800317 	ldw	r2,12(r4)
 1425a64:	20c00417 	ldw	r3,16(r4)
 1425a68:	100d883a 	mov	r6,r2
 1425a6c:	180f883a 	mov	r7,r3
 1425a70:	4009883a 	mov	r4,r8
 1425a74:	480b883a 	mov	r5,r9
 1425a78:	142a5780 	call	142a578 <__muldf3>
 1425a7c:	1009883a 	mov	r4,r2
 1425a80:	180b883a 	mov	r5,r3
 1425a84:	2005883a 	mov	r2,r4
 1425a88:	2807883a 	mov	r3,r5
 1425a8c:	1009883a 	mov	r4,r2
 1425a90:	180b883a 	mov	r5,r3
 1425a94:	1427aac0 	call	1427aac <__fixunsdfsi>
 1425a98:	e0bff615 	stw	r2,-40(fp)
 1425a9c:	e0bffe03 	ldbu	r2,-8(fp)
 1425aa0:	1009883a 	mov	r4,r2
 1425aa4:	142b7600 	call	142b760 <__floatsidf>
 1425aa8:	1011883a 	mov	r8,r2
 1425aac:	1813883a 	mov	r9,r3
 1425ab0:	e13ffa17 	ldw	r4,-24(fp)
 1425ab4:	20800317 	ldw	r2,12(r4)
 1425ab8:	20c00417 	ldw	r3,16(r4)
 1425abc:	100d883a 	mov	r6,r2
 1425ac0:	180f883a 	mov	r7,r3
 1425ac4:	4009883a 	mov	r4,r8
 1425ac8:	480b883a 	mov	r5,r9
 1425acc:	142a5780 	call	142a578 <__muldf3>
 1425ad0:	1009883a 	mov	r4,r2
 1425ad4:	180b883a 	mov	r5,r3
 1425ad8:	2005883a 	mov	r2,r4
 1425adc:	2807883a 	mov	r3,r5
 1425ae0:	1009883a 	mov	r4,r2
 1425ae4:	180b883a 	mov	r5,r3
 1425ae8:	1427aac0 	call	1427aac <__fixunsdfsi>
 1425aec:	e0bff715 	stw	r2,-36(fp)
 1425af0:	e0bfff03 	ldbu	r2,-4(fp)
 1425af4:	1009883a 	mov	r4,r2
 1425af8:	142b7600 	call	142b760 <__floatsidf>
 1425afc:	1011883a 	mov	r8,r2
 1425b00:	1813883a 	mov	r9,r3
 1425b04:	e13ffa17 	ldw	r4,-24(fp)
 1425b08:	20800317 	ldw	r2,12(r4)
 1425b0c:	20c00417 	ldw	r3,16(r4)
 1425b10:	100d883a 	mov	r6,r2
 1425b14:	180f883a 	mov	r7,r3
 1425b18:	4009883a 	mov	r4,r8
 1425b1c:	480b883a 	mov	r5,r9
 1425b20:	142a5780 	call	142a578 <__muldf3>
 1425b24:	1009883a 	mov	r4,r2
 1425b28:	180b883a 	mov	r5,r3
 1425b2c:	2005883a 	mov	r2,r4
 1425b30:	2807883a 	mov	r3,r5
 1425b34:	1009883a 	mov	r4,r2
 1425b38:	180b883a 	mov	r5,r3
 1425b3c:	1427aac0 	call	1427aac <__fixunsdfsi>
 1425b40:	e0bff815 	stw	r2,-32(fp)
 1425b44:	e0bff617 	ldw	r2,-40(fp)
 1425b48:	1006943a 	slli	r3,r2,16
 1425b4c:	e0bff717 	ldw	r2,-36(fp)
 1425b50:	1004923a 	slli	r2,r2,8
 1425b54:	1886b03a 	or	r3,r3,r2
 1425b58:	e0bff817 	ldw	r2,-32(fp)
 1425b5c:	1884b03a 	or	r2,r3,r2
 1425b60:	e0bff915 	stw	r2,-28(fp)
 1425b64:	e0bffa17 	ldw	r2,-24(fp)
 1425b68:	10800017 	ldw	r2,0(r2)
 1425b6c:	1007883a 	mov	r3,r2
 1425b70:	e0bff517 	ldw	r2,-44(fp)
 1425b74:	18800015 	stw	r2,0(r3)
 1425b78:	e0bffa17 	ldw	r2,-24(fp)
 1425b7c:	10800017 	ldw	r2,0(r2)
 1425b80:	10800104 	addi	r2,r2,4
 1425b84:	1007883a 	mov	r3,r2
 1425b88:	e0bff917 	ldw	r2,-28(fp)
 1425b8c:	18800015 	stw	r2,0(r3)
 1425b90:	0001883a 	nop
 1425b94:	e037883a 	mov	sp,fp
 1425b98:	dfc00117 	ldw	ra,4(sp)
 1425b9c:	df000017 	ldw	fp,0(sp)
 1425ba0:	dec00204 	addi	sp,sp,8
 1425ba4:	f800283a 	ret

01425ba8 <_ZN10Ws2812Core10clr_matrixEi>:
 1425ba8:	defffa04 	addi	sp,sp,-24
 1425bac:	dfc00515 	stw	ra,20(sp)
 1425bb0:	df000415 	stw	fp,16(sp)
 1425bb4:	df000404 	addi	fp,sp,16
 1425bb8:	e13ffe15 	stw	r4,-8(fp)
 1425bbc:	e17fff15 	stw	r5,-4(fp)
 1425bc0:	e03ffc15 	stw	zero,-16(fp)
 1425bc4:	e0bffe17 	ldw	r2,-8(fp)
 1425bc8:	10800117 	ldw	r2,4(r2)
 1425bcc:	e0fffc17 	ldw	r3,-16(fp)
 1425bd0:	1880120e 	bge	r3,r2,1425c1c <_ZN10Ws2812Core10clr_matrixEi+0x74>
 1425bd4:	e03ffd15 	stw	zero,-12(fp)
 1425bd8:	e0bffe17 	ldw	r2,-8(fp)
 1425bdc:	10800217 	ldw	r2,8(r2)
 1425be0:	e0fffc17 	ldw	r3,-16(fp)
 1425be4:	1880090e 	bge	r3,r2,1425c0c <_ZN10Ws2812Core10clr_matrixEi+0x64>
 1425be8:	e1ffff17 	ldw	r7,-4(fp)
 1425bec:	e1bffd17 	ldw	r6,-12(fp)
 1425bf0:	e17ffc17 	ldw	r5,-16(fp)
 1425bf4:	e13ffe17 	ldw	r4,-8(fp)
 1425bf8:	14259380 	call	1425938 <_ZN10Ws2812Core6wr_pixEiii>
 1425bfc:	e0bffd17 	ldw	r2,-12(fp)
 1425c00:	10800044 	addi	r2,r2,1
 1425c04:	e0bffd15 	stw	r2,-12(fp)
 1425c08:	003ff306 	br	1425bd8 <__alt_data_end+0xfffe5bd8>
 1425c0c:	e0bffc17 	ldw	r2,-16(fp)
 1425c10:	10800044 	addi	r2,r2,1
 1425c14:	e0bffc15 	stw	r2,-16(fp)
 1425c18:	003fea06 	br	1425bc4 <__alt_data_end+0xfffe5bc4>
 1425c1c:	0001883a 	nop
 1425c20:	e037883a 	mov	sp,fp
 1425c24:	dfc00117 	ldw	ra,4(sp)
 1425c28:	df000017 	ldw	fp,0(sp)
 1425c2c:	dec00204 	addi	sp,sp,8
 1425c30:	f800283a 	ret

01425c34 <_ZL21size_of_encoded_valueh>:
 1425c34:	deffff04 	addi	sp,sp,-4
 1425c38:	dfc00015 	stw	ra,0(sp)
 1425c3c:	20c03fcc 	andi	r3,r4,255
 1425c40:	00803fc4 	movi	r2,255
 1425c44:	18802026 	beq	r3,r2,1425cc8 <_ZL21size_of_encoded_valueh+0x94>
 1425c48:	210001cc 	andi	r4,r4,7
 1425c4c:	00800144 	movi	r2,5
 1425c50:	11001c36 	bltu	r2,r4,1425cc4 <_ZL21size_of_encoded_valueh+0x90>
 1425c54:	200890ba 	slli	r4,r4,2
 1425c58:	008050b4 	movhi	r2,322
 1425c5c:	10971b04 	addi	r2,r2,23660
 1425c60:	2089883a 	add	r4,r4,r2
 1425c64:	20800017 	ldw	r2,0(r4)
 1425c68:	1000683a 	jmp	r2
 1425c6c:	01425c84 	movi	r5,2418
 1425c70:	01425cc4 	movi	r5,2419
 1425c74:	01425c94 	movui	r5,2418
 1425c78:	01425c84 	movi	r5,2418
 1425c7c:	01425cb4 	movhi	r5,2418
 1425c80:	01425ca4 	muli	r5,zero,2418
 1425c84:	00800104 	movi	r2,4
 1425c88:	dfc00017 	ldw	ra,0(sp)
 1425c8c:	dec00104 	addi	sp,sp,4
 1425c90:	f800283a 	ret
 1425c94:	00800084 	movi	r2,2
 1425c98:	dfc00017 	ldw	ra,0(sp)
 1425c9c:	dec00104 	addi	sp,sp,4
 1425ca0:	f800283a 	ret
 1425ca4:	00800044 	movi	r2,1
 1425ca8:	dfc00017 	ldw	ra,0(sp)
 1425cac:	dec00104 	addi	sp,sp,4
 1425cb0:	f800283a 	ret
 1425cb4:	00800204 	movi	r2,8
 1425cb8:	dfc00017 	ldw	ra,0(sp)
 1425cbc:	dec00104 	addi	sp,sp,4
 1425cc0:	f800283a 	ret
 1425cc4:	142be680 	call	142be68 <abort>
 1425cc8:	0005883a 	mov	r2,zero
 1425ccc:	dfc00017 	ldw	ra,0(sp)
 1425cd0:	dec00104 	addi	sp,sp,4
 1425cd4:	f800283a 	ret

01425cd8 <_ZL28read_encoded_value_with_basehjPKhPj>:
 1425cd8:	deffff04 	addi	sp,sp,-4
 1425cdc:	dfc00015 	stw	ra,0(sp)
 1425ce0:	20c03fcc 	andi	r3,r4,255
 1425ce4:	00801404 	movi	r2,80
 1425ce8:	18807326 	beq	r3,r2,1425eb8 <_ZL28read_encoded_value_with_basehjPKhPj+0x1e0>
 1425cec:	20c003cc 	andi	r3,r4,15
 1425cf0:	00800304 	movi	r2,12
 1425cf4:	10c06f36 	bltu	r2,r3,1425eb4 <_ZL28read_encoded_value_with_basehjPKhPj+0x1dc>
 1425cf8:	180690ba 	slli	r3,r3,2
 1425cfc:	020050b4 	movhi	r8,322
 1425d00:	42174404 	addi	r8,r8,23824
 1425d04:	1a07883a 	add	r3,r3,r8
 1425d08:	18800017 	ldw	r2,0(r3)
 1425d0c:	1000683a 	jmp	r2
 1425d10:	01425d44 	movi	r5,2421
 1425d14:	01425e60 	cmpeqi	r5,zero,2425
 1425d18:	01425e9c 	xori	r5,zero,2426
 1425d1c:	01425d44 	movi	r5,2421
 1425d20:	01425da8 	cmpgeui	r5,zero,2422
 1425d24:	01425dfc 	xorhi	r5,zero,2423
 1425d28:	01425eb4 	movhi	r5,2426
 1425d2c:	01425eb4 	movhi	r5,2426
 1425d30:	01425eb4 	movhi	r5,2426
 1425d34:	01425e08 	cmpgei	r5,zero,2424
 1425d38:	01425dd8 	cmpnei	r5,zero,2423
 1425d3c:	01425d44 	movi	r5,2421
 1425d40:	01425da8 	cmpgeui	r5,zero,2422
 1425d44:	30800043 	ldbu	r2,1(r6)
 1425d48:	30c00083 	ldbu	r3,2(r6)
 1425d4c:	324000c3 	ldbu	r9,3(r6)
 1425d50:	32000003 	ldbu	r8,0(r6)
 1425d54:	1004923a 	slli	r2,r2,8
 1425d58:	1806943a 	slli	r3,r3,16
 1425d5c:	4812963a 	slli	r9,r9,24
 1425d60:	1204b03a 	or	r2,r2,r8
 1425d64:	1884b03a 	or	r2,r3,r2
 1425d68:	4886b03a 	or	r3,r9,r2
 1425d6c:	30800104 	addi	r2,r6,4
 1425d70:	18000926 	beq	r3,zero,1425d98 <_ZL28read_encoded_value_with_basehjPKhPj+0xc0>
 1425d74:	22001c0c 	andi	r8,r4,112
 1425d78:	02400404 	movi	r9,16
 1425d7c:	42405726 	beq	r8,r9,1425edc <_ZL28read_encoded_value_with_basehjPKhPj+0x204>
 1425d80:	21003fcc 	andi	r4,r4,255
 1425d84:	2100201c 	xori	r4,r4,128
 1425d88:	213fe004 	addi	r4,r4,-128
 1425d8c:	1947883a 	add	r3,r3,r5
 1425d90:	2000010e 	bge	r4,zero,1425d98 <_ZL28read_encoded_value_with_basehjPKhPj+0xc0>
 1425d94:	18c00017 	ldw	r3,0(r3)
 1425d98:	38c00015 	stw	r3,0(r7)
 1425d9c:	dfc00017 	ldw	ra,0(sp)
 1425da0:	dec00104 	addi	sp,sp,4
 1425da4:	f800283a 	ret
 1425da8:	30800043 	ldbu	r2,1(r6)
 1425dac:	30c00083 	ldbu	r3,2(r6)
 1425db0:	324000c3 	ldbu	r9,3(r6)
 1425db4:	32000003 	ldbu	r8,0(r6)
 1425db8:	1004923a 	slli	r2,r2,8
 1425dbc:	1806943a 	slli	r3,r3,16
 1425dc0:	4812963a 	slli	r9,r9,24
 1425dc4:	1204b03a 	or	r2,r2,r8
 1425dc8:	1884b03a 	or	r2,r3,r2
 1425dcc:	4886b03a 	or	r3,r9,r2
 1425dd0:	30800204 	addi	r2,r6,8
 1425dd4:	003fe606 	br	1425d70 <__alt_data_end+0xfffe5d70>
 1425dd8:	30c00043 	ldbu	r3,1(r6)
 1425ddc:	32000003 	ldbu	r8,0(r6)
 1425de0:	30800084 	addi	r2,r6,2
 1425de4:	1806923a 	slli	r3,r3,8
 1425de8:	1a06b03a 	or	r3,r3,r8
 1425dec:	18ffffcc 	andi	r3,r3,65535
 1425df0:	18e0001c 	xori	r3,r3,32768
 1425df4:	18e00004 	addi	r3,r3,-32768
 1425df8:	003fdd06 	br	1425d70 <__alt_data_end+0xfffe5d70>
 1425dfc:	30c00003 	ldbu	r3,0(r6)
 1425e00:	30800044 	addi	r2,r6,1
 1425e04:	003fda06 	br	1425d70 <__alt_data_end+0xfffe5d70>
 1425e08:	3017883a 	mov	r11,r6
 1425e0c:	0007883a 	mov	r3,zero
 1425e10:	0013883a 	mov	r9,zero
 1425e14:	5a800003 	ldbu	r10,0(r11)
 1425e18:	58800044 	addi	r2,r11,1
 1425e1c:	1017883a 	mov	r11,r2
 1425e20:	52001fcc 	andi	r8,r10,127
 1425e24:	4250983a 	sll	r8,r8,r9
 1425e28:	53003fcc 	andi	r12,r10,255
 1425e2c:	6300201c 	xori	r12,r12,128
 1425e30:	633fe004 	addi	r12,r12,-128
 1425e34:	1a06b03a 	or	r3,r3,r8
 1425e38:	4a4001c4 	addi	r9,r9,7
 1425e3c:	603ff516 	blt	r12,zero,1425e14 <__alt_data_end+0xfffe5e14>
 1425e40:	020007c4 	movi	r8,31
 1425e44:	427fca36 	bltu	r8,r9,1425d70 <__alt_data_end+0xfffe5d70>
 1425e48:	5280100c 	andi	r10,r10,64
 1425e4c:	503fc826 	beq	r10,zero,1425d70 <__alt_data_end+0xfffe5d70>
 1425e50:	023fffc4 	movi	r8,-1
 1425e54:	4252983a 	sll	r9,r8,r9
 1425e58:	1a46b03a 	or	r3,r3,r9
 1425e5c:	003fc506 	br	1425d74 <__alt_data_end+0xfffe5d74>
 1425e60:	3017883a 	mov	r11,r6
 1425e64:	0007883a 	mov	r3,zero
 1425e68:	0015883a 	mov	r10,zero
 1425e6c:	5a000003 	ldbu	r8,0(r11)
 1425e70:	58800044 	addi	r2,r11,1
 1425e74:	1017883a 	mov	r11,r2
 1425e78:	42401fcc 	andi	r9,r8,127
 1425e7c:	4a92983a 	sll	r9,r9,r10
 1425e80:	42003fcc 	andi	r8,r8,255
 1425e84:	4200201c 	xori	r8,r8,128
 1425e88:	423fe004 	addi	r8,r8,-128
 1425e8c:	1a46b03a 	or	r3,r3,r9
 1425e90:	528001c4 	addi	r10,r10,7
 1425e94:	403ff516 	blt	r8,zero,1425e6c <__alt_data_end+0xfffe5e6c>
 1425e98:	003fb506 	br	1425d70 <__alt_data_end+0xfffe5d70>
 1425e9c:	30c00043 	ldbu	r3,1(r6)
 1425ea0:	32000003 	ldbu	r8,0(r6)
 1425ea4:	30800084 	addi	r2,r6,2
 1425ea8:	1806923a 	slli	r3,r3,8
 1425eac:	1a06b03a 	or	r3,r3,r8
 1425eb0:	003faf06 	br	1425d70 <__alt_data_end+0xfffe5d70>
 1425eb4:	142be680 	call	142be68 <abort>
 1425eb8:	308000c4 	addi	r2,r6,3
 1425ebc:	00ffff04 	movi	r3,-4
 1425ec0:	10c4703a 	and	r2,r2,r3
 1425ec4:	10c00017 	ldw	r3,0(r2)
 1425ec8:	10800104 	addi	r2,r2,4
 1425ecc:	38c00015 	stw	r3,0(r7)
 1425ed0:	dfc00017 	ldw	ra,0(sp)
 1425ed4:	dec00104 	addi	sp,sp,4
 1425ed8:	f800283a 	ret
 1425edc:	300b883a 	mov	r5,r6
 1425ee0:	003fa706 	br	1425d80 <__alt_data_end+0xfffe5d80>

01425ee4 <_ZL15get_ttype_entryP16lsda_header_infom>:
 1425ee4:	defffc04 	addi	sp,sp,-16
 1425ee8:	dfc00315 	stw	ra,12(sp)
 1425eec:	dc000215 	stw	r16,8(sp)
 1425ef0:	2021883a 	mov	r16,r4
 1425ef4:	21000503 	ldbu	r4,20(r4)
 1425ef8:	d9400115 	stw	r5,4(sp)
 1425efc:	1425c340 	call	1425c34 <_ZL21size_of_encoded_valueh>
 1425f00:	d9400117 	ldw	r5,4(sp)
 1425f04:	1009883a 	mov	r4,r2
 1425f08:	14288940 	call	1428894 <__mulsi3>
 1425f0c:	81800317 	ldw	r6,12(r16)
 1425f10:	81400217 	ldw	r5,8(r16)
 1425f14:	81000503 	ldbu	r4,20(r16)
 1425f18:	d80f883a 	mov	r7,sp
 1425f1c:	308dc83a 	sub	r6,r6,r2
 1425f20:	1425cd80 	call	1425cd8 <_ZL28read_encoded_value_with_basehjPKhPj>
 1425f24:	d8800017 	ldw	r2,0(sp)
 1425f28:	dfc00317 	ldw	ra,12(sp)
 1425f2c:	dc000217 	ldw	r16,8(sp)
 1425f30:	dec00404 	addi	sp,sp,16
 1425f34:	f800283a 	ret

01425f38 <_ZL21base_of_encoded_valuehP15_Unwind_Context>:
 1425f38:	deffff04 	addi	sp,sp,-4
 1425f3c:	dfc00015 	stw	ra,0(sp)
 1425f40:	20c03fcc 	andi	r3,r4,255
 1425f44:	00803fc4 	movi	r2,255
 1425f48:	18800e26 	beq	r3,r2,1425f84 <_ZL21base_of_encoded_valuehP15_Unwind_Context+0x4c>
 1425f4c:	20801c0c 	andi	r2,r4,112
 1425f50:	00c00804 	movi	r3,32
 1425f54:	10c01726 	beq	r2,r3,1425fb4 <_ZL21base_of_encoded_valuehP15_Unwind_Context+0x7c>
 1425f58:	18800e2e 	bgeu	r3,r2,1425f94 <_ZL21base_of_encoded_valuehP15_Unwind_Context+0x5c>
 1425f5c:	00c01004 	movi	r3,64
 1425f60:	10c01026 	beq	r2,r3,1425fa4 <_ZL21base_of_encoded_valuehP15_Unwind_Context+0x6c>
 1425f64:	00c01404 	movi	r3,80
 1425f68:	10c00626 	beq	r2,r3,1425f84 <_ZL21base_of_encoded_valuehP15_Unwind_Context+0x4c>
 1425f6c:	00c00c04 	movi	r3,48
 1425f70:	10c00b1e 	bne	r2,r3,1425fa0 <_ZL21base_of_encoded_valuehP15_Unwind_Context+0x68>
 1425f74:	2809883a 	mov	r4,r5
 1425f78:	dfc00017 	ldw	ra,0(sp)
 1425f7c:	dec00104 	addi	sp,sp,4
 1425f80:	142bbc41 	jmpi	142bbc4 <_Unwind_GetDataRelBase>
 1425f84:	0005883a 	mov	r2,zero
 1425f88:	dfc00017 	ldw	ra,0(sp)
 1425f8c:	dec00104 	addi	sp,sp,4
 1425f90:	f800283a 	ret
 1425f94:	103ffb26 	beq	r2,zero,1425f84 <__alt_data_end+0xfffe5f84>
 1425f98:	00c00404 	movi	r3,16
 1425f9c:	10fff926 	beq	r2,r3,1425f84 <__alt_data_end+0xfffe5f84>
 1425fa0:	142be680 	call	142be68 <abort>
 1425fa4:	2809883a 	mov	r4,r5
 1425fa8:	dfc00017 	ldw	ra,0(sp)
 1425fac:	dec00104 	addi	sp,sp,4
 1425fb0:	142bbb41 	jmpi	142bbb4 <_Unwind_GetRegionStart>
 1425fb4:	2809883a 	mov	r4,r5
 1425fb8:	dfc00017 	ldw	ra,0(sp)
 1425fbc:	dec00104 	addi	sp,sp,4
 1425fc0:	142bbcc1 	jmpi	142bbcc <_Unwind_GetTextRelBase>

01425fc4 <_ZL17parse_lsda_headerP15_Unwind_ContextPKhP16lsda_header_info>:
 1425fc4:	defffb04 	addi	sp,sp,-20
 1425fc8:	dcc00315 	stw	r19,12(sp)
 1425fcc:	dc400115 	stw	r17,4(sp)
 1425fd0:	dc000015 	stw	r16,0(sp)
 1425fd4:	dfc00415 	stw	ra,16(sp)
 1425fd8:	dc800215 	stw	r18,8(sp)
 1425fdc:	2027883a 	mov	r19,r4
 1425fe0:	2821883a 	mov	r16,r5
 1425fe4:	3023883a 	mov	r17,r6
 1425fe8:	20003f26 	beq	r4,zero,14260e8 <_ZL17parse_lsda_headerP15_Unwind_ContextPKhP16lsda_header_info+0x124>
 1425fec:	142bbb40 	call	142bbb4 <_Unwind_GetRegionStart>
 1425ff0:	88800015 	stw	r2,0(r17)
 1425ff4:	84800003 	ldbu	r18,0(r16)
 1425ff8:	00c03fc4 	movi	r3,255
 1425ffc:	84000044 	addi	r16,r16,1
 1426000:	90c03726 	beq	r18,r3,14260e0 <_ZL17parse_lsda_headerP15_Unwind_ContextPKhP16lsda_header_info+0x11c>
 1426004:	980b883a 	mov	r5,r19
 1426008:	9009883a 	mov	r4,r18
 142600c:	1425f380 	call	1425f38 <_ZL21base_of_encoded_valuehP15_Unwind_Context>
 1426010:	800d883a 	mov	r6,r16
 1426014:	89c00104 	addi	r7,r17,4
 1426018:	100b883a 	mov	r5,r2
 142601c:	9009883a 	mov	r4,r18
 1426020:	1425cd80 	call	1425cd8 <_ZL28read_encoded_value_with_basehjPKhPj>
 1426024:	1021883a 	mov	r16,r2
 1426028:	80c00003 	ldbu	r3,0(r16)
 142602c:	01003fc4 	movi	r4,255
 1426030:	80800044 	addi	r2,r16,1
 1426034:	88c00505 	stb	r3,20(r17)
 1426038:	18c03fcc 	andi	r3,r3,255
 142603c:	19002c26 	beq	r3,r4,14260f0 <_ZL17parse_lsda_headerP15_Unwind_ContextPKhP16lsda_header_info+0x12c>
 1426040:	100f883a 	mov	r7,r2
 1426044:	000d883a 	mov	r6,zero
 1426048:	000b883a 	mov	r5,zero
 142604c:	38c00003 	ldbu	r3,0(r7)
 1426050:	10800044 	addi	r2,r2,1
 1426054:	100f883a 	mov	r7,r2
 1426058:	19001fcc 	andi	r4,r3,127
 142605c:	2148983a 	sll	r4,r4,r5
 1426060:	18c03fcc 	andi	r3,r3,255
 1426064:	18c0201c 	xori	r3,r3,128
 1426068:	18ffe004 	addi	r3,r3,-128
 142606c:	310cb03a 	or	r6,r6,r4
 1426070:	294001c4 	addi	r5,r5,7
 1426074:	183ff516 	blt	r3,zero,142604c <__alt_data_end+0xfffe604c>
 1426078:	118d883a 	add	r6,r2,r6
 142607c:	89800315 	stw	r6,12(r17)
 1426080:	10c00003 	ldbu	r3,0(r2)
 1426084:	000d883a 	mov	r6,zero
 1426088:	10800044 	addi	r2,r2,1
 142608c:	88c00545 	stb	r3,21(r17)
 1426090:	000b883a 	mov	r5,zero
 1426094:	10c00003 	ldbu	r3,0(r2)
 1426098:	10800044 	addi	r2,r2,1
 142609c:	19001fcc 	andi	r4,r3,127
 14260a0:	2148983a 	sll	r4,r4,r5
 14260a4:	18c03fcc 	andi	r3,r3,255
 14260a8:	18c0201c 	xori	r3,r3,128
 14260ac:	18ffe004 	addi	r3,r3,-128
 14260b0:	310cb03a 	or	r6,r6,r4
 14260b4:	294001c4 	addi	r5,r5,7
 14260b8:	183ff616 	blt	r3,zero,1426094 <__alt_data_end+0xfffe6094>
 14260bc:	118d883a 	add	r6,r2,r6
 14260c0:	89800415 	stw	r6,16(r17)
 14260c4:	dfc00417 	ldw	ra,16(sp)
 14260c8:	dcc00317 	ldw	r19,12(sp)
 14260cc:	dc800217 	ldw	r18,8(sp)
 14260d0:	dc400117 	ldw	r17,4(sp)
 14260d4:	dc000017 	ldw	r16,0(sp)
 14260d8:	dec00504 	addi	sp,sp,20
 14260dc:	f800283a 	ret
 14260e0:	88800115 	stw	r2,4(r17)
 14260e4:	003fd006 	br	1426028 <__alt_data_end+0xfffe6028>
 14260e8:	0005883a 	mov	r2,zero
 14260ec:	003fc006 	br	1425ff0 <__alt_data_end+0xfffe5ff0>
 14260f0:	88000315 	stw	zero,12(r17)
 14260f4:	003fe206 	br	1426080 <__alt_data_end+0xfffe6080>

014260f8 <_ZL16get_adjusted_ptrPKSt9type_infoS1_PPv.constprop.3>:
 14260f8:	28800017 	ldw	r2,0(r5)
 14260fc:	30c00017 	ldw	r3,0(r6)
 1426100:	defffb04 	addi	sp,sp,-20
 1426104:	10800217 	ldw	r2,8(r2)
 1426108:	dc400315 	stw	r17,12(sp)
 142610c:	dc000215 	stw	r16,8(sp)
 1426110:	d9400115 	stw	r5,4(sp)
 1426114:	dfc00415 	stw	ra,16(sp)
 1426118:	2021883a 	mov	r16,r4
 142611c:	d8c00015 	stw	r3,0(sp)
 1426120:	2809883a 	mov	r4,r5
 1426124:	3023883a 	mov	r17,r6
 1426128:	103ee83a 	callr	r2
 142612c:	10803fcc 	andi	r2,r2,255
 1426130:	d9400117 	ldw	r5,4(sp)
 1426134:	10000326 	beq	r2,zero,1426144 <_ZL16get_adjusted_ptrPKSt9type_infoS1_PPv.constprop.3+0x4c>
 1426138:	d8800017 	ldw	r2,0(sp)
 142613c:	10800017 	ldw	r2,0(r2)
 1426140:	d8800015 	stw	r2,0(sp)
 1426144:	80800017 	ldw	r2,0(r16)
 1426148:	01c00044 	movi	r7,1
 142614c:	d80d883a 	mov	r6,sp
 1426150:	10800417 	ldw	r2,16(r2)
 1426154:	8009883a 	mov	r4,r16
 1426158:	103ee83a 	callr	r2
 142615c:	10c03fcc 	andi	r3,r2,255
 1426160:	18000226 	beq	r3,zero,142616c <_ZL16get_adjusted_ptrPKSt9type_infoS1_PPv.constprop.3+0x74>
 1426164:	d8c00017 	ldw	r3,0(sp)
 1426168:	88c00015 	stw	r3,0(r17)
 142616c:	dfc00417 	ldw	ra,16(sp)
 1426170:	dc400317 	ldw	r17,12(sp)
 1426174:	dc000217 	ldw	r16,8(sp)
 1426178:	dec00504 	addi	sp,sp,20
 142617c:	f800283a 	ret

01426180 <_ZL28check_compact_exception_specPKSt9type_infoPvPKhij>:
 1426180:	defff304 	addi	sp,sp,-52
 1426184:	dc800615 	stw	r18,24(sp)
 1426188:	3825d23a 	srai	r18,r7,8
 142618c:	dd000815 	stw	r20,32(sp)
 1426190:	dcc00715 	stw	r19,28(sp)
 1426194:	dfc00c15 	stw	ra,48(sp)
 1426198:	ddc00b15 	stw	r23,44(sp)
 142619c:	dd800a15 	stw	r22,40(sp)
 14261a0:	dd400915 	stw	r21,36(sp)
 14261a4:	dc400515 	stw	r17,20(sp)
 14261a8:	dc000415 	stw	r16,16(sp)
 14261ac:	d9400215 	stw	r5,8(sp)
 14261b0:	3827883a 	mov	r19,r7
 14261b4:	2029883a 	mov	r20,r4
 14261b8:	9000010e 	bge	r18,zero,14261c0 <_ZL28check_compact_exception_specPKSt9type_infoPvPKhij+0x40>
 14261bc:	04a5c83a 	sub	r18,zero,r18
 14261c0:	000b883a 	mov	r5,zero
 14261c4:	01000144 	movi	r4,5
 14261c8:	d9800315 	stw	r6,12(sp)
 14261cc:	1425f380 	call	1425f38 <_ZL21base_of_encoded_valuehP15_Unwind_Context>
 14261d0:	d9800317 	ldw	r6,12(sp)
 14261d4:	d9c00104 	addi	r7,sp,4
 14261d8:	100b883a 	mov	r5,r2
 14261dc:	01000144 	movi	r4,5
 14261e0:	1425cd80 	call	1425cd8 <_ZL28read_encoded_value_with_basehjPKhPj>
 14261e4:	017ffe44 	movi	r5,-7
 14261e8:	1009883a 	mov	r4,r2
 14261ec:	1021883a 	mov	r16,r2
 14261f0:	14288940 	call	1428894 <__mulsi3>
 14261f4:	102d883a 	mov	r22,r2
 14261f8:	0023883a 	mov	r17,zero
 14261fc:	85400003 	ldbu	r21,0(r16)
 1426200:	8009883a 	mov	r4,r16
 1426204:	014001c4 	movi	r5,7
 1426208:	14288940 	call	1428894 <__mulsi3>
 142620c:	a8c01fcc 	andi	r3,r21,127
 1426210:	1585883a 	add	r2,r2,r22
 1426214:	1886983a 	sll	r3,r3,r2
 1426218:	ad403fcc 	andi	r21,r21,255
 142621c:	ad40201c 	xori	r21,r21,128
 1426220:	ad7fe004 	addi	r21,r21,-128
 1426224:	84000044 	addi	r16,r16,1
 1426228:	88e2b03a 	or	r17,r17,r3
 142622c:	a83ff316 	blt	r21,zero,14261fc <__alt_data_end+0xfffe61fc>
 1426230:	8461883a 	add	r16,r16,r17
 1426234:	017ffe44 	movi	r5,-7
 1426238:	8009883a 	mov	r4,r16
 142623c:	14288940 	call	1428894 <__mulsi3>
 1426240:	102d883a 	mov	r22,r2
 1426244:	002b883a 	mov	r21,zero
 1426248:	84400003 	ldbu	r17,0(r16)
 142624c:	8009883a 	mov	r4,r16
 1426250:	014001c4 	movi	r5,7
 1426254:	14288940 	call	1428894 <__mulsi3>
 1426258:	88c01fcc 	andi	r3,r17,127
 142625c:	1585883a 	add	r2,r2,r22
 1426260:	1886983a 	sll	r3,r3,r2
 1426264:	8c403fcc 	andi	r17,r17,255
 1426268:	8c40201c 	xori	r17,r17,128
 142626c:	8c7fe004 	addi	r17,r17,-128
 1426270:	84000044 	addi	r16,r16,1
 1426274:	a8eab03a 	or	r21,r21,r3
 1426278:	883ff316 	blt	r17,zero,1426248 <__alt_data_end+0xfffe6248>
 142627c:	94403fcc 	andi	r17,r18,255
 1426280:	8c7fffc4 	addi	r17,r17,-1
 1426284:	8463883a 	add	r17,r16,r17
 1426288:	ad4000c4 	addi	r21,r21,3
 142628c:	00bfff04 	movi	r2,-4
 1426290:	ac21883a 	add	r16,r21,r16
 1426294:	017ffe44 	movi	r5,-7
 1426298:	8809883a 	mov	r4,r17
 142629c:	80a0703a 	and	r16,r16,r2
 14262a0:	14288940 	call	1428894 <__mulsi3>
 14262a4:	0025883a 	mov	r18,zero
 14262a8:	102f883a 	mov	r23,r2
 14262ac:	8d800003 	ldbu	r22,0(r17)
 14262b0:	8809883a 	mov	r4,r17
 14262b4:	014001c4 	movi	r5,7
 14262b8:	14288940 	call	1428894 <__mulsi3>
 14262bc:	b0c01fcc 	andi	r3,r22,127
 14262c0:	15c5883a 	add	r2,r2,r23
 14262c4:	1886983a 	sll	r3,r3,r2
 14262c8:	b5803fcc 	andi	r22,r22,255
 14262cc:	b580201c 	xori	r22,r22,128
 14262d0:	8d400044 	addi	r21,r17,1
 14262d4:	b5bfe004 	addi	r22,r22,-128
 14262d8:	90e4b03a 	or	r18,r18,r3
 14262dc:	a823883a 	mov	r17,r21
 14262e0:	b03ff216 	blt	r22,zero,14262ac <__alt_data_end+0xfffe62ac>
 14262e4:	9cc03fcc 	andi	r19,r19,255
 14262e8:	90002426 	beq	r18,zero,142637c <_ZL28check_compact_exception_specPKSt9type_infoPvPKhij+0x1fc>
 14262ec:	9809883a 	mov	r4,r19
 14262f0:	1425c340 	call	1425c34 <_ZL21size_of_encoded_valueh>
 14262f4:	100b883a 	mov	r5,r2
 14262f8:	913fffc4 	addi	r4,r18,-1
 14262fc:	14288940 	call	1428894 <__mulsi3>
 1426300:	d9400d17 	ldw	r5,52(sp)
 1426304:	d80f883a 	mov	r7,sp
 1426308:	9809883a 	mov	r4,r19
 142630c:	140d883a 	add	r6,r2,r16
 1426310:	1425cd80 	call	1425cd8 <_ZL28read_encoded_value_with_basehjPKhPj>
 1426314:	d9000017 	ldw	r4,0(sp)
 1426318:	d9800204 	addi	r6,sp,8
 142631c:	a00b883a 	mov	r5,r20
 1426320:	14260f80 	call	14260f8 <_ZL16get_adjusted_ptrPKSt9type_infoS1_PPv.constprop.3>
 1426324:	10c03fcc 	andi	r3,r2,255
 1426328:	1800151e 	bne	r3,zero,1426380 <_ZL28check_compact_exception_specPKSt9type_infoPvPKhij+0x200>
 142632c:	a809883a 	mov	r4,r21
 1426330:	017ffe44 	movi	r5,-7
 1426334:	14288940 	call	1428894 <__mulsi3>
 1426338:	102d883a 	mov	r22,r2
 142633c:	a809883a 	mov	r4,r21
 1426340:	0025883a 	mov	r18,zero
 1426344:	24400003 	ldbu	r17,0(r4)
 1426348:	014001c4 	movi	r5,7
 142634c:	14288940 	call	1428894 <__mulsi3>
 1426350:	88c01fcc 	andi	r3,r17,127
 1426354:	1585883a 	add	r2,r2,r22
 1426358:	1886983a 	sll	r3,r3,r2
 142635c:	8c403fcc 	andi	r17,r17,255
 1426360:	8c40201c 	xori	r17,r17,128
 1426364:	ad400044 	addi	r21,r21,1
 1426368:	8c7fe004 	addi	r17,r17,-128
 142636c:	90e4b03a 	or	r18,r18,r3
 1426370:	a809883a 	mov	r4,r21
 1426374:	883ff316 	blt	r17,zero,1426344 <__alt_data_end+0xfffe6344>
 1426378:	003fdb06 	br	14262e8 <__alt_data_end+0xfffe62e8>
 142637c:	0005883a 	mov	r2,zero
 1426380:	dfc00c17 	ldw	ra,48(sp)
 1426384:	ddc00b17 	ldw	r23,44(sp)
 1426388:	dd800a17 	ldw	r22,40(sp)
 142638c:	dd400917 	ldw	r21,36(sp)
 1426390:	dd000817 	ldw	r20,32(sp)
 1426394:	dcc00717 	ldw	r19,28(sp)
 1426398:	dc800617 	ldw	r18,24(sp)
 142639c:	dc400517 	ldw	r17,20(sp)
 14263a0:	dc000417 	ldw	r16,16(sp)
 14263a4:	dec00d04 	addi	sp,sp,52
 14263a8:	f800283a 	ret

014263ac <_ZL20check_exception_specP16lsda_header_infoPKSt9type_infoPvl>:
 14263ac:	defffb04 	addi	sp,sp,-20
 14263b0:	dc000115 	stw	r16,4(sp)
 14263b4:	24000317 	ldw	r16,12(r4)
 14263b8:	01ce303a 	nor	r7,zero,r7
 14263bc:	dc800315 	stw	r18,12(sp)
 14263c0:	dc400215 	stw	r17,8(sp)
 14263c4:	dfc00415 	stw	ra,16(sp)
 14263c8:	2023883a 	mov	r17,r4
 14263cc:	2825883a 	mov	r18,r5
 14263d0:	d9800015 	stw	r6,0(sp)
 14263d4:	81e1883a 	add	r16,r16,r7
 14263d8:	800d883a 	mov	r6,r16
 14263dc:	000b883a 	mov	r5,zero
 14263e0:	0009883a 	mov	r4,zero
 14263e4:	30800003 	ldbu	r2,0(r6)
 14263e8:	84000044 	addi	r16,r16,1
 14263ec:	800d883a 	mov	r6,r16
 14263f0:	10c01fcc 	andi	r3,r2,127
 14263f4:	1906983a 	sll	r3,r3,r4
 14263f8:	10803fcc 	andi	r2,r2,255
 14263fc:	1080201c 	xori	r2,r2,128
 1426400:	10bfe004 	addi	r2,r2,-128
 1426404:	28cab03a 	or	r5,r5,r3
 1426408:	210001c4 	addi	r4,r4,7
 142640c:	103ff516 	blt	r2,zero,14263e4 <__alt_data_end+0xfffe63e4>
 1426410:	28000e26 	beq	r5,zero,142644c <_ZL20check_exception_specP16lsda_header_infoPKSt9type_infoPvl+0xa0>
 1426414:	8809883a 	mov	r4,r17
 1426418:	1425ee40 	call	1425ee4 <_ZL15get_ttype_entryP16lsda_header_infom>
 142641c:	d80d883a 	mov	r6,sp
 1426420:	900b883a 	mov	r5,r18
 1426424:	1009883a 	mov	r4,r2
 1426428:	14260f80 	call	14260f8 <_ZL16get_adjusted_ptrPKSt9type_infoS1_PPv.constprop.3>
 142642c:	10c03fcc 	andi	r3,r2,255
 1426430:	183fe926 	beq	r3,zero,14263d8 <__alt_data_end+0xfffe63d8>
 1426434:	dfc00417 	ldw	ra,16(sp)
 1426438:	dc800317 	ldw	r18,12(sp)
 142643c:	dc400217 	ldw	r17,8(sp)
 1426440:	dc000117 	ldw	r16,4(sp)
 1426444:	dec00504 	addi	sp,sp,20
 1426448:	f800283a 	ret
 142644c:	0005883a 	mov	r2,zero
 1426450:	003ff806 	br	1426434 <__alt_data_end+0xfffe6434>

01426454 <__gxx_personality_sj0>:
 1426454:	008050b4 	movhi	r2,322
 1426458:	deffdd04 	addi	sp,sp,-140
 142645c:	10991504 	addi	r2,r2,25684
 1426460:	d8800e15 	stw	r2,56(sp)
 1426464:	008050f4 	movhi	r2,323
 1426468:	10b6ed04 	addi	r2,r2,-9292
 142646c:	d8800f15 	stw	r2,60(sp)
 1426470:	008050b4 	movhi	r2,322
 1426474:	109a8b04 	addi	r2,r2,27180
 1426478:	d9001515 	stw	r4,84(sp)
 142647c:	d9000804 	addi	r4,sp,32
 1426480:	d8801115 	stw	r2,68(sp)
 1426484:	dfc02215 	stw	ra,136(sp)
 1426488:	df002115 	stw	fp,132(sp)
 142648c:	dec01015 	stw	sp,64(sp)
 1426490:	dec01215 	stw	sp,72(sp)
 1426494:	d9401915 	stw	r5,100(sp)
 1426498:	d9801615 	stw	r6,88(sp)
 142649c:	d9c01715 	stw	r7,92(sp)
 14264a0:	142baec0 	call	142baec <_Unwind_SjLj_Register>
 14264a4:	d8c01517 	ldw	r3,84(sp)
 14264a8:	d8000715 	stw	zero,28(sp)
 14264ac:	d8000615 	stw	zero,24(sp)
 14264b0:	00800044 	movi	r2,1
 14264b4:	18800926 	beq	r3,r2,14264dc <__gxx_personality_sj0+0x88>
 14264b8:	01c000c4 	movi	r7,3
 14264bc:	d9c01515 	stw	r7,84(sp)
 14264c0:	d9000804 	addi	r4,sp,32
 14264c4:	142bb040 	call	142bb04 <_Unwind_SjLj_Unregister>
 14264c8:	d8801517 	ldw	r2,84(sp)
 14264cc:	dfc02217 	ldw	ra,136(sp)
 14264d0:	df002117 	ldw	fp,132(sp)
 14264d4:	dec02304 	addi	sp,sp,140
 14264d8:	f800283a 	ret
 14264dc:	d9001617 	ldw	r4,88(sp)
 14264e0:	00af3574 	movhi	r2,48341
 14264e4:	d9c01717 	ldw	r7,92(sp)
 14264e8:	10b54004 	addi	r2,r2,-11008
 14264ec:	00ee2cb4 	movhi	r3,47282
 14264f0:	2085883a 	add	r2,r4,r2
 14264f4:	18eaaf04 	addi	r3,r3,-21828
 14264f8:	d8801b15 	stw	r2,108(sp)
 14264fc:	38c7883a 	add	r3,r7,r3
 1426500:	1105803a 	cmpltu	r2,r2,r4
 1426504:	10c7883a 	add	r3,r2,r3
 1426508:	d8c01c15 	stw	r3,112(sp)
 142650c:	d8c01917 	ldw	r3,100(sp)
 1426510:	00800184 	movi	r2,6
 1426514:	18805426 	beq	r3,r2,1426668 <__gxx_personality_sj0+0x214>
 1426518:	d9002417 	ldw	r4,144(sp)
 142651c:	00bfffc4 	movi	r2,-1
 1426520:	d8800915 	stw	r2,36(sp)
 1426524:	142bba80 	call	142bba8 <_Unwind_GetLanguageSpecificData>
 1426528:	d8801a15 	stw	r2,104(sp)
 142652c:	1000c926 	beq	r2,zero,1426854 <__gxx_personality_sj0+0x400>
 1426530:	d9002417 	ldw	r4,144(sp)
 1426534:	d80d883a 	mov	r6,sp
 1426538:	100b883a 	mov	r5,r2
 142653c:	1425fc40 	call	1425fc4 <_ZL17parse_lsda_headerP15_Unwind_ContextPKhP16lsda_header_info>
 1426540:	d9402417 	ldw	r5,144(sp)
 1426544:	d9000503 	ldbu	r4,20(sp)
 1426548:	d8801515 	stw	r2,84(sp)
 142654c:	1425f380 	call	1425f38 <_ZL21base_of_encoded_valuehP15_Unwind_Context>
 1426550:	d9002417 	ldw	r4,144(sp)
 1426554:	d9400604 	addi	r5,sp,24
 1426558:	d8800215 	stw	r2,8(sp)
 142655c:	142bb780 	call	142bb78 <_Unwind_GetIPInfo>
 1426560:	d8c00617 	ldw	r3,24(sp)
 1426564:	18006126 	beq	r3,zero,14266ec <__gxx_personality_sj0+0x298>
 1426568:	1000ba16 	blt	r2,zero,1426854 <__gxx_personality_sj0+0x400>
 142656c:	10002f1e 	bne	r2,zero,142662c <__gxx_personality_sj0+0x1d8>
 1426570:	d8001515 	stw	zero,84(sp)
 1426574:	d8001f15 	stw	zero,124(sp)
 1426578:	d8001815 	stw	zero,96(sp)
 142657c:	00c00044 	movi	r3,1
 1426580:	d9001917 	ldw	r4,100(sp)
 1426584:	2080004c 	andi	r2,r4,1
 1426588:	1000b51e 	bne	r2,zero,1426860 <__gxx_personality_sj0+0x40c>
 142658c:	d9001917 	ldw	r4,100(sp)
 1426590:	2080020c 	andi	r2,r4,8
 1426594:	1000b71e 	bne	r2,zero,1426874 <__gxx_personality_sj0+0x420>
 1426598:	d9c01c17 	ldw	r7,112(sp)
 142659c:	3800b826 	beq	r7,zero,1426880 <__gxx_personality_sj0+0x42c>
 14265a0:	00800044 	movi	r2,1
 14265a4:	1880b526 	beq	r3,r2,142687c <__gxx_personality_sj0+0x428>
 14265a8:	d9c01517 	ldw	r7,84(sp)
 14265ac:	3800f516 	blt	r7,zero,1426984 <__gxx_personality_sj0+0x530>
 14265b0:	d9002417 	ldw	r4,144(sp)
 14265b4:	d9802317 	ldw	r6,140(sp)
 14265b8:	00bfffc4 	movi	r2,-1
 14265bc:	000b883a 	mov	r5,zero
 14265c0:	d8800915 	stw	r2,36(sp)
 14265c4:	142bb4c0 	call	142bb4c <_Unwind_SetGR>
 14265c8:	d9801517 	ldw	r6,84(sp)
 14265cc:	d9002417 	ldw	r4,144(sp)
 14265d0:	01400044 	movi	r5,1
 14265d4:	142bb4c0 	call	142bb4c <_Unwind_SetGR>
 14265d8:	d9002417 	ldw	r4,144(sp)
 14265dc:	d9401f17 	ldw	r5,124(sp)
 14265e0:	142bb980 	call	142bb98 <_Unwind_SetIP>
 14265e4:	010001c4 	movi	r4,7
 14265e8:	d9001515 	stw	r4,84(sp)
 14265ec:	003fb406 	br	14264c0 <__alt_data_end+0xfffe64c0>
 14265f0:	000f883a 	mov	r7,zero
 14265f4:	000d883a 	mov	r6,zero
 14265f8:	19000003 	ldbu	r4,0(r3)
 14265fc:	18c00044 	addi	r3,r3,1
 1426600:	d8c01515 	stw	r3,84(sp)
 1426604:	21401fcc 	andi	r5,r4,127
 1426608:	298a983a 	sll	r5,r5,r6
 142660c:	21003fcc 	andi	r4,r4,255
 1426610:	2100201c 	xori	r4,r4,128
 1426614:	213fe004 	addi	r4,r4,-128
 1426618:	394eb03a 	or	r7,r7,r5
 142661c:	318001c4 	addi	r6,r6,7
 1426620:	203ff516 	blt	r4,zero,14265f8 <__alt_data_end+0xfffe65f8>
 1426624:	10bfffc4 	addi	r2,r2,-1
 1426628:	10003226 	beq	r2,zero,14266f4 <__gxx_personality_sj0+0x2a0>
 142662c:	d9c01517 	ldw	r7,84(sp)
 1426630:	0011883a 	mov	r8,zero
 1426634:	000d883a 	mov	r6,zero
 1426638:	39000003 	ldbu	r4,0(r7)
 142663c:	38c00044 	addi	r3,r7,1
 1426640:	180f883a 	mov	r7,r3
 1426644:	21401fcc 	andi	r5,r4,127
 1426648:	298a983a 	sll	r5,r5,r6
 142664c:	21003fcc 	andi	r4,r4,255
 1426650:	2100201c 	xori	r4,r4,128
 1426654:	213fe004 	addi	r4,r4,-128
 1426658:	4150b03a 	or	r8,r8,r5
 142665c:	318001c4 	addi	r6,r6,7
 1426660:	203ff516 	blt	r4,zero,1426638 <__alt_data_end+0xfffe6638>
 1426664:	003fe206 	br	14265f0 <__alt_data_end+0xfffe65f0>
 1426668:	d9001c17 	ldw	r4,112(sp)
 142666c:	203faa1e 	bne	r4,zero,1426518 <__alt_data_end+0xfffe6518>
 1426670:	d9c01517 	ldw	r7,84(sp)
 1426674:	d8801b17 	ldw	r2,108(sp)
 1426678:	38bfa736 	bltu	r7,r2,1426518 <__alt_data_end+0xfffe6518>
 142667c:	d8c02317 	ldw	r3,140(sp)
 1426680:	18fffe17 	ldw	r3,-8(r3)
 1426684:	d8c01f15 	stw	r3,124(sp)
 1426688:	18008226 	beq	r3,zero,1426894 <__gxx_personality_sj0+0x440>
 142668c:	d9002317 	ldw	r4,140(sp)
 1426690:	d9c02317 	ldw	r7,140(sp)
 1426694:	213ffb17 	ldw	r4,-20(r4)
 1426698:	39fffd17 	ldw	r7,-12(r7)
 142669c:	d9001515 	stw	r4,84(sp)
 14266a0:	d9c01a15 	stw	r7,104(sp)
 14266a4:	d8801517 	ldw	r2,84(sp)
 14266a8:	103fc10e 	bge	r2,zero,14265b0 <__alt_data_end+0xfffe65b0>
 14266ac:	d9002417 	ldw	r4,144(sp)
 14266b0:	d9401a17 	ldw	r5,104(sp)
 14266b4:	d80d883a 	mov	r6,sp
 14266b8:	00bfffc4 	movi	r2,-1
 14266bc:	d8800915 	stw	r2,36(sp)
 14266c0:	1425fc40 	call	1425fc4 <_ZL17parse_lsda_headerP15_Unwind_ContextPKhP16lsda_header_info>
 14266c4:	d9402417 	ldw	r5,144(sp)
 14266c8:	d9000503 	ldbu	r4,20(sp)
 14266cc:	1425f380 	call	1425f38 <_ZL21base_of_encoded_valuehP15_Unwind_Context>
 14266d0:	d9000503 	ldbu	r4,20(sp)
 14266d4:	d9402417 	ldw	r5,144(sp)
 14266d8:	d8800215 	stw	r2,8(sp)
 14266dc:	1425f380 	call	1425f38 <_ZL21base_of_encoded_valuehP15_Unwind_Context>
 14266e0:	d8c02317 	ldw	r3,140(sp)
 14266e4:	18bffe15 	stw	r2,-8(r3)
 14266e8:	003fb106 	br	14265b0 <__alt_data_end+0xfffe65b0>
 14266ec:	10bfffc4 	addi	r2,r2,-1
 14266f0:	003f9d06 	br	1426568 <__alt_data_end+0xfffe6568>
 14266f4:	42000044 	addi	r8,r8,1
 14266f8:	da001f15 	stw	r8,124(sp)
 14266fc:	38005326 	beq	r7,zero,142684c <__gxx_personality_sj0+0x3f8>
 1426700:	d8800417 	ldw	r2,16(sp)
 1426704:	39ffffc4 	addi	r7,r7,-1
 1426708:	11c5883a 	add	r2,r2,r7
 142670c:	d8801815 	stw	r2,96(sp)
 1426710:	40005026 	beq	r8,zero,1426854 <__gxx_personality_sj0+0x400>
 1426714:	10007426 	beq	r2,zero,14268e8 <__gxx_personality_sj0+0x494>
 1426718:	d8801917 	ldw	r2,100(sp)
 142671c:	1080020c 	andi	r2,r2,8
 1426720:	d8802015 	stw	r2,128(sp)
 1426724:	1000a21e 	bne	r2,zero,14269b0 <__gxx_personality_sj0+0x55c>
 1426728:	d8c01c17 	ldw	r3,112(sp)
 142672c:	1800b026 	beq	r3,zero,14269f0 <__gxx_personality_sj0+0x59c>
 1426730:	01c050f4 	movhi	r7,323
 1426734:	39fa7c04 	addi	r7,r7,-5648
 1426738:	d9c01e15 	stw	r7,120(sp)
 142673c:	d8001d05 	stb	zero,116(sp)
 1426740:	d8c01817 	ldw	r3,96(sp)
 1426744:	d8001515 	stw	zero,84(sp)
 1426748:	0009883a 	mov	r4,zero
 142674c:	19400003 	ldbu	r5,0(r3)
 1426750:	18800044 	addi	r2,r3,1
 1426754:	d9c01517 	ldw	r7,84(sp)
 1426758:	28c01fcc 	andi	r3,r5,127
 142675c:	1906983a 	sll	r3,r3,r4
 1426760:	29803fcc 	andi	r6,r5,255
 1426764:	3180201c 	xori	r6,r6,128
 1426768:	38ceb03a 	or	r7,r7,r3
 142676c:	d8801715 	stw	r2,92(sp)
 1426770:	31bfe004 	addi	r6,r6,-128
 1426774:	d9c01515 	stw	r7,84(sp)
 1426778:	210001c4 	addi	r4,r4,7
 142677c:	1007883a 	mov	r3,r2
 1426780:	303ff216 	blt	r6,zero,142674c <__alt_data_end+0xfffe674c>
 1426784:	00c007c4 	movi	r3,31
 1426788:	19000836 	bltu	r3,r4,14267ac <__gxx_personality_sj0+0x358>
 142678c:	2940100c 	andi	r5,r5,64
 1426790:	28000626 	beq	r5,zero,14267ac <__gxx_personality_sj0+0x358>
 1426794:	01c00044 	movi	r7,1
 1426798:	3908983a 	sll	r4,r7,r4
 142679c:	d8c01517 	ldw	r3,84(sp)
 14267a0:	0109c83a 	sub	r4,zero,r4
 14267a4:	1906b03a 	or	r3,r3,r4
 14267a8:	d8c01515 	stw	r3,84(sp)
 14267ac:	d8001615 	stw	zero,88(sp)
 14267b0:	0009883a 	mov	r4,zero
 14267b4:	11400003 	ldbu	r5,0(r2)
 14267b8:	d9c01617 	ldw	r7,88(sp)
 14267bc:	10800044 	addi	r2,r2,1
 14267c0:	28c01fcc 	andi	r3,r5,127
 14267c4:	1906983a 	sll	r3,r3,r4
 14267c8:	29803fcc 	andi	r6,r5,255
 14267cc:	3180201c 	xori	r6,r6,128
 14267d0:	38ceb03a 	or	r7,r7,r3
 14267d4:	31bfe004 	addi	r6,r6,-128
 14267d8:	d9c01615 	stw	r7,88(sp)
 14267dc:	210001c4 	addi	r4,r4,7
 14267e0:	303ff416 	blt	r6,zero,14267b4 <__alt_data_end+0xfffe67b4>
 14267e4:	008007c4 	movi	r2,31
 14267e8:	11000736 	bltu	r2,r4,1426808 <__gxx_personality_sj0+0x3b4>
 14267ec:	2940100c 	andi	r5,r5,64
 14267f0:	28000526 	beq	r5,zero,1426808 <__gxx_personality_sj0+0x3b4>
 14267f4:	00c00044 	movi	r3,1
 14267f8:	1908983a 	sll	r4,r3,r4
 14267fc:	0109c83a 	sub	r4,zero,r4
 1426800:	390eb03a 	or	r7,r7,r4
 1426804:	d9c01615 	stw	r7,88(sp)
 1426808:	d9001517 	ldw	r4,84(sp)
 142680c:	20003c26 	beq	r4,zero,1426900 <__gxx_personality_sj0+0x4ac>
 1426810:	01003e0e 	bge	zero,r4,142690c <__gxx_personality_sj0+0x4b8>
 1426814:	01ffffc4 	movi	r7,-1
 1426818:	200b883a 	mov	r5,r4
 142681c:	d809883a 	mov	r4,sp
 1426820:	d9c00915 	stw	r7,36(sp)
 1426824:	1425ee40 	call	1425ee4 <_ZL15get_ttype_entryP16lsda_header_infom>
 1426828:	10005f26 	beq	r2,zero,14269a8 <__gxx_personality_sj0+0x554>
 142682c:	d8c01e17 	ldw	r3,120(sp)
 1426830:	1800571e 	bne	r3,zero,1426990 <__gxx_personality_sj0+0x53c>
 1426834:	d9001617 	ldw	r4,88(sp)
 1426838:	20002926 	beq	r4,zero,14268e0 <__gxx_personality_sj0+0x48c>
 142683c:	d9c01717 	ldw	r7,92(sp)
 1426840:	390f883a 	add	r7,r7,r4
 1426844:	d9c01815 	stw	r7,96(sp)
 1426848:	003fbd06 	br	1426740 <__alt_data_end+0xfffe6740>
 142684c:	d8c01f17 	ldw	r3,124(sp)
 1426850:	1800251e 	bne	r3,zero,14268e8 <__gxx_personality_sj0+0x494>
 1426854:	01000204 	movi	r4,8
 1426858:	d9001515 	stw	r4,84(sp)
 142685c:	003f1806 	br	14264c0 <__alt_data_end+0xfffe64c0>
 1426860:	d8801c17 	ldw	r2,112(sp)
 1426864:	10000d26 	beq	r2,zero,142689c <__gxx_personality_sj0+0x448>
 1426868:	00800184 	movi	r2,6
 142686c:	d8801515 	stw	r2,84(sp)
 1426870:	003f1306 	br	14264c0 <__alt_data_end+0xfffe64c0>
 1426874:	00800044 	movi	r2,1
 1426878:	18bf4d1e 	bne	r3,r2,14265b0 <__alt_data_end+0xfffe65b0>
 142687c:	142702c0 	call	142702c <_ZSt9terminatev>
 1426880:	d9001b17 	ldw	r4,108(sp)
 1426884:	00800044 	movi	r2,1
 1426888:	113f4536 	bltu	r2,r4,14265a0 <__alt_data_end+0xfffe65a0>
 142688c:	00800044 	movi	r2,1
 1426890:	18bf841e 	bne	r3,r2,14266a4 <__alt_data_end+0xfffe66a4>
 1426894:	d9002317 	ldw	r4,140(sp)
 1426898:	14273780 	call	1427378 <__cxa_call_terminate>
 142689c:	d8c01b17 	ldw	r3,108(sp)
 14268a0:	00800044 	movi	r2,1
 14268a4:	10fff036 	bltu	r2,r3,1426868 <__alt_data_end+0xfffe6868>
 14268a8:	d9002317 	ldw	r4,140(sp)
 14268ac:	d8801817 	ldw	r2,96(sp)
 14268b0:	d9c01517 	ldw	r7,84(sp)
 14268b4:	d8c01a17 	ldw	r3,104(sp)
 14268b8:	20bffc15 	stw	r2,-16(r4)
 14268bc:	d8800717 	ldw	r2,28(sp)
 14268c0:	21fffb15 	stw	r7,-20(r4)
 14268c4:	d9c01f17 	ldw	r7,124(sp)
 14268c8:	20bfff15 	stw	r2,-4(r4)
 14268cc:	00800184 	movi	r2,6
 14268d0:	20fffd15 	stw	r3,-12(r4)
 14268d4:	21fffe15 	stw	r7,-8(r4)
 14268d8:	d8801515 	stw	r2,84(sp)
 14268dc:	003ef806 	br	14264c0 <__alt_data_end+0xfffe64c0>
 14268e0:	d8801d03 	ldbu	r2,116(sp)
 14268e4:	103fdb26 	beq	r2,zero,1426854 <__alt_data_end+0xfffe6854>
 14268e8:	d8c01917 	ldw	r3,100(sp)
 14268ec:	1880004c 	andi	r2,r3,1
 14268f0:	103fd81e 	bne	r2,zero,1426854 <__alt_data_end+0xfffe6854>
 14268f4:	d8001515 	stw	zero,84(sp)
 14268f8:	00c00084 	movi	r3,2
 14268fc:	003f2306 	br	142658c <__alt_data_end+0xfffe658c>
 1426900:	00c00044 	movi	r3,1
 1426904:	d8c01d05 	stb	r3,116(sp)
 1426908:	003fca06 	br	1426834 <__alt_data_end+0xfffe6834>
 142690c:	d9001e17 	ldw	r4,120(sp)
 1426910:	20000426 	beq	r4,zero,1426924 <__gxx_personality_sj0+0x4d0>
 1426914:	d9c02017 	ldw	r7,128(sp)
 1426918:	3800021e 	bne	r7,zero,1426924 <__gxx_personality_sj0+0x4d0>
 142691c:	d8801c17 	ldw	r2,112(sp)
 1426920:	10002726 	beq	r2,zero,14269c0 <__gxx_personality_sj0+0x56c>
 1426924:	d8801517 	ldw	r2,84(sp)
 1426928:	000d883a 	mov	r6,zero
 142692c:	000b883a 	mov	r5,zero
 1426930:	0088303a 	nor	r4,zero,r2
 1426934:	d8800317 	ldw	r2,12(sp)
 1426938:	1109883a 	add	r4,r2,r4
 142693c:	20800003 	ldbu	r2,0(r4)
 1426940:	21000044 	addi	r4,r4,1
 1426944:	10c01fcc 	andi	r3,r2,127
 1426948:	1946983a 	sll	r3,r3,r5
 142694c:	10803fcc 	andi	r2,r2,255
 1426950:	1080201c 	xori	r2,r2,128
 1426954:	10bfe004 	addi	r2,r2,-128
 1426958:	30ccb03a 	or	r6,r6,r3
 142695c:	294001c4 	addi	r5,r5,7
 1426960:	103ff616 	blt	r2,zero,142693c <__alt_data_end+0xfffe693c>
 1426964:	3005003a 	cmpeq	r2,r6,zero
 1426968:	10803fcc 	andi	r2,r2,255
 142696c:	103fb126 	beq	r2,zero,1426834 <__alt_data_end+0xfffe6834>
 1426970:	d9c01917 	ldw	r7,100(sp)
 1426974:	3880004c 	andi	r2,r7,1
 1426978:	103fb91e 	bne	r2,zero,1426860 <__alt_data_end+0xfffe6860>
 142697c:	d8802017 	ldw	r2,128(sp)
 1426980:	10002d26 	beq	r2,zero,1426a38 <__gxx_personality_sj0+0x5e4>
 1426984:	00800044 	movi	r2,1
 1426988:	d8800915 	stw	r2,36(sp)
 142698c:	14270540 	call	1427054 <_ZSt10unexpectedv>
 1426990:	d9800704 	addi	r6,sp,28
 1426994:	180b883a 	mov	r5,r3
 1426998:	1009883a 	mov	r4,r2
 142699c:	14260f80 	call	14260f8 <_ZL16get_adjusted_ptrPKSt9type_infoS1_PPv.constprop.3>
 14269a0:	10803fcc 	andi	r2,r2,255
 14269a4:	103fa326 	beq	r2,zero,1426834 <__alt_data_end+0xfffe6834>
 14269a8:	00c000c4 	movi	r3,3
 14269ac:	003ef406 	br	1426580 <__alt_data_end+0xfffe6580>
 14269b0:	010050f4 	movhi	r4,323
 14269b4:	213a7a04 	addi	r4,r4,-5656
 14269b8:	d9001e15 	stw	r4,120(sp)
 14269bc:	003f5f06 	br	142673c <__alt_data_end+0xfffe673c>
 14269c0:	d9001b17 	ldw	r4,108(sp)
 14269c4:	00c00044 	movi	r3,1
 14269c8:	193fd636 	bltu	r3,r4,1426924 <__alt_data_end+0xfffe6924>
 14269cc:	01ffffc4 	movi	r7,-1
 14269d0:	d9c00915 	stw	r7,36(sp)
 14269d4:	d9800717 	ldw	r6,28(sp)
 14269d8:	d9c01517 	ldw	r7,84(sp)
 14269dc:	d9401e17 	ldw	r5,120(sp)
 14269e0:	d809883a 	mov	r4,sp
 14269e4:	14263ac0 	call	14263ac <_ZL20check_exception_specP16lsda_header_infoPKSt9type_infoPvl>
 14269e8:	1080005c 	xori	r2,r2,1
 14269ec:	003fde06 	br	1426968 <__alt_data_end+0xfffe6968>
 14269f0:	d9001b17 	ldw	r4,108(sp)
 14269f4:	00800044 	movi	r2,1
 14269f8:	113f4d36 	bltu	r2,r4,1426730 <__alt_data_end+0xfffe6730>
 14269fc:	d9c02317 	ldw	r7,140(sp)
 1426a00:	38800017 	ldw	r2,0(r7)
 1426a04:	1080004c 	andi	r2,r2,1
 1426a08:	1000061e 	bne	r2,zero,1426a24 <__gxx_personality_sj0+0x5d0>
 1426a0c:	d8c02317 	ldw	r3,140(sp)
 1426a10:	18800504 	addi	r2,r3,20
 1426a14:	d8800715 	stw	r2,28(sp)
 1426a18:	10bff017 	ldw	r2,-64(r2)
 1426a1c:	d8801e15 	stw	r2,120(sp)
 1426a20:	003f4606 	br	142673c <__alt_data_end+0xfffe673c>
 1426a24:	38bff517 	ldw	r2,-44(r7)
 1426a28:	003ffa06 	br	1426a14 <__alt_data_end+0xfffe6a14>
 1426a2c:	d9000a17 	ldw	r4,40(sp)
 1426a30:	1426de40 	call	1426de4 <__cxa_begin_catch>
 1426a34:	003f9106 	br	142687c <__alt_data_end+0xfffe687c>
 1426a38:	d9c01c17 	ldw	r7,112(sp)
 1426a3c:	383eda1e 	bne	r7,zero,14265a8 <__alt_data_end+0xfffe65a8>
 1426a40:	d8c01b17 	ldw	r3,108(sp)
 1426a44:	00800044 	movi	r2,1
 1426a48:	10fed736 	bltu	r2,r3,14265a8 <__alt_data_end+0xfffe65a8>
 1426a4c:	00c000c4 	movi	r3,3
 1426a50:	003f8e06 	br	142688c <__alt_data_end+0xfffe688c>

01426a54 <__cxa_call_unexpected>:
 1426a54:	008050b4 	movhi	r2,322
 1426a58:	deffe604 	addi	sp,sp,-104
 1426a5c:	10991504 	addi	r2,r2,25684
 1426a60:	d8800d15 	stw	r2,52(sp)
 1426a64:	008050f4 	movhi	r2,323
 1426a68:	10b6f104 	addi	r2,r2,-9276
 1426a6c:	d8800e15 	stw	r2,56(sp)
 1426a70:	d8800104 	addi	r2,sp,4
 1426a74:	d8800f15 	stw	r2,60(sp)
 1426a78:	008050b4 	movhi	r2,322
 1426a7c:	109ab804 	addi	r2,r2,27360
 1426a80:	d9001415 	stw	r4,80(sp)
 1426a84:	d9000704 	addi	r4,sp,28
 1426a88:	dfc01915 	stw	ra,100(sp)
 1426a8c:	d8801015 	stw	r2,64(sp)
 1426a90:	df001815 	stw	fp,96(sp)
 1426a94:	dec01115 	stw	sp,68(sp)
 1426a98:	142baec0 	call	142baec <_Unwind_SjLj_Register>
 1426a9c:	d9001417 	ldw	r4,80(sp)
 1426aa0:	1426de40 	call	1426de4 <__cxa_begin_catch>
 1426aa4:	d8c01417 	ldw	r3,80(sp)
 1426aa8:	18bffe17 	ldw	r2,-8(r3)
 1426aac:	193ff717 	ldw	r4,-36(r3)
 1426ab0:	18fffd17 	ldw	r3,-12(r3)
 1426ab4:	d8800315 	stw	r2,12(sp)
 1426ab8:	d8c01615 	stw	r3,88(sp)
 1426abc:	d8c01417 	ldw	r3,80(sp)
 1426ac0:	18fffb17 	ldw	r3,-20(r3)
 1426ac4:	d8c01515 	stw	r3,84(sp)
 1426ac8:	d8c01417 	ldw	r3,80(sp)
 1426acc:	18fff817 	ldw	r3,-32(r3)
 1426ad0:	d8c01415 	stw	r3,80(sp)
 1426ad4:	00c00044 	movi	r3,1
 1426ad8:	d8c00815 	stw	r3,32(sp)
 1426adc:	14270440 	call	1427044 <_ZN10__cxxabiv112__unexpectedEPFvvE>
 1426ae0:	d8c00917 	ldw	r3,36(sp)
 1426ae4:	d8800817 	ldw	r2,32(sp)
 1426ae8:	d8c01715 	stw	r3,92(sp)
 1426aec:	10000a26 	beq	r2,zero,1426b18 <__cxa_call_unexpected+0xc4>
 1426af0:	10bfffc4 	addi	r2,r2,-1
 1426af4:	10000126 	beq	r2,zero,1426afc <__cxa_call_unexpected+0xa8>
 1426af8:	003b68fa 	trap	3
 1426afc:	d8000815 	stw	zero,32(sp)
 1426b00:	1426e980 	call	1426e98 <__cxa_end_catch>
 1426b04:	1426e980 	call	1426e98 <__cxa_end_catch>
 1426b08:	d9001717 	ldw	r4,92(sp)
 1426b0c:	00bfffc4 	movi	r2,-1
 1426b10:	d8800815 	stw	r2,32(sp)
 1426b14:	142bce80 	call	142bce8 <_Unwind_SjLj_Resume>
 1426b18:	d9001717 	ldw	r4,92(sp)
 1426b1c:	1426de40 	call	1426de4 <__cxa_begin_catch>
 1426b20:	14273d00 	call	14273d0 <__cxa_get_globals_fast>
 1426b24:	10800017 	ldw	r2,0(r2)
 1426b28:	10c00b17 	ldw	r3,44(r2)
 1426b2c:	18c0004c 	andi	r3,r3,1
 1426b30:	18001e26 	beq	r3,zero,1426bac <__cxa_call_unexpected+0x158>
 1426b34:	10800017 	ldw	r2,0(r2)
 1426b38:	d8801715 	stw	r2,92(sp)
 1426b3c:	d8801517 	ldw	r2,84(sp)
 1426b40:	00802b0e 	bge	zero,r2,1426bf0 <__cxa_call_unexpected+0x19c>
 1426b44:	d8c01717 	ldw	r3,92(sp)
 1426b48:	d8800317 	ldw	r2,12(sp)
 1426b4c:	d9c01517 	ldw	r7,84(sp)
 1426b50:	193ff017 	ldw	r4,-64(r3)
 1426b54:	d9801617 	ldw	r6,88(sp)
 1426b58:	d8800015 	stw	r2,0(sp)
 1426b5c:	180b883a 	mov	r5,r3
 1426b60:	00800084 	movi	r2,2
 1426b64:	d8800815 	stw	r2,32(sp)
 1426b68:	14261800 	call	1426180 <_ZL28check_compact_exception_specPKSt9type_infoPvPKhij>
 1426b6c:	10803fcc 	andi	r2,r2,255
 1426b70:	10001e1e 	bne	r2,zero,1426bec <__cxa_call_unexpected+0x198>
 1426b74:	d8800317 	ldw	r2,12(sp)
 1426b78:	d9c01517 	ldw	r7,84(sp)
 1426b7c:	d9801617 	ldw	r6,88(sp)
 1426b80:	010050f4 	movhi	r4,323
 1426b84:	d8800015 	stw	r2,0(sp)
 1426b88:	21374c04 	addi	r4,r4,-8912
 1426b8c:	00800084 	movi	r2,2
 1426b90:	000b883a 	mov	r5,zero
 1426b94:	d8800815 	stw	r2,32(sp)
 1426b98:	14261800 	call	1426180 <_ZL28check_compact_exception_specPKSt9type_infoPvPKhij>
 1426b9c:	10803fcc 	andi	r2,r2,255
 1426ba0:	1000051e 	bne	r2,zero,1426bb8 <__cxa_call_unexpected+0x164>
 1426ba4:	d9001417 	ldw	r4,80(sp)
 1426ba8:	1426f6c0 	call	1426f6c <_ZN10__cxxabiv111__terminateEPFvvE>
 1426bac:	10801004 	addi	r2,r2,64
 1426bb0:	d8801715 	stw	r2,92(sp)
 1426bb4:	003fe106 	br	1426b3c <__alt_data_end+0xfffe6b3c>
 1426bb8:	01000104 	movi	r4,4
 1426bbc:	14272140 	call	1427214 <__cxa_allocate_exception>
 1426bc0:	00c050f4 	movhi	r3,323
 1426bc4:	18f76704 	addi	r3,r3,-8804
 1426bc8:	018050b4 	movhi	r6,322
 1426bcc:	014050f4 	movhi	r5,323
 1426bd0:	10c00015 	stw	r3,0(r2)
 1426bd4:	319cfb04 	addi	r6,r6,29676
 1426bd8:	00c00084 	movi	r3,2
 1426bdc:	29774c04 	addi	r5,r5,-8912
 1426be0:	1009883a 	mov	r4,r2
 1426be4:	d8c00815 	stw	r3,32(sp)
 1426be8:	1426cc80 	call	1426cc8 <__cxa_throw>
 1426bec:	1426d580 	call	1426d58 <__cxa_rethrow>
 1426bf0:	d9401617 	ldw	r5,88(sp)
 1426bf4:	00800084 	movi	r2,2
 1426bf8:	d9800104 	addi	r6,sp,4
 1426bfc:	0009883a 	mov	r4,zero
 1426c00:	d8800815 	stw	r2,32(sp)
 1426c04:	1425fc40 	call	1425fc4 <_ZL17parse_lsda_headerP15_Unwind_ContextPKhP16lsda_header_info>
 1426c08:	d9801717 	ldw	r6,92(sp)
 1426c0c:	d9c01517 	ldw	r7,84(sp)
 1426c10:	d9000104 	addi	r4,sp,4
 1426c14:	317ff017 	ldw	r5,-64(r6)
 1426c18:	14263ac0 	call	14263ac <_ZL20check_exception_specP16lsda_header_infoPKSt9type_infoPvl>
 1426c1c:	10803fcc 	andi	r2,r2,255
 1426c20:	1000171e 	bne	r2,zero,1426c80 <__cxa_call_unexpected+0x22c>
 1426c24:	d9c01517 	ldw	r7,84(sp)
 1426c28:	014050f4 	movhi	r5,323
 1426c2c:	00800084 	movi	r2,2
 1426c30:	29774c04 	addi	r5,r5,-8912
 1426c34:	000d883a 	mov	r6,zero
 1426c38:	d9000104 	addi	r4,sp,4
 1426c3c:	d8800815 	stw	r2,32(sp)
 1426c40:	14263ac0 	call	14263ac <_ZL20check_exception_specP16lsda_header_infoPKSt9type_infoPvl>
 1426c44:	10803fcc 	andi	r2,r2,255
 1426c48:	103fd626 	beq	r2,zero,1426ba4 <__alt_data_end+0xfffe6ba4>
 1426c4c:	01000104 	movi	r4,4
 1426c50:	14272140 	call	1427214 <__cxa_allocate_exception>
 1426c54:	00c050f4 	movhi	r3,323
 1426c58:	18f76704 	addi	r3,r3,-8804
 1426c5c:	018050b4 	movhi	r6,322
 1426c60:	014050f4 	movhi	r5,323
 1426c64:	10c00015 	stw	r3,0(r2)
 1426c68:	319cfb04 	addi	r6,r6,29676
 1426c6c:	00c00084 	movi	r3,2
 1426c70:	29774c04 	addi	r5,r5,-8912
 1426c74:	1009883a 	mov	r4,r2
 1426c78:	d8c00815 	stw	r3,32(sp)
 1426c7c:	1426cc80 	call	1426cc8 <__cxa_throw>
 1426c80:	1426d580 	call	1426d58 <__cxa_rethrow>

01426c84 <_ZL23__gxx_exception_cleanup19_Unwind_Reason_CodeP17_Unwind_Exception>:
 1426c84:	defffe04 	addi	sp,sp,-8
 1426c88:	dfc00115 	stw	ra,4(sp)
 1426c8c:	dc000015 	stw	r16,0(sp)
 1426c90:	00800044 	movi	r2,1
 1426c94:	11000a36 	bltu	r2,r4,1426cc0 <_ZL23__gxx_exception_cleanup19_Unwind_Reason_CodeP17_Unwind_Exception+0x3c>
 1426c98:	28bff617 	ldw	r2,-40(r5)
 1426c9c:	2c000504 	addi	r16,r5,20
 1426ca0:	10000226 	beq	r2,zero,1426cac <_ZL23__gxx_exception_cleanup19_Unwind_Reason_CodeP17_Unwind_Exception+0x28>
 1426ca4:	8009883a 	mov	r4,r16
 1426ca8:	103ee83a 	callr	r2
 1426cac:	8009883a 	mov	r4,r16
 1426cb0:	dfc00117 	ldw	ra,4(sp)
 1426cb4:	dc000017 	ldw	r16,0(sp)
 1426cb8:	dec00204 	addi	sp,sp,8
 1426cbc:	14272741 	jmpi	1427274 <__cxa_free_exception>
 1426cc0:	293ff817 	ldw	r4,-32(r5)
 1426cc4:	1426f6c0 	call	1426f6c <_ZN10__cxxabiv111__terminateEPFvvE>

01426cc8 <__cxa_throw>:
 1426cc8:	defffb04 	addi	sp,sp,-20
 1426ccc:	dfc00415 	stw	ra,16(sp)
 1426cd0:	dcc00315 	stw	r19,12(sp)
 1426cd4:	dc800215 	stw	r18,8(sp)
 1426cd8:	2827883a 	mov	r19,r5
 1426cdc:	3025883a 	mov	r18,r6
 1426ce0:	dc400115 	stw	r17,4(sp)
 1426ce4:	dc000015 	stw	r16,0(sp)
 1426ce8:	2021883a 	mov	r16,r4
 1426cec:	14273dc0 	call	14273dc <__cxa_get_globals>
 1426cf0:	10c00117 	ldw	r3,4(r2)
 1426cf4:	847ffb04 	addi	r17,r16,-20
 1426cf8:	18c00044 	addi	r3,r3,1
 1426cfc:	10c00115 	stw	r3,4(r2)
 1426d00:	00800044 	movi	r2,1
 1426d04:	80bfef15 	stw	r2,-68(r16)
 1426d08:	84fff015 	stw	r19,-64(r16)
 1426d0c:	84bff115 	stw	r18,-60(r16)
 1426d10:	14270a40 	call	14270a4 <_ZSt14get_unexpectedv>
 1426d14:	80bff215 	stw	r2,-56(r16)
 1426d18:	14270800 	call	1427080 <_ZSt13get_terminatev>
 1426d1c:	80bff315 	stw	r2,-52(r16)
 1426d20:	0090caf4 	movhi	r2,17195
 1426d24:	108ac004 	addi	r2,r2,11008
 1426d28:	80bffb15 	stw	r2,-20(r16)
 1426d2c:	0091d3b4 	movhi	r2,18254
 1426d30:	109550c4 	addi	r2,r2,21827
 1426d34:	80bffc15 	stw	r2,-16(r16)
 1426d38:	008050b4 	movhi	r2,322
 1426d3c:	109b2104 	addi	r2,r2,27780
 1426d40:	8809883a 	mov	r4,r17
 1426d44:	80bffd15 	stw	r2,-12(r16)
 1426d48:	142bbd40 	call	142bbd4 <_Unwind_SjLj_RaiseException>
 1426d4c:	8809883a 	mov	r4,r17
 1426d50:	1426de40 	call	1426de4 <__cxa_begin_catch>
 1426d54:	142702c0 	call	142702c <_ZSt9terminatev>

01426d58 <__cxa_rethrow>:
 1426d58:	defffe04 	addi	sp,sp,-8
 1426d5c:	dfc00115 	stw	ra,4(sp)
 1426d60:	dc000015 	stw	r16,0(sp)
 1426d64:	14273dc0 	call	14273dc <__cxa_get_globals>
 1426d68:	10c00117 	ldw	r3,4(r2)
 1426d6c:	11000017 	ldw	r4,0(r2)
 1426d70:	18c00044 	addi	r3,r3,1
 1426d74:	10c00115 	stw	r3,4(r2)
 1426d78:	20001126 	beq	r4,zero,1426dc0 <__cxa_rethrow+0x68>
 1426d7c:	21400b17 	ldw	r5,44(r4)
 1426d80:	01ef3574 	movhi	r7,48341
 1426d84:	39f54004 	addi	r7,r7,-11008
 1426d88:	29cf883a 	add	r7,r5,r7
 1426d8c:	20c00c17 	ldw	r3,48(r4)
 1426d90:	394d803a 	cmpltu	r6,r7,r5
 1426d94:	016e2cb4 	movhi	r5,47282
 1426d98:	296aaf04 	addi	r5,r5,-21828
 1426d9c:	1947883a 	add	r3,r3,r5
 1426da0:	30c7883a 	add	r3,r6,r3
 1426da4:	18000726 	beq	r3,zero,1426dc4 <__cxa_rethrow+0x6c>
 1426da8:	10000015 	stw	zero,0(r2)
 1426dac:	24000b04 	addi	r16,r4,44
 1426db0:	8009883a 	mov	r4,r16
 1426db4:	142bd2c0 	call	142bd2c <_Unwind_SjLj_Resume_or_Rethrow>
 1426db8:	8009883a 	mov	r4,r16
 1426dbc:	1426de40 	call	1426de4 <__cxa_begin_catch>
 1426dc0:	142702c0 	call	142702c <_ZSt9terminatev>
 1426dc4:	00c00044 	movi	r3,1
 1426dc8:	19fff736 	bltu	r3,r7,1426da8 <__alt_data_end+0xfffe6da8>
 1426dcc:	20800517 	ldw	r2,20(r4)
 1426dd0:	0085c83a 	sub	r2,zero,r2
 1426dd4:	20800515 	stw	r2,20(r4)
 1426dd8:	003ff406 	br	1426dac <__alt_data_end+0xfffe6dac>

01426ddc <__cxa_get_exception_ptr>:
 1426ddc:	20bfff17 	ldw	r2,-4(r4)
 1426de0:	f800283a 	ret

01426de4 <__cxa_begin_catch>:
 1426de4:	defffe04 	addi	sp,sp,-8
 1426de8:	dc000015 	stw	r16,0(sp)
 1426dec:	dfc00115 	stw	ra,4(sp)
 1426df0:	2021883a 	mov	r16,r4
 1426df4:	14273dc0 	call	14273dc <__cxa_get_globals>
 1426df8:	81000017 	ldw	r4,0(r16)
 1426dfc:	80c00117 	ldw	r3,4(r16)
 1426e00:	01af3574 	movhi	r6,48341
 1426e04:	31b54004 	addi	r6,r6,-11008
 1426e08:	016e2cb4 	movhi	r5,47282
 1426e0c:	296aaf04 	addi	r5,r5,-21828
 1426e10:	218d883a 	add	r6,r4,r6
 1426e14:	3109803a 	cmpltu	r4,r6,r4
 1426e18:	1947883a 	add	r3,r3,r5
 1426e1c:	20c7883a 	add	r3,r4,r3
 1426e20:	817ff504 	addi	r5,r16,-44
 1426e24:	11000017 	ldw	r4,0(r2)
 1426e28:	18000726 	beq	r3,zero,1426e48 <__cxa_begin_catch+0x64>
 1426e2c:	2000191e 	bne	r4,zero,1426e94 <__cxa_begin_catch+0xb0>
 1426e30:	11400015 	stw	r5,0(r2)
 1426e34:	0005883a 	mov	r2,zero
 1426e38:	dfc00117 	ldw	ra,4(sp)
 1426e3c:	dc000017 	ldw	r16,0(sp)
 1426e40:	dec00204 	addi	sp,sp,8
 1426e44:	f800283a 	ret
 1426e48:	01c00044 	movi	r7,1
 1426e4c:	39bff736 	bltu	r7,r6,1426e2c <__alt_data_end+0xfffe6e2c>
 1426e50:	80fffa17 	ldw	r3,-24(r16)
 1426e54:	18000d16 	blt	r3,zero,1426e8c <__cxa_begin_catch+0xa8>
 1426e58:	18c00044 	addi	r3,r3,1
 1426e5c:	11800117 	ldw	r6,4(r2)
 1426e60:	80fffa15 	stw	r3,-24(r16)
 1426e64:	30ffffc4 	addi	r3,r6,-1
 1426e68:	10c00115 	stw	r3,4(r2)
 1426e6c:	21400226 	beq	r4,r5,1426e78 <__cxa_begin_catch+0x94>
 1426e70:	813ff915 	stw	r4,-28(r16)
 1426e74:	11400015 	stw	r5,0(r2)
 1426e78:	80bfff17 	ldw	r2,-4(r16)
 1426e7c:	dfc00117 	ldw	ra,4(sp)
 1426e80:	dc000017 	ldw	r16,0(sp)
 1426e84:	dec00204 	addi	sp,sp,8
 1426e88:	f800283a 	ret
 1426e8c:	38c7c83a 	sub	r3,r7,r3
 1426e90:	003ff206 	br	1426e5c <__alt_data_end+0xfffe6e5c>
 1426e94:	142702c0 	call	142702c <_ZSt9terminatev>

01426e98 <__cxa_end_catch>:
 1426e98:	deffff04 	addi	sp,sp,-4
 1426e9c:	dfc00015 	stw	ra,0(sp)
 1426ea0:	14273d00 	call	14273d0 <__cxa_get_globals_fast>
 1426ea4:	11000017 	ldw	r4,0(r2)
 1426ea8:	20001426 	beq	r4,zero,1426efc <__cxa_end_catch+0x64>
 1426eac:	21400b17 	ldw	r5,44(r4)
 1426eb0:	01ef3574 	movhi	r7,48341
 1426eb4:	39f54004 	addi	r7,r7,-11008
 1426eb8:	29cf883a 	add	r7,r5,r7
 1426ebc:	20c00c17 	ldw	r3,48(r4)
 1426ec0:	394d803a 	cmpltu	r6,r7,r5
 1426ec4:	016e2cb4 	movhi	r5,47282
 1426ec8:	296aaf04 	addi	r5,r5,-21828
 1426ecc:	1947883a 	add	r3,r3,r5
 1426ed0:	30c7883a 	add	r3,r6,r3
 1426ed4:	18000c1e 	bne	r3,zero,1426f08 <__cxa_end_catch+0x70>
 1426ed8:	00c00044 	movi	r3,1
 1426edc:	19c00a36 	bltu	r3,r7,1426f08 <__cxa_end_catch+0x70>
 1426ee0:	20c00517 	ldw	r3,20(r4)
 1426ee4:	18000d16 	blt	r3,zero,1426f1c <__cxa_end_catch+0x84>
 1426ee8:	18ffffc4 	addi	r3,r3,-1
 1426eec:	18001026 	beq	r3,zero,1426f30 <__cxa_end_catch+0x98>
 1426ef0:	00bfffc4 	movi	r2,-1
 1426ef4:	18801426 	beq	r3,r2,1426f48 <__cxa_end_catch+0xb0>
 1426ef8:	20c00515 	stw	r3,20(r4)
 1426efc:	dfc00017 	ldw	ra,0(sp)
 1426f00:	dec00104 	addi	sp,sp,4
 1426f04:	f800283a 	ret
 1426f08:	21000b04 	addi	r4,r4,44
 1426f0c:	10000015 	stw	zero,0(r2)
 1426f10:	dfc00017 	ldw	ra,0(sp)
 1426f14:	dec00104 	addi	sp,sp,4
 1426f18:	142bd781 	jmpi	142bd78 <_Unwind_DeleteException>
 1426f1c:	18c00044 	addi	r3,r3,1
 1426f20:	183ff51e 	bne	r3,zero,1426ef8 <__alt_data_end+0xfffe6ef8>
 1426f24:	21400417 	ldw	r5,16(r4)
 1426f28:	11400015 	stw	r5,0(r2)
 1426f2c:	003ff206 	br	1426ef8 <__alt_data_end+0xfffe6ef8>
 1426f30:	20c00417 	ldw	r3,16(r4)
 1426f34:	21000b04 	addi	r4,r4,44
 1426f38:	10c00015 	stw	r3,0(r2)
 1426f3c:	dfc00017 	ldw	ra,0(sp)
 1426f40:	dec00104 	addi	sp,sp,4
 1426f44:	142bd781 	jmpi	142bd78 <_Unwind_DeleteException>
 1426f48:	142702c0 	call	142702c <_ZSt9terminatev>

01426f4c <_ZSt18uncaught_exceptionv>:
 1426f4c:	deffff04 	addi	sp,sp,-4
 1426f50:	dfc00015 	stw	ra,0(sp)
 1426f54:	14273dc0 	call	14273dc <__cxa_get_globals>
 1426f58:	10800117 	ldw	r2,4(r2)
 1426f5c:	1004c03a 	cmpne	r2,r2,zero
 1426f60:	dfc00017 	ldw	ra,0(sp)
 1426f64:	dec00104 	addi	sp,sp,4
 1426f68:	f800283a 	ret

01426f6c <_ZN10__cxxabiv111__terminateEPFvvE>:
 1426f6c:	008050b4 	movhi	r2,322
 1426f70:	deffef04 	addi	sp,sp,-68
 1426f74:	10991504 	addi	r2,r2,25684
 1426f78:	d8800615 	stw	r2,24(sp)
 1426f7c:	008050f4 	movhi	r2,323
 1426f80:	10b6f504 	addi	r2,r2,-9260
 1426f84:	d8800715 	stw	r2,28(sp)
 1426f88:	008050b4 	movhi	r2,322
 1426f8c:	109bf104 	addi	r2,r2,28612
 1426f90:	d9000d15 	stw	r4,52(sp)
 1426f94:	d809883a 	mov	r4,sp
 1426f98:	d8800915 	stw	r2,36(sp)
 1426f9c:	dfc01015 	stw	ra,64(sp)
 1426fa0:	df000f15 	stw	fp,60(sp)
 1426fa4:	dec00815 	stw	sp,32(sp)
 1426fa8:	dec00a15 	stw	sp,40(sp)
 1426fac:	142baec0 	call	142baec <_Unwind_SjLj_Register>
 1426fb0:	00800044 	movi	r2,1
 1426fb4:	d8800115 	stw	r2,4(sp)
 1426fb8:	d8800d17 	ldw	r2,52(sp)
 1426fbc:	103ee83a 	callr	r2
 1426fc0:	142be680 	call	142be68 <abort>
 1426fc4:	d8c00217 	ldw	r3,8(sp)
 1426fc8:	d8800117 	ldw	r2,4(sp)
 1426fcc:	d8c00d15 	stw	r3,52(sp)
 1426fd0:	d8c00317 	ldw	r3,12(sp)
 1426fd4:	d8c00e15 	stw	r3,56(sp)
 1426fd8:	10000b26 	beq	r2,zero,1427008 <_ZN10__cxxabiv111__terminateEPFvvE+0x9c>
 1426fdc:	10bfffc4 	addi	r2,r2,-1
 1426fe0:	10000126 	beq	r2,zero,1426fe8 <_ZN10__cxxabiv111__terminateEPFvvE+0x7c>
 1426fe4:	003b68fa 	trap	3
 1426fe8:	d8000115 	stw	zero,4(sp)
 1426fec:	1426e980 	call	1426e98 <__cxa_end_catch>
 1426ff0:	d8c00e17 	ldw	r3,56(sp)
 1426ff4:	00bfffc4 	movi	r2,-1
 1426ff8:	18800826 	beq	r3,r2,142701c <_ZN10__cxxabiv111__terminateEPFvvE+0xb0>
 1426ffc:	d9000d17 	ldw	r4,52(sp)
 1427000:	d8800115 	stw	r2,4(sp)
 1427004:	142bce80 	call	142bce8 <_Unwind_SjLj_Resume>
 1427008:	d9000d17 	ldw	r4,52(sp)
 142700c:	1426de40 	call	1426de4 <__cxa_begin_catch>
 1427010:	00800084 	movi	r2,2
 1427014:	d8800115 	stw	r2,4(sp)
 1427018:	142be680 	call	142be68 <abort>
 142701c:	d8800e17 	ldw	r2,56(sp)
 1427020:	d9000d17 	ldw	r4,52(sp)
 1427024:	d8800115 	stw	r2,4(sp)
 1427028:	1426a540 	call	1426a54 <__cxa_call_unexpected>

0142702c <_ZSt9terminatev>:
 142702c:	008050f4 	movhi	r2,323
 1427030:	10ba7e04 	addi	r2,r2,-5640
 1427034:	11000017 	ldw	r4,0(r2)
 1427038:	deffff04 	addi	sp,sp,-4
 142703c:	dfc00015 	stw	ra,0(sp)
 1427040:	1426f6c0 	call	1426f6c <_ZN10__cxxabiv111__terminateEPFvvE>

01427044 <_ZN10__cxxabiv112__unexpectedEPFvvE>:
 1427044:	deffff04 	addi	sp,sp,-4
 1427048:	dfc00015 	stw	ra,0(sp)
 142704c:	203ee83a 	callr	r4
 1427050:	142702c0 	call	142702c <_ZSt9terminatev>

01427054 <_ZSt10unexpectedv>:
 1427054:	008050f4 	movhi	r2,323
 1427058:	10ba7704 	addi	r2,r2,-5668
 142705c:	11000017 	ldw	r4,0(r2)
 1427060:	deffff04 	addi	sp,sp,-4
 1427064:	dfc00015 	stw	ra,0(sp)
 1427068:	14270440 	call	1427044 <_ZN10__cxxabiv112__unexpectedEPFvvE>

0142706c <_ZSt13set_terminatePFvvE>:
 142706c:	00c050f4 	movhi	r3,323
 1427070:	18fa7e04 	addi	r3,r3,-5640
 1427074:	18800017 	ldw	r2,0(r3)
 1427078:	19000015 	stw	r4,0(r3)
 142707c:	f800283a 	ret

01427080 <_ZSt13get_terminatev>:
 1427080:	008050f4 	movhi	r2,323
 1427084:	10ba7e04 	addi	r2,r2,-5640
 1427088:	10800017 	ldw	r2,0(r2)
 142708c:	f800283a 	ret

01427090 <_ZSt14set_unexpectedPFvvE>:
 1427090:	00c050f4 	movhi	r3,323
 1427094:	18fa7704 	addi	r3,r3,-5668
 1427098:	18800017 	ldw	r2,0(r3)
 142709c:	19000015 	stw	r4,0(r3)
 14270a0:	f800283a 	ret

014270a4 <_ZSt14get_unexpectedv>:
 14270a4:	008050f4 	movhi	r2,323
 14270a8:	10ba7704 	addi	r2,r2,-5668
 14270ac:	10800017 	ldw	r2,0(r2)
 14270b0:	f800283a 	ret

014270b4 <_ZN12_GLOBAL__N_14pool4freeEPv.constprop.4>:
 14270b4:	018050f4 	movhi	r6,323
 14270b8:	31bd3f04 	addi	r6,r6,-2820
 14270bc:	31400117 	ldw	r5,4(r6)
 14270c0:	223fff04 	addi	r8,r4,-4
 14270c4:	227fff17 	ldw	r9,-4(r4)
 14270c8:	28001326 	beq	r5,zero,1427118 <_ZN12_GLOBAL__N_14pool4freeEPv.constprop.4+0x64>
 14270cc:	424f883a 	add	r7,r8,r9
 14270d0:	29c01426 	beq	r5,r7,1427124 <_ZN12_GLOBAL__N_14pool4freeEPv.constprop.4+0x70>
 14270d4:	28c00117 	ldw	r3,4(r5)
 14270d8:	18001c26 	beq	r3,zero,142714c <_ZN12_GLOBAL__N_14pool4freeEPv.constprop.4+0x98>
 14270dc:	38c00336 	bltu	r7,r3,14270ec <_ZN12_GLOBAL__N_14pool4freeEPv.constprop.4+0x38>
 14270e0:	00001e06 	br	142715c <_ZN12_GLOBAL__N_14pool4freeEPv.constprop.4+0xa8>
 14270e4:	3880052e 	bgeu	r7,r2,14270fc <_ZN12_GLOBAL__N_14pool4freeEPv.constprop.4+0x48>
 14270e8:	1007883a 	mov	r3,r2
 14270ec:	18800117 	ldw	r2,4(r3)
 14270f0:	29800104 	addi	r6,r5,4
 14270f4:	180b883a 	mov	r5,r3
 14270f8:	103ffa1e 	bne	r2,zero,14270e4 <__alt_data_end+0xfffe70e4>
 14270fc:	19400017 	ldw	r5,0(r3)
 1427100:	194f883a 	add	r7,r3,r5
 1427104:	41c00e26 	beq	r8,r7,1427140 <_ZN12_GLOBAL__N_14pool4freeEPv.constprop.4+0x8c>
 1427108:	20800015 	stw	r2,0(r4)
 142710c:	30800017 	ldw	r2,0(r6)
 1427110:	12000115 	stw	r8,4(r2)
 1427114:	f800283a 	ret
 1427118:	20000015 	stw	zero,0(r4)
 142711c:	32000115 	stw	r8,4(r6)
 1427120:	f800283a 	ret
 1427124:	28c00017 	ldw	r3,0(r5)
 1427128:	28800117 	ldw	r2,4(r5)
 142712c:	1a53883a 	add	r9,r3,r9
 1427130:	227fff15 	stw	r9,-4(r4)
 1427134:	20800015 	stw	r2,0(r4)
 1427138:	32000115 	stw	r8,4(r6)
 142713c:	f800283a 	ret
 1427140:	494b883a 	add	r5,r9,r5
 1427144:	19400015 	stw	r5,0(r3)
 1427148:	f800283a 	ret
 142714c:	0005883a 	mov	r2,zero
 1427150:	2807883a 	mov	r3,r5
 1427154:	31800104 	addi	r6,r6,4
 1427158:	003fe806 	br	14270fc <__alt_data_end+0xfffe70fc>
 142715c:	1805883a 	mov	r2,r3
 1427160:	31800104 	addi	r6,r6,4
 1427164:	2807883a 	mov	r3,r5
 1427168:	003fe406 	br	14270fc <__alt_data_end+0xfffe70fc>

0142716c <_ZN12_GLOBAL__N_14pool8allocateEj.constprop.5>:
 142716c:	20800104 	addi	r2,r4,4
 1427170:	00c001c4 	movi	r3,7
 1427174:	1880112e 	bgeu	r3,r2,14271bc <_ZN12_GLOBAL__N_14pool8allocateEj.constprop.5+0x50>
 1427178:	20c9883a 	add	r4,r4,r3
 142717c:	00bfff04 	movi	r2,-4
 1427180:	208a703a 	and	r5,r4,r2
 1427184:	018050f4 	movhi	r6,323
 1427188:	31bd3f04 	addi	r6,r6,-2820
 142718c:	30c00117 	ldw	r3,4(r6)
 1427190:	18000826 	beq	r3,zero,14271b4 <_ZN12_GLOBAL__N_14pool8allocateEj.constprop.5+0x48>
 1427194:	19000017 	ldw	r4,0(r3)
 1427198:	21400436 	bltu	r4,r5,14271ac <_ZN12_GLOBAL__N_14pool8allocateEj.constprop.5+0x40>
 142719c:	00001a06 	br	1427208 <_ZN12_GLOBAL__N_14pool8allocateEj.constprop.5+0x9c>
 14271a0:	11000017 	ldw	r4,0(r2)
 14271a4:	2140072e 	bgeu	r4,r5,14271c4 <_ZN12_GLOBAL__N_14pool8allocateEj.constprop.5+0x58>
 14271a8:	1007883a 	mov	r3,r2
 14271ac:	18800117 	ldw	r2,4(r3)
 14271b0:	103ffb1e 	bne	r2,zero,14271a0 <__alt_data_end+0xfffe71a0>
 14271b4:	0005883a 	mov	r2,zero
 14271b8:	f800283a 	ret
 14271bc:	01400204 	movi	r5,8
 14271c0:	003ff006 	br	1427184 <__alt_data_end+0xfffe7184>
 14271c4:	18c00104 	addi	r3,r3,4
 14271c8:	2149c83a 	sub	r4,r4,r5
 14271cc:	018001c4 	movi	r6,7
 14271d0:	3100092e 	bgeu	r6,r4,14271f8 <_ZN12_GLOBAL__N_14pool8allocateEj.constprop.5+0x8c>
 14271d4:	11c00117 	ldw	r7,4(r2)
 14271d8:	114d883a 	add	r6,r2,r5
 14271dc:	31000015 	stw	r4,0(r6)
 14271e0:	31c00115 	stw	r7,4(r6)
 14271e4:	18800017 	ldw	r2,0(r3)
 14271e8:	11400015 	stw	r5,0(r2)
 14271ec:	19800015 	stw	r6,0(r3)
 14271f0:	10800104 	addi	r2,r2,4
 14271f4:	f800283a 	ret
 14271f8:	11000117 	ldw	r4,4(r2)
 14271fc:	10800104 	addi	r2,r2,4
 1427200:	19000015 	stw	r4,0(r3)
 1427204:	f800283a 	ret
 1427208:	1805883a 	mov	r2,r3
 142720c:	30c00104 	addi	r3,r6,4
 1427210:	003fed06 	br	14271c8 <__alt_data_end+0xfffe71c8>

01427214 <__cxa_allocate_exception>:
 1427214:	defffd04 	addi	sp,sp,-12
 1427218:	dc400115 	stw	r17,4(sp)
 142721c:	24401104 	addi	r17,r4,68
 1427220:	8809883a 	mov	r4,r17
 1427224:	dc000015 	stw	r16,0(sp)
 1427228:	dfc00215 	stw	ra,8(sp)
 142722c:	142be800 	call	142be80 <malloc>
 1427230:	1021883a 	mov	r16,r2
 1427234:	10000a26 	beq	r2,zero,1427260 <__cxa_allocate_exception+0x4c>
 1427238:	01801104 	movi	r6,68
 142723c:	000b883a 	mov	r5,zero
 1427240:	8009883a 	mov	r4,r16
 1427244:	142c6b40 	call	142c6b4 <memset>
 1427248:	80801104 	addi	r2,r16,68
 142724c:	dfc00217 	ldw	ra,8(sp)
 1427250:	dc400117 	ldw	r17,4(sp)
 1427254:	dc000017 	ldw	r16,0(sp)
 1427258:	dec00304 	addi	sp,sp,12
 142725c:	f800283a 	ret
 1427260:	8809883a 	mov	r4,r17
 1427264:	142716c0 	call	142716c <_ZN12_GLOBAL__N_14pool8allocateEj.constprop.5>
 1427268:	1021883a 	mov	r16,r2
 142726c:	103ff21e 	bne	r2,zero,1427238 <__alt_data_end+0xfffe7238>
 1427270:	142702c0 	call	142702c <_ZSt9terminatev>

01427274 <__cxa_free_exception>:
 1427274:	00c050f4 	movhi	r3,323
 1427278:	18fd3f04 	addi	r3,r3,-2820
 142727c:	18800217 	ldw	r2,8(r3)
 1427280:	213fef04 	addi	r4,r4,-68
 1427284:	1100042e 	bgeu	r2,r4,1427298 <__cxa_free_exception+0x24>
 1427288:	18c00317 	ldw	r3,12(r3)
 142728c:	10c5883a 	add	r2,r2,r3
 1427290:	2080012e 	bgeu	r4,r2,1427298 <__cxa_free_exception+0x24>
 1427294:	14270b41 	jmpi	14270b4 <_ZN12_GLOBAL__N_14pool4freeEPv.constprop.4>
 1427298:	142be941 	jmpi	142be94 <free>

0142729c <__cxa_allocate_dependent_exception>:
 142729c:	defffe04 	addi	sp,sp,-8
 14272a0:	01001004 	movi	r4,64
 14272a4:	dc000015 	stw	r16,0(sp)
 14272a8:	dfc00115 	stw	ra,4(sp)
 14272ac:	142be800 	call	142be80 <malloc>
 14272b0:	1021883a 	mov	r16,r2
 14272b4:	10000926 	beq	r2,zero,14272dc <__cxa_allocate_dependent_exception+0x40>
 14272b8:	01801004 	movi	r6,64
 14272bc:	000b883a 	mov	r5,zero
 14272c0:	8009883a 	mov	r4,r16
 14272c4:	142c6b40 	call	142c6b4 <memset>
 14272c8:	8005883a 	mov	r2,r16
 14272cc:	dfc00117 	ldw	ra,4(sp)
 14272d0:	dc000017 	ldw	r16,0(sp)
 14272d4:	dec00204 	addi	sp,sp,8
 14272d8:	f800283a 	ret
 14272dc:	01001004 	movi	r4,64
 14272e0:	142716c0 	call	142716c <_ZN12_GLOBAL__N_14pool8allocateEj.constprop.5>
 14272e4:	1021883a 	mov	r16,r2
 14272e8:	103ff31e 	bne	r2,zero,14272b8 <__alt_data_end+0xfffe72b8>
 14272ec:	142702c0 	call	142702c <_ZSt9terminatev>

014272f0 <__cxa_free_dependent_exception>:
 14272f0:	014050f4 	movhi	r5,323
 14272f4:	297d3f04 	addi	r5,r5,-2820
 14272f8:	28c00217 	ldw	r3,8(r5)
 14272fc:	2005883a 	mov	r2,r4
 1427300:	1900042e 	bgeu	r3,r4,1427314 <__cxa_free_dependent_exception+0x24>
 1427304:	29400317 	ldw	r5,12(r5)
 1427308:	1947883a 	add	r3,r3,r5
 142730c:	20c0012e 	bgeu	r4,r3,1427314 <__cxa_free_dependent_exception+0x24>
 1427310:	14270b41 	jmpi	14270b4 <_ZN12_GLOBAL__N_14pool4freeEPv.constprop.4>
 1427314:	1009883a 	mov	r4,r2
 1427318:	142be941 	jmpi	142be94 <free>

0142731c <_GLOBAL__sub_I___cxa_allocate_exception>:
 142731c:	defffd04 	addi	sp,sp,-12
 1427320:	dc400115 	stw	r17,4(sp)
 1427324:	dc000015 	stw	r16,0(sp)
 1427328:	04424004 	movi	r17,2304
 142732c:	040050f4 	movhi	r16,323
 1427330:	843d3f04 	addi	r16,r16,-2820
 1427334:	8809883a 	mov	r4,r17
 1427338:	dfc00215 	stw	ra,8(sp)
 142733c:	84400315 	stw	r17,12(r16)
 1427340:	142be800 	call	142be80 <malloc>
 1427344:	80800215 	stw	r2,8(r16)
 1427348:	10000826 	beq	r2,zero,142736c <_GLOBAL__sub_I___cxa_allocate_exception+0x50>
 142734c:	80800115 	stw	r2,4(r16)
 1427350:	14400015 	stw	r17,0(r2)
 1427354:	10000115 	stw	zero,4(r2)
 1427358:	dfc00217 	ldw	ra,8(sp)
 142735c:	dc400117 	ldw	r17,4(sp)
 1427360:	dc000017 	ldw	r16,0(sp)
 1427364:	dec00304 	addi	sp,sp,12
 1427368:	f800283a 	ret
 142736c:	80000315 	stw	zero,12(r16)
 1427370:	80000115 	stw	zero,4(r16)
 1427374:	003ff806 	br	1427358 <__alt_data_end+0xfffe7358>

01427378 <__cxa_call_terminate>:
 1427378:	defffe04 	addi	sp,sp,-8
 142737c:	dfc00115 	stw	ra,4(sp)
 1427380:	dc000015 	stw	r16,0(sp)
 1427384:	20000d26 	beq	r4,zero,14273bc <__cxa_call_terminate+0x44>
 1427388:	2021883a 	mov	r16,r4
 142738c:	1426de40 	call	1426de4 <__cxa_begin_catch>
 1427390:	80c00017 	ldw	r3,0(r16)
 1427394:	016f3574 	movhi	r5,48341
 1427398:	29754004 	addi	r5,r5,-11008
 142739c:	194b883a 	add	r5,r3,r5
 14273a0:	80800117 	ldw	r2,4(r16)
 14273a4:	28c9803a 	cmpltu	r4,r5,r3
 14273a8:	00ee2cb4 	movhi	r3,47282
 14273ac:	18eaaf04 	addi	r3,r3,-21828
 14273b0:	10c5883a 	add	r2,r2,r3
 14273b4:	2085883a 	add	r2,r4,r2
 14273b8:	10000126 	beq	r2,zero,14273c0 <__cxa_call_terminate+0x48>
 14273bc:	142702c0 	call	142702c <_ZSt9terminatev>
 14273c0:	00800044 	movi	r2,1
 14273c4:	117ffd36 	bltu	r2,r5,14273bc <__alt_data_end+0xfffe73bc>
 14273c8:	813ff817 	ldw	r4,-32(r16)
 14273cc:	1426f6c0 	call	1426f6c <_ZN10__cxxabiv111__terminateEPFvvE>

014273d0 <__cxa_get_globals_fast>:
 14273d0:	008050f4 	movhi	r2,323
 14273d4:	10bd2504 	addi	r2,r2,-2924
 14273d8:	f800283a 	ret

014273dc <__cxa_get_globals>:
 14273dc:	008050f4 	movhi	r2,323
 14273e0:	10bd2504 	addi	r2,r2,-2924
 14273e4:	f800283a 	ret

014273e8 <_ZNSt9exceptionD1Ev>:
 14273e8:	f800283a 	ret

014273ec <_ZNSt13bad_exceptionD1Ev>:
 14273ec:	f800283a 	ret

014273f0 <_ZNKSt9exception4whatEv>:
 14273f0:	008050f4 	movhi	r2,323
 14273f4:	10b73a04 	addi	r2,r2,-8984
 14273f8:	f800283a 	ret

014273fc <_ZNKSt13bad_exception4whatEv>:
 14273fc:	008050f4 	movhi	r2,323
 1427400:	10b73e04 	addi	r2,r2,-8968
 1427404:	f800283a 	ret

01427408 <_ZNSt9exceptionD0Ev>:
 1427408:	14274201 	jmpi	1427420 <_ZdlPv>

0142740c <_ZNSt13bad_exceptionD0Ev>:
 142740c:	14274201 	jmpi	1427420 <_ZdlPv>

01427410 <_ZN10__cxxabiv115__forced_unwindD1Ev>:
 1427410:	f800283a 	ret

01427414 <_ZN10__cxxabiv115__forced_unwindD0Ev>:
 1427414:	14274201 	jmpi	1427420 <_ZdlPv>

01427418 <_ZN10__cxxabiv119__foreign_exceptionD1Ev>:
 1427418:	f800283a 	ret

0142741c <_ZN10__cxxabiv119__foreign_exceptionD0Ev>:
 142741c:	14274201 	jmpi	1427420 <_ZdlPv>

01427420 <_ZdlPv>:
 1427420:	142be941 	jmpi	142be94 <free>

01427424 <__cxa_pure_virtual>:
 1427424:	014050f4 	movhi	r5,323
 1427428:	deffff04 	addi	sp,sp,-4
 142742c:	29777404 	addi	r5,r5,-8752
 1427430:	018006c4 	movi	r6,27
 1427434:	01000084 	movi	r4,2
 1427438:	dfc00015 	stw	ra,0(sp)
 142743c:	142d4840 	call	142d484 <write>
 1427440:	142702c0 	call	142702c <_ZSt9terminatev>

01427444 <__cxa_deleted_virtual>:
 1427444:	014050f4 	movhi	r5,323
 1427448:	deffff04 	addi	sp,sp,-4
 142744c:	29777b04 	addi	r5,r5,-8724
 1427450:	01800784 	movi	r6,30
 1427454:	01000084 	movi	r4,2
 1427458:	dfc00015 	stw	ra,0(sp)
 142745c:	142d4840 	call	142d484 <write>
 1427460:	142702c0 	call	142702c <_ZSt9terminatev>

01427464 <_ZNK10__cxxabiv117__class_type_info11__do_upcastEPKS0_PPv>:
 1427464:	20800017 	ldw	r2,0(r4)
 1427468:	defffa04 	addi	sp,sp,-24
 142746c:	dc000415 	stw	r16,16(sp)
 1427470:	10800617 	ldw	r2,24(r2)
 1427474:	3021883a 	mov	r16,r6
 1427478:	31800017 	ldw	r6,0(r6)
 142747c:	00c00404 	movi	r3,16
 1427480:	d8c00215 	stw	r3,8(sp)
 1427484:	dfc00515 	stw	ra,20(sp)
 1427488:	d8000015 	stw	zero,0(sp)
 142748c:	d8000115 	stw	zero,4(sp)
 1427490:	d8000315 	stw	zero,12(sp)
 1427494:	d80f883a 	mov	r7,sp
 1427498:	103ee83a 	callr	r2
 142749c:	d8800117 	ldw	r2,4(sp)
 14274a0:	00c00184 	movi	r3,6
 14274a4:	1080018c 	andi	r2,r2,6
 14274a8:	10c00526 	beq	r2,r3,14274c0 <_ZNK10__cxxabiv117__class_type_info11__do_upcastEPKS0_PPv+0x5c>
 14274ac:	0005883a 	mov	r2,zero
 14274b0:	dfc00517 	ldw	ra,20(sp)
 14274b4:	dc000417 	ldw	r16,16(sp)
 14274b8:	dec00604 	addi	sp,sp,24
 14274bc:	f800283a 	ret
 14274c0:	d8c00017 	ldw	r3,0(sp)
 14274c4:	00800044 	movi	r2,1
 14274c8:	80c00015 	stw	r3,0(r16)
 14274cc:	dfc00517 	ldw	ra,20(sp)
 14274d0:	dc000417 	ldw	r16,16(sp)
 14274d4:	dec00604 	addi	sp,sp,24
 14274d8:	f800283a 	ret

014274dc <_ZNK10__cxxabiv117__class_type_info20__do_find_public_srcEiPKvPKS0_S2_>:
 14274dc:	d8800017 	ldw	r2,0(sp)
 14274e0:	11800226 	beq	r2,r6,14274ec <_ZNK10__cxxabiv117__class_type_info20__do_find_public_srcEiPKvPKS0_S2_+0x10>
 14274e4:	00800044 	movi	r2,1
 14274e8:	f800283a 	ret
 14274ec:	00800184 	movi	r2,6
 14274f0:	f800283a 	ret

014274f4 <_ZN10__cxxabiv117__class_type_infoD1Ev>:
 14274f4:	008050f4 	movhi	r2,323
 14274f8:	10b79104 	addi	r2,r2,-8636
 14274fc:	20800015 	stw	r2,0(r4)
 1427500:	14279f01 	jmpi	14279f0 <_ZNSt9type_infoD1Ev>

01427504 <_ZN10__cxxabiv117__class_type_infoD0Ev>:
 1427504:	defffe04 	addi	sp,sp,-8
 1427508:	008050f4 	movhi	r2,323
 142750c:	dc000015 	stw	r16,0(sp)
 1427510:	dfc00115 	stw	ra,4(sp)
 1427514:	10b79104 	addi	r2,r2,-8636
 1427518:	20800015 	stw	r2,0(r4)
 142751c:	2021883a 	mov	r16,r4
 1427520:	14279f00 	call	14279f0 <_ZNSt9type_infoD1Ev>
 1427524:	8009883a 	mov	r4,r16
 1427528:	dfc00117 	ldw	ra,4(sp)
 142752c:	dc000017 	ldw	r16,0(sp)
 1427530:	dec00204 	addi	sp,sp,8
 1427534:	14274201 	jmpi	1427420 <_ZdlPv>

01427538 <_ZNK10__cxxabiv117__class_type_info11__do_upcastEPKS0_PKvRNS0_15__upcast_resultE>:
 1427538:	21000117 	ldw	r4,4(r4)
 142753c:	29400117 	ldw	r5,4(r5)
 1427540:	defffd04 	addi	sp,sp,-12
 1427544:	dc400115 	stw	r17,4(sp)
 1427548:	dc000015 	stw	r16,0(sp)
 142754c:	dfc00215 	stw	ra,8(sp)
 1427550:	3023883a 	mov	r17,r6
 1427554:	3821883a 	mov	r16,r7
 1427558:	21400526 	beq	r4,r5,1427570 <_ZNK10__cxxabiv117__class_type_info11__do_upcastEPKS0_PKvRNS0_15__upcast_resultE+0x38>
 142755c:	20c00007 	ldb	r3,0(r4)
 1427560:	00800a84 	movi	r2,42
 1427564:	18800d26 	beq	r3,r2,142759c <_ZNK10__cxxabiv117__class_type_info11__do_upcastEPKS0_PKvRNS0_15__upcast_resultE+0x64>
 1427568:	142cb340 	call	142cb34 <strcmp>
 142756c:	10000b1e 	bne	r2,zero,142759c <_ZNK10__cxxabiv117__class_type_info11__do_upcastEPKS0_PKvRNS0_15__upcast_resultE+0x64>
 1427570:	00800204 	movi	r2,8
 1427574:	80800315 	stw	r2,12(r16)
 1427578:	00800184 	movi	r2,6
 142757c:	80800115 	stw	r2,4(r16)
 1427580:	84400015 	stw	r17,0(r16)
 1427584:	00800044 	movi	r2,1
 1427588:	dfc00217 	ldw	ra,8(sp)
 142758c:	dc400117 	ldw	r17,4(sp)
 1427590:	dc000017 	ldw	r16,0(sp)
 1427594:	dec00304 	addi	sp,sp,12
 1427598:	f800283a 	ret
 142759c:	0005883a 	mov	r2,zero
 14275a0:	003ff906 	br	1427588 <__alt_data_end+0xfffe7588>

014275a4 <_ZNK10__cxxabiv117__class_type_info12__do_dyncastEiNS0_10__sub_kindEPKS0_PKvS3_S5_RNS0_16__dyncast_resultE>:
 14275a4:	defffa04 	addi	sp,sp,-24
 14275a8:	dc800415 	stw	r18,16(sp)
 14275ac:	d8800817 	ldw	r2,32(sp)
 14275b0:	dc800617 	ldw	r18,24(sp)
 14275b4:	dc400315 	stw	r17,12(sp)
 14275b8:	dc000215 	stw	r16,8(sp)
 14275bc:	dfc00515 	stw	ra,20(sp)
 14275c0:	dc400917 	ldw	r17,36(sp)
 14275c4:	24000117 	ldw	r16,4(r4)
 14275c8:	90801526 	beq	r18,r2,1427620 <_ZNK10__cxxabiv117__class_type_info12__do_dyncastEiNS0_10__sub_kindEPKS0_PKvS3_S5_RNS0_16__dyncast_resultE+0x7c>
 14275cc:	39400117 	ldw	r5,4(r7)
 14275d0:	2c000826 	beq	r5,r16,14275f4 <_ZNK10__cxxabiv117__class_type_info12__do_dyncastEiNS0_10__sub_kindEPKS0_PKvS3_S5_RNS0_16__dyncast_resultE+0x50>
 14275d4:	80c00007 	ldb	r3,0(r16)
 14275d8:	00800a84 	movi	r2,42
 14275dc:	18800926 	beq	r3,r2,1427604 <_ZNK10__cxxabiv117__class_type_info12__do_dyncastEiNS0_10__sub_kindEPKS0_PKvS3_S5_RNS0_16__dyncast_resultE+0x60>
 14275e0:	8009883a 	mov	r4,r16
 14275e4:	d9800115 	stw	r6,4(sp)
 14275e8:	142cb340 	call	142cb34 <strcmp>
 14275ec:	d9800117 	ldw	r6,4(sp)
 14275f0:	1000041e 	bne	r2,zero,1427604 <_ZNK10__cxxabiv117__class_type_info12__do_dyncastEiNS0_10__sub_kindEPKS0_PKvS3_S5_RNS0_16__dyncast_resultE+0x60>
 14275f4:	00800044 	movi	r2,1
 14275f8:	8c800015 	stw	r18,0(r17)
 14275fc:	89800115 	stw	r6,4(r17)
 1427600:	88800315 	stw	r2,12(r17)
 1427604:	0005883a 	mov	r2,zero
 1427608:	dfc00517 	ldw	ra,20(sp)
 142760c:	dc800417 	ldw	r18,16(sp)
 1427610:	dc400317 	ldw	r17,12(sp)
 1427614:	dc000217 	ldw	r16,8(sp)
 1427618:	dec00604 	addi	sp,sp,24
 142761c:	f800283a 	ret
 1427620:	d8800717 	ldw	r2,28(sp)
 1427624:	11400117 	ldw	r5,4(r2)
 1427628:	81400a26 	beq	r16,r5,1427654 <_ZNK10__cxxabiv117__class_type_info12__do_dyncastEiNS0_10__sub_kindEPKS0_PKvS3_S5_RNS0_16__dyncast_resultE+0xb0>
 142762c:	80c00007 	ldb	r3,0(r16)
 1427630:	00800a84 	movi	r2,42
 1427634:	18800c26 	beq	r3,r2,1427668 <_ZNK10__cxxabiv117__class_type_info12__do_dyncastEiNS0_10__sub_kindEPKS0_PKvS3_S5_RNS0_16__dyncast_resultE+0xc4>
 1427638:	8009883a 	mov	r4,r16
 142763c:	d9800115 	stw	r6,4(sp)
 1427640:	d9c00015 	stw	r7,0(sp)
 1427644:	142cb340 	call	142cb34 <strcmp>
 1427648:	d9800117 	ldw	r6,4(sp)
 142764c:	d9c00017 	ldw	r7,0(sp)
 1427650:	1000021e 	bne	r2,zero,142765c <_ZNK10__cxxabiv117__class_type_info12__do_dyncastEiNS0_10__sub_kindEPKS0_PKvS3_S5_RNS0_16__dyncast_resultE+0xb8>
 1427654:	89800215 	stw	r6,8(r17)
 1427658:	003fea06 	br	1427604 <__alt_data_end+0xfffe7604>
 142765c:	39400117 	ldw	r5,4(r7)
 1427660:	817fdf1e 	bne	r16,r5,14275e0 <__alt_data_end+0xfffe75e0>
 1427664:	003fe306 	br	14275f4 <__alt_data_end+0xfffe75f4>
 1427668:	38800117 	ldw	r2,4(r7)
 142766c:	80bfe51e 	bne	r16,r2,1427604 <__alt_data_end+0xfffe7604>
 1427670:	003fe006 	br	14275f4 <__alt_data_end+0xfffe75f4>

01427674 <_ZNK10__cxxabiv117__class_type_info10__do_catchEPKSt9type_infoPPvj>:
 1427674:	20800117 	ldw	r2,4(r4)
 1427678:	28c00117 	ldw	r3,4(r5)
 142767c:	10c02926 	beq	r2,r3,1427724 <_ZNK10__cxxabiv117__class_type_info10__do_catchEPKSt9type_infoPPvj+0xb0>
 1427680:	defffb04 	addi	sp,sp,-20
 1427684:	dcc00315 	stw	r19,12(sp)
 1427688:	dc800215 	stw	r18,8(sp)
 142768c:	dc400115 	stw	r17,4(sp)
 1427690:	dc000015 	stw	r16,0(sp)
 1427694:	dfc00415 	stw	ra,16(sp)
 1427698:	2821883a 	mov	r16,r5
 142769c:	11400007 	ldb	r5,0(r2)
 14276a0:	2025883a 	mov	r18,r4
 14276a4:	01000a84 	movi	r4,42
 14276a8:	3823883a 	mov	r17,r7
 14276ac:	3027883a 	mov	r19,r6
 14276b0:	29000626 	beq	r5,r4,14276cc <_ZNK10__cxxabiv117__class_type_info10__do_catchEPKSt9type_infoPPvj+0x58>
 14276b4:	180b883a 	mov	r5,r3
 14276b8:	1009883a 	mov	r4,r2
 14276bc:	142cb340 	call	142cb34 <strcmp>
 14276c0:	1000021e 	bne	r2,zero,14276cc <_ZNK10__cxxabiv117__class_type_info10__do_catchEPKSt9type_infoPPvj+0x58>
 14276c4:	00800044 	movi	r2,1
 14276c8:	00000306 	br	14276d8 <_ZNK10__cxxabiv117__class_type_info10__do_catchEPKSt9type_infoPPvj+0x64>
 14276cc:	008000c4 	movi	r2,3
 14276d0:	1440082e 	bgeu	r2,r17,14276f4 <_ZNK10__cxxabiv117__class_type_info10__do_catchEPKSt9type_infoPPvj+0x80>
 14276d4:	0005883a 	mov	r2,zero
 14276d8:	dfc00417 	ldw	ra,16(sp)
 14276dc:	dcc00317 	ldw	r19,12(sp)
 14276e0:	dc800217 	ldw	r18,8(sp)
 14276e4:	dc400117 	ldw	r17,4(sp)
 14276e8:	dc000017 	ldw	r16,0(sp)
 14276ec:	dec00504 	addi	sp,sp,20
 14276f0:	f800283a 	ret
 14276f4:	80800017 	ldw	r2,0(r16)
 14276f8:	980d883a 	mov	r6,r19
 14276fc:	900b883a 	mov	r5,r18
 1427700:	10800517 	ldw	r2,20(r2)
 1427704:	8009883a 	mov	r4,r16
 1427708:	dfc00417 	ldw	ra,16(sp)
 142770c:	dcc00317 	ldw	r19,12(sp)
 1427710:	dc800217 	ldw	r18,8(sp)
 1427714:	dc400117 	ldw	r17,4(sp)
 1427718:	dc000017 	ldw	r16,0(sp)
 142771c:	dec00504 	addi	sp,sp,20
 1427720:	1000683a 	jmp	r2
 1427724:	00800044 	movi	r2,1
 1427728:	f800283a 	ret

0142772c <_ZN10__cxxabiv120__si_class_type_infoD1Ev>:
 142772c:	008050f4 	movhi	r2,323
 1427730:	10b7a904 	addi	r2,r2,-8540
 1427734:	20800015 	stw	r2,0(r4)
 1427738:	14274f41 	jmpi	14274f4 <_ZN10__cxxabiv117__class_type_infoD1Ev>

0142773c <_ZN10__cxxabiv120__si_class_type_infoD0Ev>:
 142773c:	defffe04 	addi	sp,sp,-8
 1427740:	008050f4 	movhi	r2,323
 1427744:	dc000015 	stw	r16,0(sp)
 1427748:	dfc00115 	stw	ra,4(sp)
 142774c:	10b7a904 	addi	r2,r2,-8540
 1427750:	20800015 	stw	r2,0(r4)
 1427754:	2021883a 	mov	r16,r4
 1427758:	14274f40 	call	14274f4 <_ZN10__cxxabiv117__class_type_infoD1Ev>
 142775c:	8009883a 	mov	r4,r16
 1427760:	dfc00117 	ldw	ra,4(sp)
 1427764:	dc000017 	ldw	r16,0(sp)
 1427768:	dec00204 	addi	sp,sp,8
 142776c:	14274201 	jmpi	1427420 <_ZdlPv>

01427770 <_ZNK10__cxxabiv120__si_class_type_info12__do_dyncastEiNS_17__class_type_info10__sub_kindEPKS1_PKvS4_S6_RNS1_16__dyncast_resultE>:
 1427770:	defff504 	addi	sp,sp,-44
 1427774:	dc000115 	stw	r16,4(sp)
 1427778:	38800117 	ldw	r2,4(r7)
 142777c:	24000117 	ldw	r16,4(r4)
 1427780:	df000915 	stw	fp,36(sp)
 1427784:	ddc00815 	stw	r23,32(sp)
 1427788:	dd800715 	stw	r22,28(sp)
 142778c:	dcc00415 	stw	r19,16(sp)
 1427790:	dc800315 	stw	r18,12(sp)
 1427794:	dc400215 	stw	r17,8(sp)
 1427798:	dfc00a15 	stw	ra,40(sp)
 142779c:	dd400615 	stw	r21,24(sp)
 14277a0:	dd000515 	stw	r20,20(sp)
 14277a4:	2823883a 	mov	r17,r5
 14277a8:	3039883a 	mov	fp,r6
 14277ac:	dcc00b17 	ldw	r19,44(sp)
 14277b0:	ddc00c17 	ldw	r23,48(sp)
 14277b4:	dd800d17 	ldw	r22,52(sp)
 14277b8:	dc800e17 	ldw	r18,56(sp)
 14277bc:	80800b26 	beq	r16,r2,14277ec <_ZNK10__cxxabiv120__si_class_type_info12__do_dyncastEiNS_17__class_type_info10__sub_kindEPKS1_PKvS4_S6_RNS1_16__dyncast_resultE+0x7c>
 14277c0:	80c00007 	ldb	r3,0(r16)
 14277c4:	2029883a 	mov	r20,r4
 14277c8:	01000a84 	movi	r4,42
 14277cc:	382b883a 	mov	r21,r7
 14277d0:	19001a26 	beq	r3,r4,142783c <_ZNK10__cxxabiv120__si_class_type_info12__do_dyncastEiNS_17__class_type_info10__sub_kindEPKS1_PKvS4_S6_RNS1_16__dyncast_resultE+0xcc>
 14277d4:	100b883a 	mov	r5,r2
 14277d8:	8009883a 	mov	r4,r16
 14277dc:	d8c00015 	stw	r3,0(sp)
 14277e0:	142cb340 	call	142cb34 <strcmp>
 14277e4:	d8c00017 	ldw	r3,0(sp)
 14277e8:	1000141e 	bne	r2,zero,142783c <_ZNK10__cxxabiv120__si_class_type_info12__do_dyncastEiNS_17__class_type_info10__sub_kindEPKS1_PKvS4_S6_RNS1_16__dyncast_resultE+0xcc>
 14277ec:	94c00015 	stw	r19,0(r18)
 14277f0:	97000115 	stw	fp,4(r18)
 14277f4:	88002816 	blt	r17,zero,1427898 <_ZNK10__cxxabiv120__si_class_type_info12__do_dyncastEiNS_17__class_type_info10__sub_kindEPKS1_PKvS4_S6_RNS1_16__dyncast_resultE+0x128>
 14277f8:	9c63883a 	add	r17,r19,r17
 14277fc:	b4403226 	beq	r22,r17,14278c8 <_ZNK10__cxxabiv120__si_class_type_info12__do_dyncastEiNS_17__class_type_info10__sub_kindEPKS1_PKvS4_S6_RNS1_16__dyncast_resultE+0x158>
 1427800:	00800044 	movi	r2,1
 1427804:	90800315 	stw	r2,12(r18)
 1427808:	0005883a 	mov	r2,zero
 142780c:	dfc00a17 	ldw	ra,40(sp)
 1427810:	df000917 	ldw	fp,36(sp)
 1427814:	ddc00817 	ldw	r23,32(sp)
 1427818:	dd800717 	ldw	r22,28(sp)
 142781c:	dd400617 	ldw	r21,24(sp)
 1427820:	dd000517 	ldw	r20,20(sp)
 1427824:	dcc00417 	ldw	r19,16(sp)
 1427828:	dc800317 	ldw	r18,12(sp)
 142782c:	dc400217 	ldw	r17,8(sp)
 1427830:	dc000117 	ldw	r16,4(sp)
 1427834:	dec00b04 	addi	sp,sp,44
 1427838:	f800283a 	ret
 142783c:	9d801926 	beq	r19,r22,14278a4 <_ZNK10__cxxabiv120__si_class_type_info12__do_dyncastEiNS_17__class_type_info10__sub_kindEPKS1_PKvS4_S6_RNS1_16__dyncast_resultE+0x134>
 1427840:	a1000217 	ldw	r4,8(r20)
 1427844:	a80f883a 	mov	r7,r21
 1427848:	e00d883a 	mov	r6,fp
 142784c:	20800017 	ldw	r2,0(r4)
 1427850:	dc800e15 	stw	r18,56(sp)
 1427854:	dd800d15 	stw	r22,52(sp)
 1427858:	ddc00c15 	stw	r23,48(sp)
 142785c:	dcc00b15 	stw	r19,44(sp)
 1427860:	10800717 	ldw	r2,28(r2)
 1427864:	880b883a 	mov	r5,r17
 1427868:	dfc00a17 	ldw	ra,40(sp)
 142786c:	df000917 	ldw	fp,36(sp)
 1427870:	ddc00817 	ldw	r23,32(sp)
 1427874:	dd800717 	ldw	r22,28(sp)
 1427878:	dd400617 	ldw	r21,24(sp)
 142787c:	dd000517 	ldw	r20,20(sp)
 1427880:	dcc00417 	ldw	r19,16(sp)
 1427884:	dc800317 	ldw	r18,12(sp)
 1427888:	dc400217 	ldw	r17,8(sp)
 142788c:	dc000117 	ldw	r16,4(sp)
 1427890:	dec00b04 	addi	sp,sp,44
 1427894:	1000683a 	jmp	r2
 1427898:	00bfff84 	movi	r2,-2
 142789c:	88bfda1e 	bne	r17,r2,1427808 <__alt_data_end+0xfffe7808>
 14278a0:	003fd706 	br	1427800 <__alt_data_end+0xfffe7800>
 14278a4:	b9400117 	ldw	r5,4(r23)
 14278a8:	81400526 	beq	r16,r5,14278c0 <_ZNK10__cxxabiv120__si_class_type_info12__do_dyncastEiNS_17__class_type_info10__sub_kindEPKS1_PKvS4_S6_RNS1_16__dyncast_resultE+0x150>
 14278ac:	00800a84 	movi	r2,42
 14278b0:	18bfe326 	beq	r3,r2,1427840 <__alt_data_end+0xfffe7840>
 14278b4:	8009883a 	mov	r4,r16
 14278b8:	142cb340 	call	142cb34 <strcmp>
 14278bc:	103fe01e 	bne	r2,zero,1427840 <__alt_data_end+0xfffe7840>
 14278c0:	97000215 	stw	fp,8(r18)
 14278c4:	003fd006 	br	1427808 <__alt_data_end+0xfffe7808>
 14278c8:	00800184 	movi	r2,6
 14278cc:	003fcd06 	br	1427804 <__alt_data_end+0xfffe7804>

014278d0 <_ZNK10__cxxabiv120__si_class_type_info20__do_find_public_srcEiPKvPKNS_17__class_type_infoES2_>:
 14278d0:	defffa04 	addi	sp,sp,-24
 14278d4:	dc000215 	stw	r16,8(sp)
 14278d8:	dc000617 	ldw	r16,24(sp)
 14278dc:	dc800415 	stw	r18,16(sp)
 14278e0:	dc400315 	stw	r17,12(sp)
 14278e4:	dfc00515 	stw	ra,20(sp)
 14278e8:	2023883a 	mov	r17,r4
 14278ec:	2825883a 	mov	r18,r5
 14278f0:	81800b26 	beq	r16,r6,1427920 <_ZNK10__cxxabiv120__si_class_type_info20__do_find_public_srcEiPKvPKNS_17__class_type_infoES2_+0x50>
 14278f4:	89000217 	ldw	r4,8(r17)
 14278f8:	900b883a 	mov	r5,r18
 14278fc:	20800017 	ldw	r2,0(r4)
 1427900:	dc000615 	stw	r16,24(sp)
 1427904:	10800817 	ldw	r2,32(r2)
 1427908:	dfc00517 	ldw	ra,20(sp)
 142790c:	dc800417 	ldw	r18,16(sp)
 1427910:	dc400317 	ldw	r17,12(sp)
 1427914:	dc000217 	ldw	r16,8(sp)
 1427918:	dec00604 	addi	sp,sp,24
 142791c:	1000683a 	jmp	r2
 1427920:	21000117 	ldw	r4,4(r4)
 1427924:	39400117 	ldw	r5,4(r7)
 1427928:	21400926 	beq	r4,r5,1427950 <_ZNK10__cxxabiv120__si_class_type_info20__do_find_public_srcEiPKvPKNS_17__class_type_infoES2_+0x80>
 142792c:	20c00007 	ldb	r3,0(r4)
 1427930:	00800a84 	movi	r2,42
 1427934:	18bfef26 	beq	r3,r2,14278f4 <__alt_data_end+0xfffe78f4>
 1427938:	d9800015 	stw	r6,0(sp)
 142793c:	d9c00115 	stw	r7,4(sp)
 1427940:	142cb340 	call	142cb34 <strcmp>
 1427944:	d9800017 	ldw	r6,0(sp)
 1427948:	d9c00117 	ldw	r7,4(sp)
 142794c:	103fe91e 	bne	r2,zero,14278f4 <__alt_data_end+0xfffe78f4>
 1427950:	00800184 	movi	r2,6
 1427954:	dfc00517 	ldw	ra,20(sp)
 1427958:	dc800417 	ldw	r18,16(sp)
 142795c:	dc400317 	ldw	r17,12(sp)
 1427960:	dc000217 	ldw	r16,8(sp)
 1427964:	dec00604 	addi	sp,sp,24
 1427968:	f800283a 	ret

0142796c <_ZNK10__cxxabiv120__si_class_type_info11__do_upcastEPKNS_17__class_type_infoEPKvRNS1_15__upcast_resultE>:
 142796c:	defffb04 	addi	sp,sp,-20
 1427970:	dcc00315 	stw	r19,12(sp)
 1427974:	dc800215 	stw	r18,8(sp)
 1427978:	dc400115 	stw	r17,4(sp)
 142797c:	dc000015 	stw	r16,0(sp)
 1427980:	dfc00415 	stw	ra,16(sp)
 1427984:	2027883a 	mov	r19,r4
 1427988:	2821883a 	mov	r16,r5
 142798c:	3023883a 	mov	r17,r6
 1427990:	3825883a 	mov	r18,r7
 1427994:	14275380 	call	1427538 <_ZNK10__cxxabiv117__class_type_info11__do_upcastEPKS0_PKvRNS0_15__upcast_resultE>
 1427998:	10c03fcc 	andi	r3,r2,255
 142799c:	18000726 	beq	r3,zero,14279bc <_ZNK10__cxxabiv120__si_class_type_info11__do_upcastEPKNS_17__class_type_infoEPKvRNS1_15__upcast_resultE+0x50>
 14279a0:	dfc00417 	ldw	ra,16(sp)
 14279a4:	dcc00317 	ldw	r19,12(sp)
 14279a8:	dc800217 	ldw	r18,8(sp)
 14279ac:	dc400117 	ldw	r17,4(sp)
 14279b0:	dc000017 	ldw	r16,0(sp)
 14279b4:	dec00504 	addi	sp,sp,20
 14279b8:	f800283a 	ret
 14279bc:	99000217 	ldw	r4,8(r19)
 14279c0:	900f883a 	mov	r7,r18
 14279c4:	880d883a 	mov	r6,r17
 14279c8:	20800017 	ldw	r2,0(r4)
 14279cc:	800b883a 	mov	r5,r16
 14279d0:	10800617 	ldw	r2,24(r2)
 14279d4:	dfc00417 	ldw	ra,16(sp)
 14279d8:	dcc00317 	ldw	r19,12(sp)
 14279dc:	dc800217 	ldw	r18,8(sp)
 14279e0:	dc400117 	ldw	r17,4(sp)
 14279e4:	dc000017 	ldw	r16,0(sp)
 14279e8:	dec00504 	addi	sp,sp,20
 14279ec:	1000683a 	jmp	r2

014279f0 <_ZNSt9type_infoD1Ev>:
 14279f0:	f800283a 	ret

014279f4 <_ZNKSt9type_info14__is_pointer_pEv>:
 14279f4:	0005883a 	mov	r2,zero
 14279f8:	f800283a 	ret

014279fc <_ZNKSt9type_info11__do_upcastEPKN10__cxxabiv117__class_type_infoEPPv>:
 14279fc:	0005883a 	mov	r2,zero
 1427a00:	f800283a 	ret

01427a04 <_ZNSt9type_infoD0Ev>:
 1427a04:	14274201 	jmpi	1427420 <_ZdlPv>

01427a08 <_ZNKSt9type_info10__do_catchEPKS_PPvj>:
 1427a08:	21000117 	ldw	r4,4(r4)
 1427a0c:	29400117 	ldw	r5,4(r5)
 1427a10:	21400c26 	beq	r4,r5,1427a44 <_ZNKSt9type_info10__do_catchEPKS_PPvj+0x3c>
 1427a14:	20c00007 	ldb	r3,0(r4)
 1427a18:	00800a84 	movi	r2,42
 1427a1c:	18800726 	beq	r3,r2,1427a3c <_ZNKSt9type_info10__do_catchEPKS_PPvj+0x34>
 1427a20:	deffff04 	addi	sp,sp,-4
 1427a24:	dfc00015 	stw	ra,0(sp)
 1427a28:	142cb340 	call	142cb34 <strcmp>
 1427a2c:	1005003a 	cmpeq	r2,r2,zero
 1427a30:	dfc00017 	ldw	ra,0(sp)
 1427a34:	dec00104 	addi	sp,sp,4
 1427a38:	f800283a 	ret
 1427a3c:	0005883a 	mov	r2,zero
 1427a40:	f800283a 	ret
 1427a44:	00800044 	movi	r2,1
 1427a48:	f800283a 	ret

01427a4c <__fixunssfsi>:
 1427a4c:	defffd04 	addi	sp,sp,-12
 1427a50:	dc000015 	stw	r16,0(sp)
 1427a54:	0413c034 	movhi	r16,20224
 1427a58:	800b883a 	mov	r5,r16
 1427a5c:	dc400115 	stw	r17,4(sp)
 1427a60:	dfc00215 	stw	ra,8(sp)
 1427a64:	2023883a 	mov	r17,r4
 1427a68:	1428cfc0 	call	1428cfc <__gesf2>
 1427a6c:	1000070e 	bge	r2,zero,1427a8c <__fixunssfsi+0x40>
 1427a70:	8809883a 	mov	r4,r17
 1427a74:	14296cc0 	call	14296cc <__fixsfsi>
 1427a78:	dfc00217 	ldw	ra,8(sp)
 1427a7c:	dc400117 	ldw	r17,4(sp)
 1427a80:	dc000017 	ldw	r16,0(sp)
 1427a84:	dec00304 	addi	sp,sp,12
 1427a88:	f800283a 	ret
 1427a8c:	800b883a 	mov	r5,r16
 1427a90:	8809883a 	mov	r4,r17
 1427a94:	14291e80 	call	14291e8 <__subsf3>
 1427a98:	1009883a 	mov	r4,r2
 1427a9c:	14296cc0 	call	14296cc <__fixsfsi>
 1427aa0:	00e00034 	movhi	r3,32768
 1427aa4:	10c5883a 	add	r2,r2,r3
 1427aa8:	003ff306 	br	1427a78 <__alt_data_end+0xfffe7a78>

01427aac <__fixunsdfsi>:
 1427aac:	defffd04 	addi	sp,sp,-12
 1427ab0:	000d883a 	mov	r6,zero
 1427ab4:	01d07834 	movhi	r7,16864
 1427ab8:	dc400115 	stw	r17,4(sp)
 1427abc:	dc000015 	stw	r16,0(sp)
 1427ac0:	dfc00215 	stw	ra,8(sp)
 1427ac4:	2023883a 	mov	r17,r4
 1427ac8:	2821883a 	mov	r16,r5
 1427acc:	142a3a80 	call	142a3a8 <__gedf2>
 1427ad0:	1000080e 	bge	r2,zero,1427af4 <__fixunsdfsi+0x48>
 1427ad4:	8809883a 	mov	r4,r17
 1427ad8:	800b883a 	mov	r5,r16
 1427adc:	142b6e00 	call	142b6e0 <__fixdfsi>
 1427ae0:	dfc00217 	ldw	ra,8(sp)
 1427ae4:	dc400117 	ldw	r17,4(sp)
 1427ae8:	dc000017 	ldw	r16,0(sp)
 1427aec:	dec00304 	addi	sp,sp,12
 1427af0:	f800283a 	ret
 1427af4:	000d883a 	mov	r6,zero
 1427af8:	01d07834 	movhi	r7,16864
 1427afc:	8809883a 	mov	r4,r17
 1427b00:	800b883a 	mov	r5,r16
 1427b04:	142ade40 	call	142ade4 <__subdf3>
 1427b08:	180b883a 	mov	r5,r3
 1427b0c:	1009883a 	mov	r4,r2
 1427b10:	142b6e00 	call	142b6e0 <__fixdfsi>
 1427b14:	00e00034 	movhi	r3,32768
 1427b18:	10c5883a 	add	r2,r2,r3
 1427b1c:	003ff006 	br	1427ae0 <__alt_data_end+0xfffe7ae0>

01427b20 <__udivdi3>:
 1427b20:	defff404 	addi	sp,sp,-48
 1427b24:	dcc00515 	stw	r19,20(sp)
 1427b28:	dc000215 	stw	r16,8(sp)
 1427b2c:	dfc00b15 	stw	ra,44(sp)
 1427b30:	df000a15 	stw	fp,40(sp)
 1427b34:	ddc00915 	stw	r23,36(sp)
 1427b38:	dd800815 	stw	r22,32(sp)
 1427b3c:	dd400715 	stw	r21,28(sp)
 1427b40:	dd000615 	stw	r20,24(sp)
 1427b44:	dc800415 	stw	r18,16(sp)
 1427b48:	dc400315 	stw	r17,12(sp)
 1427b4c:	2027883a 	mov	r19,r4
 1427b50:	2821883a 	mov	r16,r5
 1427b54:	3800461e 	bne	r7,zero,1427c70 <__udivdi3+0x150>
 1427b58:	3023883a 	mov	r17,r6
 1427b5c:	2025883a 	mov	r18,r4
 1427b60:	2980572e 	bgeu	r5,r6,1427cc0 <__udivdi3+0x1a0>
 1427b64:	00bfffd4 	movui	r2,65535
 1427b68:	282d883a 	mov	r22,r5
 1427b6c:	1180b236 	bltu	r2,r6,1427e38 <__udivdi3+0x318>
 1427b70:	00803fc4 	movi	r2,255
 1427b74:	1185803a 	cmpltu	r2,r2,r6
 1427b78:	100490fa 	slli	r2,r2,3
 1427b7c:	3086d83a 	srl	r3,r6,r2
 1427b80:	010050f4 	movhi	r4,323
 1427b84:	2137be04 	addi	r4,r4,-8456
 1427b88:	20c7883a 	add	r3,r4,r3
 1427b8c:	18c00003 	ldbu	r3,0(r3)
 1427b90:	1885883a 	add	r2,r3,r2
 1427b94:	00c00804 	movi	r3,32
 1427b98:	1887c83a 	sub	r3,r3,r2
 1427b9c:	18000526 	beq	r3,zero,1427bb4 <__udivdi3+0x94>
 1427ba0:	80e0983a 	sll	r16,r16,r3
 1427ba4:	9884d83a 	srl	r2,r19,r2
 1427ba8:	30e2983a 	sll	r17,r6,r3
 1427bac:	98e4983a 	sll	r18,r19,r3
 1427bb0:	142cb03a 	or	r22,r2,r16
 1427bb4:	882ad43a 	srli	r21,r17,16
 1427bb8:	b009883a 	mov	r4,r22
 1427bbc:	8d3fffcc 	andi	r20,r17,65535
 1427bc0:	a80b883a 	mov	r5,r21
 1427bc4:	142883c0 	call	142883c <__umodsi3>
 1427bc8:	b009883a 	mov	r4,r22
 1427bcc:	a80b883a 	mov	r5,r21
 1427bd0:	1027883a 	mov	r19,r2
 1427bd4:	14287d80 	call	14287d8 <__udivsi3>
 1427bd8:	100b883a 	mov	r5,r2
 1427bdc:	a009883a 	mov	r4,r20
 1427be0:	102d883a 	mov	r22,r2
 1427be4:	14288940 	call	1428894 <__mulsi3>
 1427be8:	9826943a 	slli	r19,r19,16
 1427bec:	9006d43a 	srli	r3,r18,16
 1427bf0:	1cc6b03a 	or	r3,r3,r19
 1427bf4:	1880052e 	bgeu	r3,r2,1427c0c <__udivdi3+0xec>
 1427bf8:	1c47883a 	add	r3,r3,r17
 1427bfc:	b13fffc4 	addi	r4,r22,-1
 1427c00:	1c400136 	bltu	r3,r17,1427c08 <__udivdi3+0xe8>
 1427c04:	18814236 	bltu	r3,r2,1428110 <__udivdi3+0x5f0>
 1427c08:	202d883a 	mov	r22,r4
 1427c0c:	18a1c83a 	sub	r16,r3,r2
 1427c10:	8009883a 	mov	r4,r16
 1427c14:	a80b883a 	mov	r5,r21
 1427c18:	142883c0 	call	142883c <__umodsi3>
 1427c1c:	1027883a 	mov	r19,r2
 1427c20:	8009883a 	mov	r4,r16
 1427c24:	a80b883a 	mov	r5,r21
 1427c28:	9826943a 	slli	r19,r19,16
 1427c2c:	14287d80 	call	14287d8 <__udivsi3>
 1427c30:	100b883a 	mov	r5,r2
 1427c34:	a009883a 	mov	r4,r20
 1427c38:	94bfffcc 	andi	r18,r18,65535
 1427c3c:	1021883a 	mov	r16,r2
 1427c40:	94e4b03a 	or	r18,r18,r19
 1427c44:	14288940 	call	1428894 <__mulsi3>
 1427c48:	9080052e 	bgeu	r18,r2,1427c60 <__udivdi3+0x140>
 1427c4c:	8ca5883a 	add	r18,r17,r18
 1427c50:	80ffffc4 	addi	r3,r16,-1
 1427c54:	94410c36 	bltu	r18,r17,1428088 <__udivdi3+0x568>
 1427c58:	90810b2e 	bgeu	r18,r2,1428088 <__udivdi3+0x568>
 1427c5c:	843fff84 	addi	r16,r16,-2
 1427c60:	b004943a 	slli	r2,r22,16
 1427c64:	0007883a 	mov	r3,zero
 1427c68:	1404b03a 	or	r2,r2,r16
 1427c6c:	00005e06 	br	1427de8 <__udivdi3+0x2c8>
 1427c70:	29c05b36 	bltu	r5,r7,1427de0 <__udivdi3+0x2c0>
 1427c74:	00bfffd4 	movui	r2,65535
 1427c78:	11c0672e 	bgeu	r2,r7,1427e18 <__udivdi3+0x2f8>
 1427c7c:	00804034 	movhi	r2,256
 1427c80:	10bfffc4 	addi	r2,r2,-1
 1427c84:	11c10a36 	bltu	r2,r7,14280b0 <__udivdi3+0x590>
 1427c88:	00800404 	movi	r2,16
 1427c8c:	3886d83a 	srl	r3,r7,r2
 1427c90:	010050f4 	movhi	r4,323
 1427c94:	2137be04 	addi	r4,r4,-8456
 1427c98:	20c7883a 	add	r3,r4,r3
 1427c9c:	18c00003 	ldbu	r3,0(r3)
 1427ca0:	05c00804 	movi	r23,32
 1427ca4:	1885883a 	add	r2,r3,r2
 1427ca8:	b8afc83a 	sub	r23,r23,r2
 1427cac:	b800671e 	bne	r23,zero,1427e4c <__udivdi3+0x32c>
 1427cb0:	3c010536 	bltu	r7,r16,14280c8 <__udivdi3+0x5a8>
 1427cb4:	9985403a 	cmpgeu	r2,r19,r6
 1427cb8:	0007883a 	mov	r3,zero
 1427cbc:	00004a06 	br	1427de8 <__udivdi3+0x2c8>
 1427cc0:	3000041e 	bne	r6,zero,1427cd4 <__udivdi3+0x1b4>
 1427cc4:	000b883a 	mov	r5,zero
 1427cc8:	01000044 	movi	r4,1
 1427ccc:	14287d80 	call	14287d8 <__udivsi3>
 1427cd0:	1023883a 	mov	r17,r2
 1427cd4:	00bfffd4 	movui	r2,65535
 1427cd8:	1440532e 	bgeu	r2,r17,1427e28 <__udivdi3+0x308>
 1427cdc:	00804034 	movhi	r2,256
 1427ce0:	10bfffc4 	addi	r2,r2,-1
 1427ce4:	1440f436 	bltu	r2,r17,14280b8 <__udivdi3+0x598>
 1427ce8:	00800404 	movi	r2,16
 1427cec:	8886d83a 	srl	r3,r17,r2
 1427cf0:	010050f4 	movhi	r4,323
 1427cf4:	2137be04 	addi	r4,r4,-8456
 1427cf8:	20c7883a 	add	r3,r4,r3
 1427cfc:	18c00003 	ldbu	r3,0(r3)
 1427d00:	1885883a 	add	r2,r3,r2
 1427d04:	00c00804 	movi	r3,32
 1427d08:	1887c83a 	sub	r3,r3,r2
 1427d0c:	1800a51e 	bne	r3,zero,1427fa4 <__udivdi3+0x484>
 1427d10:	882ad43a 	srli	r21,r17,16
 1427d14:	8461c83a 	sub	r16,r16,r17
 1427d18:	8d3fffcc 	andi	r20,r17,65535
 1427d1c:	00c00044 	movi	r3,1
 1427d20:	a80b883a 	mov	r5,r21
 1427d24:	8009883a 	mov	r4,r16
 1427d28:	d8c00115 	stw	r3,4(sp)
 1427d2c:	142883c0 	call	142883c <__umodsi3>
 1427d30:	a80b883a 	mov	r5,r21
 1427d34:	8009883a 	mov	r4,r16
 1427d38:	1027883a 	mov	r19,r2
 1427d3c:	14287d80 	call	14287d8 <__udivsi3>
 1427d40:	a00b883a 	mov	r5,r20
 1427d44:	1009883a 	mov	r4,r2
 1427d48:	102d883a 	mov	r22,r2
 1427d4c:	14288940 	call	1428894 <__mulsi3>
 1427d50:	9826943a 	slli	r19,r19,16
 1427d54:	900ed43a 	srli	r7,r18,16
 1427d58:	d8c00117 	ldw	r3,4(sp)
 1427d5c:	3cceb03a 	or	r7,r7,r19
 1427d60:	3880052e 	bgeu	r7,r2,1427d78 <__udivdi3+0x258>
 1427d64:	3c4f883a 	add	r7,r7,r17
 1427d68:	b13fffc4 	addi	r4,r22,-1
 1427d6c:	3c400136 	bltu	r7,r17,1427d74 <__udivdi3+0x254>
 1427d70:	3880e436 	bltu	r7,r2,1428104 <__udivdi3+0x5e4>
 1427d74:	202d883a 	mov	r22,r4
 1427d78:	38a1c83a 	sub	r16,r7,r2
 1427d7c:	8009883a 	mov	r4,r16
 1427d80:	a80b883a 	mov	r5,r21
 1427d84:	d8c00115 	stw	r3,4(sp)
 1427d88:	142883c0 	call	142883c <__umodsi3>
 1427d8c:	1027883a 	mov	r19,r2
 1427d90:	8009883a 	mov	r4,r16
 1427d94:	a80b883a 	mov	r5,r21
 1427d98:	9826943a 	slli	r19,r19,16
 1427d9c:	14287d80 	call	14287d8 <__udivsi3>
 1427da0:	a00b883a 	mov	r5,r20
 1427da4:	1009883a 	mov	r4,r2
 1427da8:	94bfffcc 	andi	r18,r18,65535
 1427dac:	1021883a 	mov	r16,r2
 1427db0:	94e4b03a 	or	r18,r18,r19
 1427db4:	14288940 	call	1428894 <__mulsi3>
 1427db8:	d8c00117 	ldw	r3,4(sp)
 1427dbc:	9080052e 	bgeu	r18,r2,1427dd4 <__udivdi3+0x2b4>
 1427dc0:	8ca5883a 	add	r18,r17,r18
 1427dc4:	813fffc4 	addi	r4,r16,-1
 1427dc8:	9440ad36 	bltu	r18,r17,1428080 <__udivdi3+0x560>
 1427dcc:	9080ac2e 	bgeu	r18,r2,1428080 <__udivdi3+0x560>
 1427dd0:	843fff84 	addi	r16,r16,-2
 1427dd4:	b004943a 	slli	r2,r22,16
 1427dd8:	1404b03a 	or	r2,r2,r16
 1427ddc:	00000206 	br	1427de8 <__udivdi3+0x2c8>
 1427de0:	0007883a 	mov	r3,zero
 1427de4:	0005883a 	mov	r2,zero
 1427de8:	dfc00b17 	ldw	ra,44(sp)
 1427dec:	df000a17 	ldw	fp,40(sp)
 1427df0:	ddc00917 	ldw	r23,36(sp)
 1427df4:	dd800817 	ldw	r22,32(sp)
 1427df8:	dd400717 	ldw	r21,28(sp)
 1427dfc:	dd000617 	ldw	r20,24(sp)
 1427e00:	dcc00517 	ldw	r19,20(sp)
 1427e04:	dc800417 	ldw	r18,16(sp)
 1427e08:	dc400317 	ldw	r17,12(sp)
 1427e0c:	dc000217 	ldw	r16,8(sp)
 1427e10:	dec00c04 	addi	sp,sp,48
 1427e14:	f800283a 	ret
 1427e18:	00803fc4 	movi	r2,255
 1427e1c:	11c5803a 	cmpltu	r2,r2,r7
 1427e20:	100490fa 	slli	r2,r2,3
 1427e24:	003f9906 	br	1427c8c <__alt_data_end+0xfffe7c8c>
 1427e28:	00803fc4 	movi	r2,255
 1427e2c:	1445803a 	cmpltu	r2,r2,r17
 1427e30:	100490fa 	slli	r2,r2,3
 1427e34:	003fad06 	br	1427cec <__alt_data_end+0xfffe7cec>
 1427e38:	00804034 	movhi	r2,256
 1427e3c:	10bfffc4 	addi	r2,r2,-1
 1427e40:	11809f36 	bltu	r2,r6,14280c0 <__udivdi3+0x5a0>
 1427e44:	00800404 	movi	r2,16
 1427e48:	003f4c06 	br	1427b7c <__alt_data_end+0xfffe7b7c>
 1427e4c:	3dce983a 	sll	r7,r7,r23
 1427e50:	30b8d83a 	srl	fp,r6,r2
 1427e54:	80a2d83a 	srl	r17,r16,r2
 1427e58:	35cc983a 	sll	r6,r6,r23
 1427e5c:	3f38b03a 	or	fp,r7,fp
 1427e60:	e024d43a 	srli	r18,fp,16
 1427e64:	9884d83a 	srl	r2,r19,r2
 1427e68:	85e0983a 	sll	r16,r16,r23
 1427e6c:	8809883a 	mov	r4,r17
 1427e70:	900b883a 	mov	r5,r18
 1427e74:	d9800015 	stw	r6,0(sp)
 1427e78:	1420b03a 	or	r16,r2,r16
 1427e7c:	142883c0 	call	142883c <__umodsi3>
 1427e80:	900b883a 	mov	r5,r18
 1427e84:	8809883a 	mov	r4,r17
 1427e88:	1029883a 	mov	r20,r2
 1427e8c:	e5bfffcc 	andi	r22,fp,65535
 1427e90:	14287d80 	call	14287d8 <__udivsi3>
 1427e94:	100b883a 	mov	r5,r2
 1427e98:	b009883a 	mov	r4,r22
 1427e9c:	102b883a 	mov	r21,r2
 1427ea0:	14288940 	call	1428894 <__mulsi3>
 1427ea4:	a028943a 	slli	r20,r20,16
 1427ea8:	8006d43a 	srli	r3,r16,16
 1427eac:	1d06b03a 	or	r3,r3,r20
 1427eb0:	1880042e 	bgeu	r3,r2,1427ec4 <__udivdi3+0x3a4>
 1427eb4:	1f07883a 	add	r3,r3,fp
 1427eb8:	a93fffc4 	addi	r4,r21,-1
 1427ebc:	1f00892e 	bgeu	r3,fp,14280e4 <__udivdi3+0x5c4>
 1427ec0:	202b883a 	mov	r21,r4
 1427ec4:	18a3c83a 	sub	r17,r3,r2
 1427ec8:	8809883a 	mov	r4,r17
 1427ecc:	900b883a 	mov	r5,r18
 1427ed0:	142883c0 	call	142883c <__umodsi3>
 1427ed4:	1029883a 	mov	r20,r2
 1427ed8:	8809883a 	mov	r4,r17
 1427edc:	900b883a 	mov	r5,r18
 1427ee0:	a028943a 	slli	r20,r20,16
 1427ee4:	14287d80 	call	14287d8 <__udivsi3>
 1427ee8:	100b883a 	mov	r5,r2
 1427eec:	b009883a 	mov	r4,r22
 1427ef0:	843fffcc 	andi	r16,r16,65535
 1427ef4:	1023883a 	mov	r17,r2
 1427ef8:	8520b03a 	or	r16,r16,r20
 1427efc:	14288940 	call	1428894 <__mulsi3>
 1427f00:	8080042e 	bgeu	r16,r2,1427f14 <__udivdi3+0x3f4>
 1427f04:	8721883a 	add	r16,r16,fp
 1427f08:	88ffffc4 	addi	r3,r17,-1
 1427f0c:	8700712e 	bgeu	r16,fp,14280d4 <__udivdi3+0x5b4>
 1427f10:	1823883a 	mov	r17,r3
 1427f14:	a80e943a 	slli	r7,r21,16
 1427f18:	d8c00017 	ldw	r3,0(sp)
 1427f1c:	80a1c83a 	sub	r16,r16,r2
 1427f20:	3c64b03a 	or	r18,r7,r17
 1427f24:	1d3fffcc 	andi	r20,r3,65535
 1427f28:	9022d43a 	srli	r17,r18,16
 1427f2c:	95bfffcc 	andi	r22,r18,65535
 1427f30:	a00b883a 	mov	r5,r20
 1427f34:	b009883a 	mov	r4,r22
 1427f38:	182ad43a 	srli	r21,r3,16
 1427f3c:	14288940 	call	1428894 <__mulsi3>
 1427f40:	a00b883a 	mov	r5,r20
 1427f44:	8809883a 	mov	r4,r17
 1427f48:	1039883a 	mov	fp,r2
 1427f4c:	14288940 	call	1428894 <__mulsi3>
 1427f50:	8809883a 	mov	r4,r17
 1427f54:	a80b883a 	mov	r5,r21
 1427f58:	1029883a 	mov	r20,r2
 1427f5c:	14288940 	call	1428894 <__mulsi3>
 1427f60:	a80b883a 	mov	r5,r21
 1427f64:	b009883a 	mov	r4,r22
 1427f68:	1023883a 	mov	r17,r2
 1427f6c:	14288940 	call	1428894 <__mulsi3>
 1427f70:	e006d43a 	srli	r3,fp,16
 1427f74:	1505883a 	add	r2,r2,r20
 1427f78:	1887883a 	add	r3,r3,r2
 1427f7c:	1d00022e 	bgeu	r3,r20,1427f88 <__udivdi3+0x468>
 1427f80:	00800074 	movhi	r2,1
 1427f84:	88a3883a 	add	r17,r17,r2
 1427f88:	1804d43a 	srli	r2,r3,16
 1427f8c:	1463883a 	add	r17,r2,r17
 1427f90:	84404436 	bltu	r16,r17,14280a4 <__udivdi3+0x584>
 1427f94:	84403e26 	beq	r16,r17,1428090 <__udivdi3+0x570>
 1427f98:	9005883a 	mov	r2,r18
 1427f9c:	0007883a 	mov	r3,zero
 1427fa0:	003f9106 	br	1427de8 <__alt_data_end+0xfffe7de8>
 1427fa4:	88e2983a 	sll	r17,r17,r3
 1427fa8:	80aed83a 	srl	r23,r16,r2
 1427fac:	80e0983a 	sll	r16,r16,r3
 1427fb0:	882ad43a 	srli	r21,r17,16
 1427fb4:	9884d83a 	srl	r2,r19,r2
 1427fb8:	b809883a 	mov	r4,r23
 1427fbc:	a80b883a 	mov	r5,r21
 1427fc0:	98e4983a 	sll	r18,r19,r3
 1427fc4:	142cb03a 	or	r22,r2,r16
 1427fc8:	142883c0 	call	142883c <__umodsi3>
 1427fcc:	b809883a 	mov	r4,r23
 1427fd0:	a80b883a 	mov	r5,r21
 1427fd4:	1027883a 	mov	r19,r2
 1427fd8:	8d3fffcc 	andi	r20,r17,65535
 1427fdc:	14287d80 	call	14287d8 <__udivsi3>
 1427fe0:	a009883a 	mov	r4,r20
 1427fe4:	100b883a 	mov	r5,r2
 1427fe8:	102f883a 	mov	r23,r2
 1427fec:	14288940 	call	1428894 <__mulsi3>
 1427ff0:	9826943a 	slli	r19,r19,16
 1427ff4:	b008d43a 	srli	r4,r22,16
 1427ff8:	24c8b03a 	or	r4,r4,r19
 1427ffc:	2080062e 	bgeu	r4,r2,1428018 <__udivdi3+0x4f8>
 1428000:	2449883a 	add	r4,r4,r17
 1428004:	b8ffffc4 	addi	r3,r23,-1
 1428008:	24403c36 	bltu	r4,r17,14280fc <__udivdi3+0x5dc>
 142800c:	20803b2e 	bgeu	r4,r2,14280fc <__udivdi3+0x5dc>
 1428010:	bdffff84 	addi	r23,r23,-2
 1428014:	2449883a 	add	r4,r4,r17
 1428018:	20a1c83a 	sub	r16,r4,r2
 142801c:	a80b883a 	mov	r5,r21
 1428020:	8009883a 	mov	r4,r16
 1428024:	142883c0 	call	142883c <__umodsi3>
 1428028:	a80b883a 	mov	r5,r21
 142802c:	8009883a 	mov	r4,r16
 1428030:	1027883a 	mov	r19,r2
 1428034:	14287d80 	call	14287d8 <__udivsi3>
 1428038:	a009883a 	mov	r4,r20
 142803c:	100b883a 	mov	r5,r2
 1428040:	9826943a 	slli	r19,r19,16
 1428044:	1039883a 	mov	fp,r2
 1428048:	14288940 	call	1428894 <__mulsi3>
 142804c:	b13fffcc 	andi	r4,r22,65535
 1428050:	24c8b03a 	or	r4,r4,r19
 1428054:	2080062e 	bgeu	r4,r2,1428070 <__udivdi3+0x550>
 1428058:	2449883a 	add	r4,r4,r17
 142805c:	e0ffffc4 	addi	r3,fp,-1
 1428060:	24402436 	bltu	r4,r17,14280f4 <__udivdi3+0x5d4>
 1428064:	2080232e 	bgeu	r4,r2,14280f4 <__udivdi3+0x5d4>
 1428068:	e73fff84 	addi	fp,fp,-2
 142806c:	2449883a 	add	r4,r4,r17
 1428070:	b82e943a 	slli	r23,r23,16
 1428074:	20a1c83a 	sub	r16,r4,r2
 1428078:	bf06b03a 	or	r3,r23,fp
 142807c:	003f2806 	br	1427d20 <__alt_data_end+0xfffe7d20>
 1428080:	2021883a 	mov	r16,r4
 1428084:	003f5306 	br	1427dd4 <__alt_data_end+0xfffe7dd4>
 1428088:	1821883a 	mov	r16,r3
 142808c:	003ef406 	br	1427c60 <__alt_data_end+0xfffe7c60>
 1428090:	1806943a 	slli	r3,r3,16
 1428094:	9de6983a 	sll	r19,r19,r23
 1428098:	e73fffcc 	andi	fp,fp,65535
 142809c:	1f07883a 	add	r3,r3,fp
 14280a0:	98ffbd2e 	bgeu	r19,r3,1427f98 <__alt_data_end+0xfffe7f98>
 14280a4:	90bfffc4 	addi	r2,r18,-1
 14280a8:	0007883a 	mov	r3,zero
 14280ac:	003f4e06 	br	1427de8 <__alt_data_end+0xfffe7de8>
 14280b0:	00800604 	movi	r2,24
 14280b4:	003ef506 	br	1427c8c <__alt_data_end+0xfffe7c8c>
 14280b8:	00800604 	movi	r2,24
 14280bc:	003f0b06 	br	1427cec <__alt_data_end+0xfffe7cec>
 14280c0:	00800604 	movi	r2,24
 14280c4:	003ead06 	br	1427b7c <__alt_data_end+0xfffe7b7c>
 14280c8:	0007883a 	mov	r3,zero
 14280cc:	00800044 	movi	r2,1
 14280d0:	003f4506 	br	1427de8 <__alt_data_end+0xfffe7de8>
 14280d4:	80bf8e2e 	bgeu	r16,r2,1427f10 <__alt_data_end+0xfffe7f10>
 14280d8:	8c7fff84 	addi	r17,r17,-2
 14280dc:	8721883a 	add	r16,r16,fp
 14280e0:	003f8c06 	br	1427f14 <__alt_data_end+0xfffe7f14>
 14280e4:	18bf762e 	bgeu	r3,r2,1427ec0 <__alt_data_end+0xfffe7ec0>
 14280e8:	ad7fff84 	addi	r21,r21,-2
 14280ec:	1f07883a 	add	r3,r3,fp
 14280f0:	003f7406 	br	1427ec4 <__alt_data_end+0xfffe7ec4>
 14280f4:	1839883a 	mov	fp,r3
 14280f8:	003fdd06 	br	1428070 <__alt_data_end+0xfffe8070>
 14280fc:	182f883a 	mov	r23,r3
 1428100:	003fc506 	br	1428018 <__alt_data_end+0xfffe8018>
 1428104:	b5bfff84 	addi	r22,r22,-2
 1428108:	3c4f883a 	add	r7,r7,r17
 142810c:	003f1a06 	br	1427d78 <__alt_data_end+0xfffe7d78>
 1428110:	b5bfff84 	addi	r22,r22,-2
 1428114:	1c47883a 	add	r3,r3,r17
 1428118:	003ebc06 	br	1427c0c <__alt_data_end+0xfffe7c0c>

0142811c <__umoddi3>:
 142811c:	defff304 	addi	sp,sp,-52
 1428120:	df000b15 	stw	fp,44(sp)
 1428124:	dc400415 	stw	r17,16(sp)
 1428128:	dc000315 	stw	r16,12(sp)
 142812c:	dfc00c15 	stw	ra,48(sp)
 1428130:	ddc00a15 	stw	r23,40(sp)
 1428134:	dd800915 	stw	r22,36(sp)
 1428138:	dd400815 	stw	r21,32(sp)
 142813c:	dd000715 	stw	r20,28(sp)
 1428140:	dcc00615 	stw	r19,24(sp)
 1428144:	dc800515 	stw	r18,20(sp)
 1428148:	2021883a 	mov	r16,r4
 142814c:	2823883a 	mov	r17,r5
 1428150:	2839883a 	mov	fp,r5
 1428154:	3800401e 	bne	r7,zero,1428258 <__umoddi3+0x13c>
 1428158:	3027883a 	mov	r19,r6
 142815c:	2029883a 	mov	r20,r4
 1428160:	2980552e 	bgeu	r5,r6,14282b8 <__umoddi3+0x19c>
 1428164:	00bfffd4 	movui	r2,65535
 1428168:	1180a236 	bltu	r2,r6,14283f4 <__umoddi3+0x2d8>
 142816c:	01003fc4 	movi	r4,255
 1428170:	2189803a 	cmpltu	r4,r4,r6
 1428174:	200890fa 	slli	r4,r4,3
 1428178:	3104d83a 	srl	r2,r6,r4
 142817c:	00c050f4 	movhi	r3,323
 1428180:	18f7be04 	addi	r3,r3,-8456
 1428184:	1885883a 	add	r2,r3,r2
 1428188:	10c00003 	ldbu	r3,0(r2)
 142818c:	00800804 	movi	r2,32
 1428190:	1909883a 	add	r4,r3,r4
 1428194:	1125c83a 	sub	r18,r2,r4
 1428198:	90000526 	beq	r18,zero,14281b0 <__umoddi3+0x94>
 142819c:	8ca2983a 	sll	r17,r17,r18
 14281a0:	8108d83a 	srl	r4,r16,r4
 14281a4:	34a6983a 	sll	r19,r6,r18
 14281a8:	84a8983a 	sll	r20,r16,r18
 14281ac:	2478b03a 	or	fp,r4,r17
 14281b0:	982cd43a 	srli	r22,r19,16
 14281b4:	e009883a 	mov	r4,fp
 14281b8:	9dffffcc 	andi	r23,r19,65535
 14281bc:	b00b883a 	mov	r5,r22
 14281c0:	142883c0 	call	142883c <__umodsi3>
 14281c4:	b00b883a 	mov	r5,r22
 14281c8:	e009883a 	mov	r4,fp
 14281cc:	102b883a 	mov	r21,r2
 14281d0:	14287d80 	call	14287d8 <__udivsi3>
 14281d4:	100b883a 	mov	r5,r2
 14281d8:	b809883a 	mov	r4,r23
 14281dc:	14288940 	call	1428894 <__mulsi3>
 14281e0:	a82a943a 	slli	r21,r21,16
 14281e4:	a006d43a 	srli	r3,r20,16
 14281e8:	1d46b03a 	or	r3,r3,r21
 14281ec:	1880032e 	bgeu	r3,r2,14281fc <__umoddi3+0xe0>
 14281f0:	1cc7883a 	add	r3,r3,r19
 14281f4:	1cc00136 	bltu	r3,r19,14281fc <__umoddi3+0xe0>
 14281f8:	18813136 	bltu	r3,r2,14286c0 <__umoddi3+0x5a4>
 14281fc:	18a1c83a 	sub	r16,r3,r2
 1428200:	b00b883a 	mov	r5,r22
 1428204:	8009883a 	mov	r4,r16
 1428208:	142883c0 	call	142883c <__umodsi3>
 142820c:	b00b883a 	mov	r5,r22
 1428210:	8009883a 	mov	r4,r16
 1428214:	1023883a 	mov	r17,r2
 1428218:	14287d80 	call	14287d8 <__udivsi3>
 142821c:	100b883a 	mov	r5,r2
 1428220:	b809883a 	mov	r4,r23
 1428224:	8822943a 	slli	r17,r17,16
 1428228:	14288940 	call	1428894 <__mulsi3>
 142822c:	a0ffffcc 	andi	r3,r20,65535
 1428230:	1c46b03a 	or	r3,r3,r17
 1428234:	1880042e 	bgeu	r3,r2,1428248 <__umoddi3+0x12c>
 1428238:	1cc7883a 	add	r3,r3,r19
 142823c:	1cc00236 	bltu	r3,r19,1428248 <__umoddi3+0x12c>
 1428240:	1880012e 	bgeu	r3,r2,1428248 <__umoddi3+0x12c>
 1428244:	1cc7883a 	add	r3,r3,r19
 1428248:	1885c83a 	sub	r2,r3,r2
 142824c:	1484d83a 	srl	r2,r2,r18
 1428250:	0007883a 	mov	r3,zero
 1428254:	00005306 	br	14283a4 <__umoddi3+0x288>
 1428258:	29c05036 	bltu	r5,r7,142839c <__umoddi3+0x280>
 142825c:	00bfffd4 	movui	r2,65535
 1428260:	11c05c2e 	bgeu	r2,r7,14283d4 <__umoddi3+0x2b8>
 1428264:	00804034 	movhi	r2,256
 1428268:	10bfffc4 	addi	r2,r2,-1
 142826c:	11c10636 	bltu	r2,r7,1428688 <__umoddi3+0x56c>
 1428270:	01000404 	movi	r4,16
 1428274:	3904d83a 	srl	r2,r7,r4
 1428278:	00c050f4 	movhi	r3,323
 142827c:	18f7be04 	addi	r3,r3,-8456
 1428280:	1885883a 	add	r2,r3,r2
 1428284:	14c00003 	ldbu	r19,0(r2)
 1428288:	00c00804 	movi	r3,32
 142828c:	9927883a 	add	r19,r19,r4
 1428290:	1ce9c83a 	sub	r20,r3,r19
 1428294:	a0005c1e 	bne	r20,zero,1428408 <__umoddi3+0x2ec>
 1428298:	3c400136 	bltu	r7,r17,14282a0 <__umoddi3+0x184>
 142829c:	81810a36 	bltu	r16,r6,14286c8 <__umoddi3+0x5ac>
 14282a0:	8185c83a 	sub	r2,r16,r6
 14282a4:	89e3c83a 	sub	r17,r17,r7
 14282a8:	8089803a 	cmpltu	r4,r16,r2
 14282ac:	8939c83a 	sub	fp,r17,r4
 14282b0:	e007883a 	mov	r3,fp
 14282b4:	00003b06 	br	14283a4 <__umoddi3+0x288>
 14282b8:	3000041e 	bne	r6,zero,14282cc <__umoddi3+0x1b0>
 14282bc:	000b883a 	mov	r5,zero
 14282c0:	01000044 	movi	r4,1
 14282c4:	14287d80 	call	14287d8 <__udivsi3>
 14282c8:	1027883a 	mov	r19,r2
 14282cc:	00bfffd4 	movui	r2,65535
 14282d0:	14c0442e 	bgeu	r2,r19,14283e4 <__umoddi3+0x2c8>
 14282d4:	00804034 	movhi	r2,256
 14282d8:	10bfffc4 	addi	r2,r2,-1
 14282dc:	14c0ec36 	bltu	r2,r19,1428690 <__umoddi3+0x574>
 14282e0:	00800404 	movi	r2,16
 14282e4:	9886d83a 	srl	r3,r19,r2
 14282e8:	010050f4 	movhi	r4,323
 14282ec:	2137be04 	addi	r4,r4,-8456
 14282f0:	20c7883a 	add	r3,r4,r3
 14282f4:	18c00003 	ldbu	r3,0(r3)
 14282f8:	1887883a 	add	r3,r3,r2
 14282fc:	00800804 	movi	r2,32
 1428300:	10e5c83a 	sub	r18,r2,r3
 1428304:	9000ab1e 	bne	r18,zero,14285b4 <__umoddi3+0x498>
 1428308:	982cd43a 	srli	r22,r19,16
 142830c:	8ce3c83a 	sub	r17,r17,r19
 1428310:	9dffffcc 	andi	r23,r19,65535
 1428314:	b00b883a 	mov	r5,r22
 1428318:	8809883a 	mov	r4,r17
 142831c:	142883c0 	call	142883c <__umodsi3>
 1428320:	b00b883a 	mov	r5,r22
 1428324:	8809883a 	mov	r4,r17
 1428328:	102b883a 	mov	r21,r2
 142832c:	14287d80 	call	14287d8 <__udivsi3>
 1428330:	b80b883a 	mov	r5,r23
 1428334:	1009883a 	mov	r4,r2
 1428338:	14288940 	call	1428894 <__mulsi3>
 142833c:	a82a943a 	slli	r21,r21,16
 1428340:	a006d43a 	srli	r3,r20,16
 1428344:	1d46b03a 	or	r3,r3,r21
 1428348:	1880042e 	bgeu	r3,r2,142835c <__umoddi3+0x240>
 142834c:	1cc7883a 	add	r3,r3,r19
 1428350:	1cc00236 	bltu	r3,r19,142835c <__umoddi3+0x240>
 1428354:	1880012e 	bgeu	r3,r2,142835c <__umoddi3+0x240>
 1428358:	1cc7883a 	add	r3,r3,r19
 142835c:	18a1c83a 	sub	r16,r3,r2
 1428360:	b00b883a 	mov	r5,r22
 1428364:	8009883a 	mov	r4,r16
 1428368:	142883c0 	call	142883c <__umodsi3>
 142836c:	1023883a 	mov	r17,r2
 1428370:	b00b883a 	mov	r5,r22
 1428374:	8009883a 	mov	r4,r16
 1428378:	14287d80 	call	14287d8 <__udivsi3>
 142837c:	8822943a 	slli	r17,r17,16
 1428380:	b80b883a 	mov	r5,r23
 1428384:	1009883a 	mov	r4,r2
 1428388:	14288940 	call	1428894 <__mulsi3>
 142838c:	a53fffcc 	andi	r20,r20,65535
 1428390:	a446b03a 	or	r3,r20,r17
 1428394:	18bfac2e 	bgeu	r3,r2,1428248 <__alt_data_end+0xfffe8248>
 1428398:	003fa706 	br	1428238 <__alt_data_end+0xfffe8238>
 142839c:	2005883a 	mov	r2,r4
 14283a0:	2807883a 	mov	r3,r5
 14283a4:	dfc00c17 	ldw	ra,48(sp)
 14283a8:	df000b17 	ldw	fp,44(sp)
 14283ac:	ddc00a17 	ldw	r23,40(sp)
 14283b0:	dd800917 	ldw	r22,36(sp)
 14283b4:	dd400817 	ldw	r21,32(sp)
 14283b8:	dd000717 	ldw	r20,28(sp)
 14283bc:	dcc00617 	ldw	r19,24(sp)
 14283c0:	dc800517 	ldw	r18,20(sp)
 14283c4:	dc400417 	ldw	r17,16(sp)
 14283c8:	dc000317 	ldw	r16,12(sp)
 14283cc:	dec00d04 	addi	sp,sp,52
 14283d0:	f800283a 	ret
 14283d4:	04c03fc4 	movi	r19,255
 14283d8:	99c9803a 	cmpltu	r4,r19,r7
 14283dc:	200890fa 	slli	r4,r4,3
 14283e0:	003fa406 	br	1428274 <__alt_data_end+0xfffe8274>
 14283e4:	00803fc4 	movi	r2,255
 14283e8:	14c5803a 	cmpltu	r2,r2,r19
 14283ec:	100490fa 	slli	r2,r2,3
 14283f0:	003fbc06 	br	14282e4 <__alt_data_end+0xfffe82e4>
 14283f4:	00804034 	movhi	r2,256
 14283f8:	10bfffc4 	addi	r2,r2,-1
 14283fc:	1180a636 	bltu	r2,r6,1428698 <__umoddi3+0x57c>
 1428400:	01000404 	movi	r4,16
 1428404:	003f5c06 	br	1428178 <__alt_data_end+0xfffe8178>
 1428408:	3d0e983a 	sll	r7,r7,r20
 142840c:	34ead83a 	srl	r21,r6,r19
 1428410:	8cc6d83a 	srl	r3,r17,r19
 1428414:	8d10983a 	sll	r8,r17,r20
 1428418:	3d6ab03a 	or	r21,r7,r21
 142841c:	a82cd43a 	srli	r22,r21,16
 1428420:	84e2d83a 	srl	r17,r16,r19
 1428424:	1809883a 	mov	r4,r3
 1428428:	b00b883a 	mov	r5,r22
 142842c:	8a22b03a 	or	r17,r17,r8
 1428430:	3524983a 	sll	r18,r6,r20
 1428434:	dc400015 	stw	r17,0(sp)
 1428438:	d8c00115 	stw	r3,4(sp)
 142843c:	142883c0 	call	142883c <__umodsi3>
 1428440:	d8c00117 	ldw	r3,4(sp)
 1428444:	b00b883a 	mov	r5,r22
 1428448:	1039883a 	mov	fp,r2
 142844c:	1809883a 	mov	r4,r3
 1428450:	14287d80 	call	14287d8 <__udivsi3>
 1428454:	adffffcc 	andi	r23,r21,65535
 1428458:	100b883a 	mov	r5,r2
 142845c:	b809883a 	mov	r4,r23
 1428460:	1023883a 	mov	r17,r2
 1428464:	14288940 	call	1428894 <__mulsi3>
 1428468:	d9400017 	ldw	r5,0(sp)
 142846c:	e008943a 	slli	r4,fp,16
 1428470:	8520983a 	sll	r16,r16,r20
 1428474:	2806d43a 	srli	r3,r5,16
 1428478:	1906b03a 	or	r3,r3,r4
 142847c:	1880042e 	bgeu	r3,r2,1428490 <__umoddi3+0x374>
 1428480:	1d47883a 	add	r3,r3,r21
 1428484:	893fffc4 	addi	r4,r17,-1
 1428488:	1d40892e 	bgeu	r3,r21,14286b0 <__umoddi3+0x594>
 142848c:	2023883a 	mov	r17,r4
 1428490:	18b9c83a 	sub	fp,r3,r2
 1428494:	b00b883a 	mov	r5,r22
 1428498:	e009883a 	mov	r4,fp
 142849c:	142883c0 	call	142883c <__umodsi3>
 14284a0:	b00b883a 	mov	r5,r22
 14284a4:	e009883a 	mov	r4,fp
 14284a8:	d8800215 	stw	r2,8(sp)
 14284ac:	14287d80 	call	14287d8 <__udivsi3>
 14284b0:	100b883a 	mov	r5,r2
 14284b4:	b809883a 	mov	r4,r23
 14284b8:	102d883a 	mov	r22,r2
 14284bc:	14288940 	call	1428894 <__mulsi3>
 14284c0:	d9800217 	ldw	r6,8(sp)
 14284c4:	d8c00017 	ldw	r3,0(sp)
 14284c8:	300c943a 	slli	r6,r6,16
 14284cc:	1a3fffcc 	andi	r8,r3,65535
 14284d0:	4190b03a 	or	r8,r8,r6
 14284d4:	4080042e 	bgeu	r8,r2,14284e8 <__umoddi3+0x3cc>
 14284d8:	4551883a 	add	r8,r8,r21
 14284dc:	b0ffffc4 	addi	r3,r22,-1
 14284e0:	45406f2e 	bgeu	r8,r21,14286a0 <__umoddi3+0x584>
 14284e4:	182d883a 	mov	r22,r3
 14284e8:	880e943a 	slli	r7,r17,16
 14284ec:	9006d43a 	srli	r3,r18,16
 14284f0:	91bfffcc 	andi	r6,r18,65535
 14284f4:	3dacb03a 	or	r22,r7,r22
 14284f8:	b02ed43a 	srli	r23,r22,16
 14284fc:	b5bfffcc 	andi	r22,r22,65535
 1428500:	300b883a 	mov	r5,r6
 1428504:	b009883a 	mov	r4,r22
 1428508:	40a3c83a 	sub	r17,r8,r2
 142850c:	d8c00115 	stw	r3,4(sp)
 1428510:	d9800215 	stw	r6,8(sp)
 1428514:	14288940 	call	1428894 <__mulsi3>
 1428518:	d9800217 	ldw	r6,8(sp)
 142851c:	b809883a 	mov	r4,r23
 1428520:	1039883a 	mov	fp,r2
 1428524:	300b883a 	mov	r5,r6
 1428528:	14288940 	call	1428894 <__mulsi3>
 142852c:	d8c00117 	ldw	r3,4(sp)
 1428530:	b809883a 	mov	r4,r23
 1428534:	d8800215 	stw	r2,8(sp)
 1428538:	180b883a 	mov	r5,r3
 142853c:	14288940 	call	1428894 <__mulsi3>
 1428540:	d8c00117 	ldw	r3,4(sp)
 1428544:	b009883a 	mov	r4,r22
 1428548:	102f883a 	mov	r23,r2
 142854c:	180b883a 	mov	r5,r3
 1428550:	14288940 	call	1428894 <__mulsi3>
 1428554:	d9800217 	ldw	r6,8(sp)
 1428558:	e006d43a 	srli	r3,fp,16
 142855c:	1185883a 	add	r2,r2,r6
 1428560:	1885883a 	add	r2,r3,r2
 1428564:	1180022e 	bgeu	r2,r6,1428570 <__umoddi3+0x454>
 1428568:	00c00074 	movhi	r3,1
 142856c:	b8ef883a 	add	r23,r23,r3
 1428570:	1006d43a 	srli	r3,r2,16
 1428574:	1004943a 	slli	r2,r2,16
 1428578:	e73fffcc 	andi	fp,fp,65535
 142857c:	1dc7883a 	add	r3,r3,r23
 1428580:	1739883a 	add	fp,r2,fp
 1428584:	88c03a36 	bltu	r17,r3,1428670 <__umoddi3+0x554>
 1428588:	88c05126 	beq	r17,r3,14286d0 <__umoddi3+0x5b4>
 142858c:	88c9c83a 	sub	r4,r17,r3
 1428590:	e00f883a 	mov	r7,fp
 1428594:	81cfc83a 	sub	r7,r16,r7
 1428598:	81c7803a 	cmpltu	r3,r16,r7
 142859c:	20c7c83a 	sub	r3,r4,r3
 14285a0:	1cc4983a 	sll	r2,r3,r19
 14285a4:	3d0ed83a 	srl	r7,r7,r20
 14285a8:	1d06d83a 	srl	r3,r3,r20
 14285ac:	11c4b03a 	or	r2,r2,r7
 14285b0:	003f7c06 	br	14283a4 <__alt_data_end+0xfffe83a4>
 14285b4:	9ca6983a 	sll	r19,r19,r18
 14285b8:	88f8d83a 	srl	fp,r17,r3
 14285bc:	80c4d83a 	srl	r2,r16,r3
 14285c0:	982cd43a 	srli	r22,r19,16
 14285c4:	8ca2983a 	sll	r17,r17,r18
 14285c8:	e009883a 	mov	r4,fp
 14285cc:	b00b883a 	mov	r5,r22
 14285d0:	146ab03a 	or	r21,r2,r17
 14285d4:	142883c0 	call	142883c <__umodsi3>
 14285d8:	b00b883a 	mov	r5,r22
 14285dc:	e009883a 	mov	r4,fp
 14285e0:	1029883a 	mov	r20,r2
 14285e4:	9dffffcc 	andi	r23,r19,65535
 14285e8:	14287d80 	call	14287d8 <__udivsi3>
 14285ec:	b809883a 	mov	r4,r23
 14285f0:	100b883a 	mov	r5,r2
 14285f4:	14288940 	call	1428894 <__mulsi3>
 14285f8:	a008943a 	slli	r4,r20,16
 14285fc:	a806d43a 	srli	r3,r21,16
 1428600:	84a8983a 	sll	r20,r16,r18
 1428604:	1906b03a 	or	r3,r3,r4
 1428608:	1880042e 	bgeu	r3,r2,142861c <__umoddi3+0x500>
 142860c:	1cc7883a 	add	r3,r3,r19
 1428610:	1cc00236 	bltu	r3,r19,142861c <__umoddi3+0x500>
 1428614:	1880012e 	bgeu	r3,r2,142861c <__umoddi3+0x500>
 1428618:	1cc7883a 	add	r3,r3,r19
 142861c:	18a3c83a 	sub	r17,r3,r2
 1428620:	b00b883a 	mov	r5,r22
 1428624:	8809883a 	mov	r4,r17
 1428628:	142883c0 	call	142883c <__umodsi3>
 142862c:	b00b883a 	mov	r5,r22
 1428630:	8809883a 	mov	r4,r17
 1428634:	1021883a 	mov	r16,r2
 1428638:	14287d80 	call	14287d8 <__udivsi3>
 142863c:	100b883a 	mov	r5,r2
 1428640:	b809883a 	mov	r4,r23
 1428644:	8020943a 	slli	r16,r16,16
 1428648:	14288940 	call	1428894 <__mulsi3>
 142864c:	a8ffffcc 	andi	r3,r21,65535
 1428650:	1c06b03a 	or	r3,r3,r16
 1428654:	1880042e 	bgeu	r3,r2,1428668 <__umoddi3+0x54c>
 1428658:	1cc7883a 	add	r3,r3,r19
 142865c:	1cc00236 	bltu	r3,r19,1428668 <__umoddi3+0x54c>
 1428660:	1880012e 	bgeu	r3,r2,1428668 <__umoddi3+0x54c>
 1428664:	1cc7883a 	add	r3,r3,r19
 1428668:	18a3c83a 	sub	r17,r3,r2
 142866c:	003f2906 	br	1428314 <__alt_data_end+0xfffe8314>
 1428670:	e48fc83a 	sub	r7,fp,r18
 1428674:	1d49c83a 	sub	r4,r3,r21
 1428678:	e1f9803a 	cmpltu	fp,fp,r7
 142867c:	2739c83a 	sub	fp,r4,fp
 1428680:	8f09c83a 	sub	r4,r17,fp
 1428684:	003fc306 	br	1428594 <__alt_data_end+0xfffe8594>
 1428688:	01000604 	movi	r4,24
 142868c:	003ef906 	br	1428274 <__alt_data_end+0xfffe8274>
 1428690:	00800604 	movi	r2,24
 1428694:	003f1306 	br	14282e4 <__alt_data_end+0xfffe82e4>
 1428698:	01000604 	movi	r4,24
 142869c:	003eb606 	br	1428178 <__alt_data_end+0xfffe8178>
 14286a0:	40bf902e 	bgeu	r8,r2,14284e4 <__alt_data_end+0xfffe84e4>
 14286a4:	b5bfff84 	addi	r22,r22,-2
 14286a8:	4551883a 	add	r8,r8,r21
 14286ac:	003f8e06 	br	14284e8 <__alt_data_end+0xfffe84e8>
 14286b0:	18bf762e 	bgeu	r3,r2,142848c <__alt_data_end+0xfffe848c>
 14286b4:	8c7fff84 	addi	r17,r17,-2
 14286b8:	1d47883a 	add	r3,r3,r21
 14286bc:	003f7406 	br	1428490 <__alt_data_end+0xfffe8490>
 14286c0:	1cc7883a 	add	r3,r3,r19
 14286c4:	003ecd06 	br	14281fc <__alt_data_end+0xfffe81fc>
 14286c8:	8005883a 	mov	r2,r16
 14286cc:	003ef806 	br	14282b0 <__alt_data_end+0xfffe82b0>
 14286d0:	873fe736 	bltu	r16,fp,1428670 <__alt_data_end+0xfffe8670>
 14286d4:	e00f883a 	mov	r7,fp
 14286d8:	0009883a 	mov	r4,zero
 14286dc:	003fad06 	br	1428594 <__alt_data_end+0xfffe8594>

014286e0 <__divsi3>:
 14286e0:	20001b16 	blt	r4,zero,1428750 <__divsi3+0x70>
 14286e4:	000f883a 	mov	r7,zero
 14286e8:	28001616 	blt	r5,zero,1428744 <__divsi3+0x64>
 14286ec:	200d883a 	mov	r6,r4
 14286f0:	29001a2e 	bgeu	r5,r4,142875c <__divsi3+0x7c>
 14286f4:	00800804 	movi	r2,32
 14286f8:	00c00044 	movi	r3,1
 14286fc:	00000106 	br	1428704 <__divsi3+0x24>
 1428700:	10000d26 	beq	r2,zero,1428738 <__divsi3+0x58>
 1428704:	294b883a 	add	r5,r5,r5
 1428708:	10bfffc4 	addi	r2,r2,-1
 142870c:	18c7883a 	add	r3,r3,r3
 1428710:	293ffb36 	bltu	r5,r4,1428700 <__alt_data_end+0xfffe8700>
 1428714:	0005883a 	mov	r2,zero
 1428718:	18000726 	beq	r3,zero,1428738 <__divsi3+0x58>
 142871c:	0005883a 	mov	r2,zero
 1428720:	31400236 	bltu	r6,r5,142872c <__divsi3+0x4c>
 1428724:	314dc83a 	sub	r6,r6,r5
 1428728:	10c4b03a 	or	r2,r2,r3
 142872c:	1806d07a 	srli	r3,r3,1
 1428730:	280ad07a 	srli	r5,r5,1
 1428734:	183ffa1e 	bne	r3,zero,1428720 <__alt_data_end+0xfffe8720>
 1428738:	38000126 	beq	r7,zero,1428740 <__divsi3+0x60>
 142873c:	0085c83a 	sub	r2,zero,r2
 1428740:	f800283a 	ret
 1428744:	014bc83a 	sub	r5,zero,r5
 1428748:	39c0005c 	xori	r7,r7,1
 142874c:	003fe706 	br	14286ec <__alt_data_end+0xfffe86ec>
 1428750:	0109c83a 	sub	r4,zero,r4
 1428754:	01c00044 	movi	r7,1
 1428758:	003fe306 	br	14286e8 <__alt_data_end+0xfffe86e8>
 142875c:	00c00044 	movi	r3,1
 1428760:	003fee06 	br	142871c <__alt_data_end+0xfffe871c>

01428764 <__modsi3>:
 1428764:	20001716 	blt	r4,zero,14287c4 <__modsi3+0x60>
 1428768:	000f883a 	mov	r7,zero
 142876c:	2005883a 	mov	r2,r4
 1428770:	28001216 	blt	r5,zero,14287bc <__modsi3+0x58>
 1428774:	2900162e 	bgeu	r5,r4,14287d0 <__modsi3+0x6c>
 1428778:	01800804 	movi	r6,32
 142877c:	00c00044 	movi	r3,1
 1428780:	00000106 	br	1428788 <__modsi3+0x24>
 1428784:	30000a26 	beq	r6,zero,14287b0 <__modsi3+0x4c>
 1428788:	294b883a 	add	r5,r5,r5
 142878c:	31bfffc4 	addi	r6,r6,-1
 1428790:	18c7883a 	add	r3,r3,r3
 1428794:	293ffb36 	bltu	r5,r4,1428784 <__alt_data_end+0xfffe8784>
 1428798:	18000526 	beq	r3,zero,14287b0 <__modsi3+0x4c>
 142879c:	1806d07a 	srli	r3,r3,1
 14287a0:	11400136 	bltu	r2,r5,14287a8 <__modsi3+0x44>
 14287a4:	1145c83a 	sub	r2,r2,r5
 14287a8:	280ad07a 	srli	r5,r5,1
 14287ac:	183ffb1e 	bne	r3,zero,142879c <__alt_data_end+0xfffe879c>
 14287b0:	38000126 	beq	r7,zero,14287b8 <__modsi3+0x54>
 14287b4:	0085c83a 	sub	r2,zero,r2
 14287b8:	f800283a 	ret
 14287bc:	014bc83a 	sub	r5,zero,r5
 14287c0:	003fec06 	br	1428774 <__alt_data_end+0xfffe8774>
 14287c4:	0109c83a 	sub	r4,zero,r4
 14287c8:	01c00044 	movi	r7,1
 14287cc:	003fe706 	br	142876c <__alt_data_end+0xfffe876c>
 14287d0:	00c00044 	movi	r3,1
 14287d4:	003ff106 	br	142879c <__alt_data_end+0xfffe879c>

014287d8 <__udivsi3>:
 14287d8:	200d883a 	mov	r6,r4
 14287dc:	2900152e 	bgeu	r5,r4,1428834 <__udivsi3+0x5c>
 14287e0:	28001416 	blt	r5,zero,1428834 <__udivsi3+0x5c>
 14287e4:	00800804 	movi	r2,32
 14287e8:	00c00044 	movi	r3,1
 14287ec:	00000206 	br	14287f8 <__udivsi3+0x20>
 14287f0:	10000e26 	beq	r2,zero,142882c <__udivsi3+0x54>
 14287f4:	28000516 	blt	r5,zero,142880c <__udivsi3+0x34>
 14287f8:	294b883a 	add	r5,r5,r5
 14287fc:	10bfffc4 	addi	r2,r2,-1
 1428800:	18c7883a 	add	r3,r3,r3
 1428804:	293ffa36 	bltu	r5,r4,14287f0 <__alt_data_end+0xfffe87f0>
 1428808:	18000826 	beq	r3,zero,142882c <__udivsi3+0x54>
 142880c:	0005883a 	mov	r2,zero
 1428810:	31400236 	bltu	r6,r5,142881c <__udivsi3+0x44>
 1428814:	314dc83a 	sub	r6,r6,r5
 1428818:	10c4b03a 	or	r2,r2,r3
 142881c:	1806d07a 	srli	r3,r3,1
 1428820:	280ad07a 	srli	r5,r5,1
 1428824:	183ffa1e 	bne	r3,zero,1428810 <__alt_data_end+0xfffe8810>
 1428828:	f800283a 	ret
 142882c:	0005883a 	mov	r2,zero
 1428830:	f800283a 	ret
 1428834:	00c00044 	movi	r3,1
 1428838:	003ff406 	br	142880c <__alt_data_end+0xfffe880c>

0142883c <__umodsi3>:
 142883c:	2005883a 	mov	r2,r4
 1428840:	2900122e 	bgeu	r5,r4,142888c <__umodsi3+0x50>
 1428844:	28001116 	blt	r5,zero,142888c <__umodsi3+0x50>
 1428848:	01800804 	movi	r6,32
 142884c:	00c00044 	movi	r3,1
 1428850:	00000206 	br	142885c <__umodsi3+0x20>
 1428854:	30000c26 	beq	r6,zero,1428888 <__umodsi3+0x4c>
 1428858:	28000516 	blt	r5,zero,1428870 <__umodsi3+0x34>
 142885c:	294b883a 	add	r5,r5,r5
 1428860:	31bfffc4 	addi	r6,r6,-1
 1428864:	18c7883a 	add	r3,r3,r3
 1428868:	293ffa36 	bltu	r5,r4,1428854 <__alt_data_end+0xfffe8854>
 142886c:	18000626 	beq	r3,zero,1428888 <__umodsi3+0x4c>
 1428870:	1806d07a 	srli	r3,r3,1
 1428874:	11400136 	bltu	r2,r5,142887c <__umodsi3+0x40>
 1428878:	1145c83a 	sub	r2,r2,r5
 142887c:	280ad07a 	srli	r5,r5,1
 1428880:	183ffb1e 	bne	r3,zero,1428870 <__alt_data_end+0xfffe8870>
 1428884:	f800283a 	ret
 1428888:	f800283a 	ret
 142888c:	00c00044 	movi	r3,1
 1428890:	003ff706 	br	1428870 <__alt_data_end+0xfffe8870>

01428894 <__mulsi3>:
 1428894:	0005883a 	mov	r2,zero
 1428898:	20000726 	beq	r4,zero,14288b8 <__mulsi3+0x24>
 142889c:	20c0004c 	andi	r3,r4,1
 14288a0:	2008d07a 	srli	r4,r4,1
 14288a4:	18000126 	beq	r3,zero,14288ac <__mulsi3+0x18>
 14288a8:	1145883a 	add	r2,r2,r5
 14288ac:	294b883a 	add	r5,r5,r5
 14288b0:	203ffa1e 	bne	r4,zero,142889c <__alt_data_end+0xfffe889c>
 14288b4:	f800283a 	ret
 14288b8:	f800283a 	ret

014288bc <__divsf3>:
 14288bc:	defff504 	addi	sp,sp,-44
 14288c0:	200cd5fa 	srli	r6,r4,23
 14288c4:	dcc00415 	stw	r19,16(sp)
 14288c8:	2026d7fa 	srli	r19,r4,31
 14288cc:	00c02034 	movhi	r3,128
 14288d0:	dd800715 	stw	r22,28(sp)
 14288d4:	dd000515 	stw	r20,20(sp)
 14288d8:	dc800315 	stw	r18,12(sp)
 14288dc:	18ffffc4 	addi	r3,r3,-1
 14288e0:	dfc00a15 	stw	ra,40(sp)
 14288e4:	df000915 	stw	fp,36(sp)
 14288e8:	ddc00815 	stw	r23,32(sp)
 14288ec:	dd400615 	stw	r21,24(sp)
 14288f0:	dc400215 	stw	r17,8(sp)
 14288f4:	dc000115 	stw	r16,4(sp)
 14288f8:	35003fcc 	andi	r20,r6,255
 14288fc:	1924703a 	and	r18,r3,r4
 1428900:	9d803fcc 	andi	r22,r19,255
 1428904:	a0005226 	beq	r20,zero,1428a50 <__divsf3+0x194>
 1428908:	00803fc4 	movi	r2,255
 142890c:	a0802e26 	beq	r20,r2,14289c8 <__divsf3+0x10c>
 1428910:	91002034 	orhi	r4,r18,128
 1428914:	202490fa 	slli	r18,r4,3
 1428918:	a53fe044 	addi	r20,r20,-127
 142891c:	0021883a 	mov	r16,zero
 1428920:	002f883a 	mov	r23,zero
 1428924:	280cd5fa 	srli	r6,r5,23
 1428928:	282ad7fa 	srli	r21,r5,31
 142892c:	00c02034 	movhi	r3,128
 1428930:	18ffffc4 	addi	r3,r3,-1
 1428934:	31803fcc 	andi	r6,r6,255
 1428938:	1962703a 	and	r17,r3,r5
 142893c:	af003fcc 	andi	fp,r21,255
 1428940:	30004a26 	beq	r6,zero,1428a6c <__divsf3+0x1b0>
 1428944:	00803fc4 	movi	r2,255
 1428948:	30804526 	beq	r6,r2,1428a60 <__divsf3+0x1a4>
 142894c:	89402034 	orhi	r5,r17,128
 1428950:	282290fa 	slli	r17,r5,3
 1428954:	31bfe044 	addi	r6,r6,-127
 1428958:	000b883a 	mov	r5,zero
 142895c:	2c20b03a 	or	r16,r5,r16
 1428960:	802090ba 	slli	r16,r16,2
 1428964:	008050f4 	movhi	r2,323
 1428968:	10a26204 	addi	r2,r2,-30328
 142896c:	80a1883a 	add	r16,r16,r2
 1428970:	81000017 	ldw	r4,0(r16)
 1428974:	9d46f03a 	xor	r3,r19,r21
 1428978:	180f883a 	mov	r7,r3
 142897c:	18803fcc 	andi	r2,r3,255
 1428980:	a18dc83a 	sub	r6,r20,r6
 1428984:	2000683a 	jmp	r4
 1428988:	01428b6c 	andhi	r5,zero,2605
 142898c:	014289f0 	cmpltui	r5,zero,2599
 1428990:	01428b60 	cmpeqi	r5,zero,2605
 1428994:	014289dc 	xori	r5,zero,2599
 1428998:	01428b60 	cmpeqi	r5,zero,2605
 142899c:	01428b38 	rdprs	r5,zero,2604
 14289a0:	01428b60 	cmpeqi	r5,zero,2605
 14289a4:	014289dc 	xori	r5,zero,2599
 14289a8:	014289f0 	cmpltui	r5,zero,2599
 14289ac:	014289f0 	cmpltui	r5,zero,2599
 14289b0:	01428b38 	rdprs	r5,zero,2604
 14289b4:	014289dc 	xori	r5,zero,2599
 14289b8:	01428c4c 	andi	r5,zero,2609
 14289bc:	01428c4c 	andi	r5,zero,2609
 14289c0:	01428c4c 	andi	r5,zero,2609
 14289c4:	01428c00 	call	1428c0 <__alt_mem_onchip_flash_0_data-0x10bd740>
 14289c8:	9000581e 	bne	r18,zero,1428b2c <__divsf3+0x270>
 14289cc:	04000204 	movi	r16,8
 14289d0:	05c00084 	movi	r23,2
 14289d4:	003fd306 	br	1428924 <__alt_data_end+0xfffe8924>
 14289d8:	0023883a 	mov	r17,zero
 14289dc:	e02d883a 	mov	r22,fp
 14289e0:	282f883a 	mov	r23,r5
 14289e4:	00800084 	movi	r2,2
 14289e8:	b8808f1e 	bne	r23,r2,1428c28 <__divsf3+0x36c>
 14289ec:	b005883a 	mov	r2,r22
 14289f0:	11c0004c 	andi	r7,r2,1
 14289f4:	013fffc4 	movi	r4,-1
 14289f8:	000d883a 	mov	r6,zero
 14289fc:	21003fcc 	andi	r4,r4,255
 1428a00:	200895fa 	slli	r4,r4,23
 1428a04:	38803fcc 	andi	r2,r7,255
 1428a08:	00c02034 	movhi	r3,128
 1428a0c:	100497fa 	slli	r2,r2,31
 1428a10:	18ffffc4 	addi	r3,r3,-1
 1428a14:	30c6703a 	and	r3,r6,r3
 1428a18:	1906b03a 	or	r3,r3,r4
 1428a1c:	1884b03a 	or	r2,r3,r2
 1428a20:	dfc00a17 	ldw	ra,40(sp)
 1428a24:	df000917 	ldw	fp,36(sp)
 1428a28:	ddc00817 	ldw	r23,32(sp)
 1428a2c:	dd800717 	ldw	r22,28(sp)
 1428a30:	dd400617 	ldw	r21,24(sp)
 1428a34:	dd000517 	ldw	r20,20(sp)
 1428a38:	dcc00417 	ldw	r19,16(sp)
 1428a3c:	dc800317 	ldw	r18,12(sp)
 1428a40:	dc400217 	ldw	r17,8(sp)
 1428a44:	dc000117 	ldw	r16,4(sp)
 1428a48:	dec00b04 	addi	sp,sp,44
 1428a4c:	f800283a 	ret
 1428a50:	90002b1e 	bne	r18,zero,1428b00 <__divsf3+0x244>
 1428a54:	04000104 	movi	r16,4
 1428a58:	05c00044 	movi	r23,1
 1428a5c:	003fb106 	br	1428924 <__alt_data_end+0xfffe8924>
 1428a60:	8800251e 	bne	r17,zero,1428af8 <__divsf3+0x23c>
 1428a64:	01400084 	movi	r5,2
 1428a68:	00000206 	br	1428a74 <__divsf3+0x1b8>
 1428a6c:	88001a1e 	bne	r17,zero,1428ad8 <__divsf3+0x21c>
 1428a70:	01400044 	movi	r5,1
 1428a74:	8160b03a 	or	r16,r16,r5
 1428a78:	802090ba 	slli	r16,r16,2
 1428a7c:	00c050f4 	movhi	r3,323
 1428a80:	18e2a604 	addi	r3,r3,-30056
 1428a84:	80e1883a 	add	r16,r16,r3
 1428a88:	80c00017 	ldw	r3,0(r16)
 1428a8c:	9d44f03a 	xor	r2,r19,r21
 1428a90:	a18dc83a 	sub	r6,r20,r6
 1428a94:	1800683a 	jmp	r3
 1428a98:	014289f0 	cmpltui	r5,zero,2599
 1428a9c:	014289f0 	cmpltui	r5,zero,2599
 1428aa0:	01428c3c 	xorhi	r5,zero,2608
 1428aa4:	014289d8 	cmpnei	r5,zero,2599
 1428aa8:	01428c3c 	xorhi	r5,zero,2608
 1428aac:	01428b38 	rdprs	r5,zero,2604
 1428ab0:	01428c3c 	xorhi	r5,zero,2608
 1428ab4:	014289d8 	cmpnei	r5,zero,2599
 1428ab8:	014289f0 	cmpltui	r5,zero,2599
 1428abc:	014289f0 	cmpltui	r5,zero,2599
 1428ac0:	01428b38 	rdprs	r5,zero,2604
 1428ac4:	014289d8 	cmpnei	r5,zero,2599
 1428ac8:	01428c4c 	andi	r5,zero,2609
 1428acc:	01428c4c 	andi	r5,zero,2609
 1428ad0:	01428c4c 	andi	r5,zero,2609
 1428ad4:	01428c64 	muli	r5,zero,2609
 1428ad8:	8809883a 	mov	r4,r17
 1428adc:	142be040 	call	142be04 <__clzsi2>
 1428ae0:	10fffec4 	addi	r3,r2,-5
 1428ae4:	10801d84 	addi	r2,r2,118
 1428ae8:	88e2983a 	sll	r17,r17,r3
 1428aec:	008dc83a 	sub	r6,zero,r2
 1428af0:	000b883a 	mov	r5,zero
 1428af4:	003f9906 	br	142895c <__alt_data_end+0xfffe895c>
 1428af8:	014000c4 	movi	r5,3
 1428afc:	003f9706 	br	142895c <__alt_data_end+0xfffe895c>
 1428b00:	9009883a 	mov	r4,r18
 1428b04:	d9400015 	stw	r5,0(sp)
 1428b08:	142be040 	call	142be04 <__clzsi2>
 1428b0c:	10fffec4 	addi	r3,r2,-5
 1428b10:	11801d84 	addi	r6,r2,118
 1428b14:	90e4983a 	sll	r18,r18,r3
 1428b18:	01a9c83a 	sub	r20,zero,r6
 1428b1c:	0021883a 	mov	r16,zero
 1428b20:	002f883a 	mov	r23,zero
 1428b24:	d9400017 	ldw	r5,0(sp)
 1428b28:	003f7e06 	br	1428924 <__alt_data_end+0xfffe8924>
 1428b2c:	04000304 	movi	r16,12
 1428b30:	05c000c4 	movi	r23,3
 1428b34:	003f7b06 	br	1428924 <__alt_data_end+0xfffe8924>
 1428b38:	01802034 	movhi	r6,128
 1428b3c:	000f883a 	mov	r7,zero
 1428b40:	31bfffc4 	addi	r6,r6,-1
 1428b44:	013fffc4 	movi	r4,-1
 1428b48:	003fac06 	br	14289fc <__alt_data_end+0xfffe89fc>
 1428b4c:	01400044 	movi	r5,1
 1428b50:	2909c83a 	sub	r4,r5,r4
 1428b54:	00c006c4 	movi	r3,27
 1428b58:	19004b0e 	bge	r3,r4,1428c88 <__divsf3+0x3cc>
 1428b5c:	114e703a 	and	r7,r2,r5
 1428b60:	0009883a 	mov	r4,zero
 1428b64:	000d883a 	mov	r6,zero
 1428b68:	003fa406 	br	14289fc <__alt_data_end+0xfffe89fc>
 1428b6c:	9006917a 	slli	r3,r18,5
 1428b70:	8822917a 	slli	r17,r17,5
 1428b74:	1c40372e 	bgeu	r3,r17,1428c54 <__divsf3+0x398>
 1428b78:	31bfffc4 	addi	r6,r6,-1
 1428b7c:	010006c4 	movi	r4,27
 1428b80:	000b883a 	mov	r5,zero
 1428b84:	180f883a 	mov	r7,r3
 1428b88:	294b883a 	add	r5,r5,r5
 1428b8c:	18c7883a 	add	r3,r3,r3
 1428b90:	38000116 	blt	r7,zero,1428b98 <__divsf3+0x2dc>
 1428b94:	1c400236 	bltu	r3,r17,1428ba0 <__divsf3+0x2e4>
 1428b98:	1c47c83a 	sub	r3,r3,r17
 1428b9c:	29400054 	ori	r5,r5,1
 1428ba0:	213fffc4 	addi	r4,r4,-1
 1428ba4:	203ff71e 	bne	r4,zero,1428b84 <__alt_data_end+0xfffe8b84>
 1428ba8:	1806c03a 	cmpne	r3,r3,zero
 1428bac:	1962b03a 	or	r17,r3,r5
 1428bb0:	31001fc4 	addi	r4,r6,127
 1428bb4:	013fe50e 	bge	zero,r4,1428b4c <__alt_data_end+0xfffe8b4c>
 1428bb8:	88c001cc 	andi	r3,r17,7
 1428bbc:	18000426 	beq	r3,zero,1428bd0 <__divsf3+0x314>
 1428bc0:	88c003cc 	andi	r3,r17,15
 1428bc4:	01400104 	movi	r5,4
 1428bc8:	19400126 	beq	r3,r5,1428bd0 <__divsf3+0x314>
 1428bcc:	8963883a 	add	r17,r17,r5
 1428bd0:	88c2002c 	andhi	r3,r17,2048
 1428bd4:	18000426 	beq	r3,zero,1428be8 <__divsf3+0x32c>
 1428bd8:	00fe0034 	movhi	r3,63488
 1428bdc:	18ffffc4 	addi	r3,r3,-1
 1428be0:	31002004 	addi	r4,r6,128
 1428be4:	88e2703a 	and	r17,r17,r3
 1428be8:	00c03f84 	movi	r3,254
 1428bec:	193f8016 	blt	r3,r4,14289f0 <__alt_data_end+0xfffe89f0>
 1428bf0:	880c91ba 	slli	r6,r17,6
 1428bf4:	11c0004c 	andi	r7,r2,1
 1428bf8:	300cd27a 	srli	r6,r6,9
 1428bfc:	003f7f06 	br	14289fc <__alt_data_end+0xfffe89fc>
 1428c00:	9080102c 	andhi	r2,r18,64
 1428c04:	10000226 	beq	r2,zero,1428c10 <__divsf3+0x354>
 1428c08:	8880102c 	andhi	r2,r17,64
 1428c0c:	10001826 	beq	r2,zero,1428c70 <__divsf3+0x3b4>
 1428c10:	00802034 	movhi	r2,128
 1428c14:	91801034 	orhi	r6,r18,64
 1428c18:	10bfffc4 	addi	r2,r2,-1
 1428c1c:	980f883a 	mov	r7,r19
 1428c20:	308c703a 	and	r6,r6,r2
 1428c24:	003fc706 	br	1428b44 <__alt_data_end+0xfffe8b44>
 1428c28:	008000c4 	movi	r2,3
 1428c2c:	b8802d26 	beq	r23,r2,1428ce4 <__divsf3+0x428>
 1428c30:	00c00044 	movi	r3,1
 1428c34:	b005883a 	mov	r2,r22
 1428c38:	b8ffdd1e 	bne	r23,r3,1428bb0 <__alt_data_end+0xfffe8bb0>
 1428c3c:	11c0004c 	andi	r7,r2,1
 1428c40:	0009883a 	mov	r4,zero
 1428c44:	000d883a 	mov	r6,zero
 1428c48:	003f6c06 	br	14289fc <__alt_data_end+0xfffe89fc>
 1428c4c:	9023883a 	mov	r17,r18
 1428c50:	003f6406 	br	14289e4 <__alt_data_end+0xfffe89e4>
 1428c54:	1c47c83a 	sub	r3,r3,r17
 1428c58:	01000684 	movi	r4,26
 1428c5c:	01400044 	movi	r5,1
 1428c60:	003fc806 	br	1428b84 <__alt_data_end+0xfffe8b84>
 1428c64:	9080102c 	andhi	r2,r18,64
 1428c68:	103fe926 	beq	r2,zero,1428c10 <__alt_data_end+0xfffe8c10>
 1428c6c:	0023883a 	mov	r17,zero
 1428c70:	00802034 	movhi	r2,128
 1428c74:	89801034 	orhi	r6,r17,64
 1428c78:	10bfffc4 	addi	r2,r2,-1
 1428c7c:	a80f883a 	mov	r7,r21
 1428c80:	308c703a 	and	r6,r6,r2
 1428c84:	003faf06 	br	1428b44 <__alt_data_end+0xfffe8b44>
 1428c88:	01c00804 	movi	r7,32
 1428c8c:	390fc83a 	sub	r7,r7,r4
 1428c90:	89ce983a 	sll	r7,r17,r7
 1428c94:	890ad83a 	srl	r5,r17,r4
 1428c98:	380ec03a 	cmpne	r7,r7,zero
 1428c9c:	29cab03a 	or	r5,r5,r7
 1428ca0:	28c001cc 	andi	r3,r5,7
 1428ca4:	18000426 	beq	r3,zero,1428cb8 <__divsf3+0x3fc>
 1428ca8:	28c003cc 	andi	r3,r5,15
 1428cac:	01000104 	movi	r4,4
 1428cb0:	19000126 	beq	r3,r4,1428cb8 <__divsf3+0x3fc>
 1428cb4:	290b883a 	add	r5,r5,r4
 1428cb8:	28c1002c 	andhi	r3,r5,1024
 1428cbc:	18000426 	beq	r3,zero,1428cd0 <__divsf3+0x414>
 1428cc0:	11c0004c 	andi	r7,r2,1
 1428cc4:	01000044 	movi	r4,1
 1428cc8:	000d883a 	mov	r6,zero
 1428ccc:	003f4b06 	br	14289fc <__alt_data_end+0xfffe89fc>
 1428cd0:	280a91ba 	slli	r5,r5,6
 1428cd4:	11c0004c 	andi	r7,r2,1
 1428cd8:	0009883a 	mov	r4,zero
 1428cdc:	280cd27a 	srli	r6,r5,9
 1428ce0:	003f4606 	br	14289fc <__alt_data_end+0xfffe89fc>
 1428ce4:	00802034 	movhi	r2,128
 1428ce8:	89801034 	orhi	r6,r17,64
 1428cec:	10bfffc4 	addi	r2,r2,-1
 1428cf0:	b00f883a 	mov	r7,r22
 1428cf4:	308c703a 	and	r6,r6,r2
 1428cf8:	003f9206 	br	1428b44 <__alt_data_end+0xfffe8b44>

01428cfc <__gesf2>:
 1428cfc:	2004d5fa 	srli	r2,r4,23
 1428d00:	2806d5fa 	srli	r3,r5,23
 1428d04:	01802034 	movhi	r6,128
 1428d08:	31bfffc4 	addi	r6,r6,-1
 1428d0c:	10803fcc 	andi	r2,r2,255
 1428d10:	01c03fc4 	movi	r7,255
 1428d14:	3110703a 	and	r8,r6,r4
 1428d18:	18c03fcc 	andi	r3,r3,255
 1428d1c:	314c703a 	and	r6,r6,r5
 1428d20:	2008d7fa 	srli	r4,r4,31
 1428d24:	280ad7fa 	srli	r5,r5,31
 1428d28:	11c01926 	beq	r2,r7,1428d90 <__gesf2+0x94>
 1428d2c:	01c03fc4 	movi	r7,255
 1428d30:	19c00f26 	beq	r3,r7,1428d70 <__gesf2+0x74>
 1428d34:	1000061e 	bne	r2,zero,1428d50 <__gesf2+0x54>
 1428d38:	400f003a 	cmpeq	r7,r8,zero
 1428d3c:	1800071e 	bne	r3,zero,1428d5c <__gesf2+0x60>
 1428d40:	3000061e 	bne	r6,zero,1428d5c <__gesf2+0x60>
 1428d44:	0005883a 	mov	r2,zero
 1428d48:	40000e1e 	bne	r8,zero,1428d84 <__gesf2+0x88>
 1428d4c:	f800283a 	ret
 1428d50:	18000a1e 	bne	r3,zero,1428d7c <__gesf2+0x80>
 1428d54:	30000b26 	beq	r6,zero,1428d84 <__gesf2+0x88>
 1428d58:	000f883a 	mov	r7,zero
 1428d5c:	29403fcc 	andi	r5,r5,255
 1428d60:	38000726 	beq	r7,zero,1428d80 <__gesf2+0x84>
 1428d64:	28000826 	beq	r5,zero,1428d88 <__gesf2+0x8c>
 1428d68:	00800044 	movi	r2,1
 1428d6c:	f800283a 	ret
 1428d70:	303ff026 	beq	r6,zero,1428d34 <__alt_data_end+0xfffe8d34>
 1428d74:	00bfff84 	movi	r2,-2
 1428d78:	f800283a 	ret
 1428d7c:	29403fcc 	andi	r5,r5,255
 1428d80:	21400526 	beq	r4,r5,1428d98 <__gesf2+0x9c>
 1428d84:	203ff826 	beq	r4,zero,1428d68 <__alt_data_end+0xfffe8d68>
 1428d88:	00bfffc4 	movi	r2,-1
 1428d8c:	f800283a 	ret
 1428d90:	403fe626 	beq	r8,zero,1428d2c <__alt_data_end+0xfffe8d2c>
 1428d94:	003ff706 	br	1428d74 <__alt_data_end+0xfffe8d74>
 1428d98:	18bffa16 	blt	r3,r2,1428d84 <__alt_data_end+0xfffe8d84>
 1428d9c:	10c00216 	blt	r2,r3,1428da8 <__gesf2+0xac>
 1428da0:	323ff836 	bltu	r6,r8,1428d84 <__alt_data_end+0xfffe8d84>
 1428da4:	4180022e 	bgeu	r8,r6,1428db0 <__gesf2+0xb4>
 1428da8:	203fef1e 	bne	r4,zero,1428d68 <__alt_data_end+0xfffe8d68>
 1428dac:	003ff606 	br	1428d88 <__alt_data_end+0xfffe8d88>
 1428db0:	0005883a 	mov	r2,zero
 1428db4:	f800283a 	ret

01428db8 <__mulsf3>:
 1428db8:	defff504 	addi	sp,sp,-44
 1428dbc:	dc000115 	stw	r16,4(sp)
 1428dc0:	2020d5fa 	srli	r16,r4,23
 1428dc4:	dd400615 	stw	r21,24(sp)
 1428dc8:	202ad7fa 	srli	r21,r4,31
 1428dcc:	dc800315 	stw	r18,12(sp)
 1428dd0:	04802034 	movhi	r18,128
 1428dd4:	df000915 	stw	fp,36(sp)
 1428dd8:	dd000515 	stw	r20,20(sp)
 1428ddc:	94bfffc4 	addi	r18,r18,-1
 1428de0:	dfc00a15 	stw	ra,40(sp)
 1428de4:	ddc00815 	stw	r23,32(sp)
 1428de8:	dd800715 	stw	r22,28(sp)
 1428dec:	dcc00415 	stw	r19,16(sp)
 1428df0:	dc400215 	stw	r17,8(sp)
 1428df4:	84003fcc 	andi	r16,r16,255
 1428df8:	9124703a 	and	r18,r18,r4
 1428dfc:	a829883a 	mov	r20,r21
 1428e00:	af003fcc 	andi	fp,r21,255
 1428e04:	80005426 	beq	r16,zero,1428f58 <__mulsf3+0x1a0>
 1428e08:	00803fc4 	movi	r2,255
 1428e0c:	80802f26 	beq	r16,r2,1428ecc <__mulsf3+0x114>
 1428e10:	91002034 	orhi	r4,r18,128
 1428e14:	202490fa 	slli	r18,r4,3
 1428e18:	843fe044 	addi	r16,r16,-127
 1428e1c:	0023883a 	mov	r17,zero
 1428e20:	002f883a 	mov	r23,zero
 1428e24:	2804d5fa 	srli	r2,r5,23
 1428e28:	282cd7fa 	srli	r22,r5,31
 1428e2c:	01002034 	movhi	r4,128
 1428e30:	213fffc4 	addi	r4,r4,-1
 1428e34:	10803fcc 	andi	r2,r2,255
 1428e38:	2166703a 	and	r19,r4,r5
 1428e3c:	b1803fcc 	andi	r6,r22,255
 1428e40:	10004c26 	beq	r2,zero,1428f74 <__mulsf3+0x1bc>
 1428e44:	00c03fc4 	movi	r3,255
 1428e48:	10c04726 	beq	r2,r3,1428f68 <__mulsf3+0x1b0>
 1428e4c:	99002034 	orhi	r4,r19,128
 1428e50:	202690fa 	slli	r19,r4,3
 1428e54:	10bfe044 	addi	r2,r2,-127
 1428e58:	0007883a 	mov	r3,zero
 1428e5c:	80a1883a 	add	r16,r16,r2
 1428e60:	010003c4 	movi	r4,15
 1428e64:	1c44b03a 	or	r2,r3,r17
 1428e68:	b56af03a 	xor	r21,r22,r21
 1428e6c:	81c00044 	addi	r7,r16,1
 1428e70:	20806b36 	bltu	r4,r2,1429020 <__mulsf3+0x268>
 1428e74:	100490ba 	slli	r2,r2,2
 1428e78:	010050f4 	movhi	r4,323
 1428e7c:	2123a304 	addi	r4,r4,-29044
 1428e80:	1105883a 	add	r2,r2,r4
 1428e84:	10800017 	ldw	r2,0(r2)
 1428e88:	1000683a 	jmp	r2
 1428e8c:	01429020 	cmpeqi	r5,zero,2624
 1428e90:	01428ee0 	cmpeqi	r5,zero,2619
 1428e94:	01428ee0 	cmpeqi	r5,zero,2619
 1428e98:	01428edc 	xori	r5,zero,2619
 1428e9c:	01429004 	movi	r5,2624
 1428ea0:	01429004 	movi	r5,2624
 1428ea4:	01428ff0 	cmpltui	r5,zero,2623
 1428ea8:	01428edc 	xori	r5,zero,2619
 1428eac:	01429004 	movi	r5,2624
 1428eb0:	01428ff0 	cmpltui	r5,zero,2623
 1428eb4:	01429004 	movi	r5,2624
 1428eb8:	01428edc 	xori	r5,zero,2619
 1428ebc:	01429010 	cmplti	r5,zero,2624
 1428ec0:	01429010 	cmplti	r5,zero,2624
 1428ec4:	01429010 	cmplti	r5,zero,2624
 1428ec8:	01429120 	cmpeqi	r5,zero,2628
 1428ecc:	90003b1e 	bne	r18,zero,1428fbc <__mulsf3+0x204>
 1428ed0:	04400204 	movi	r17,8
 1428ed4:	05c00084 	movi	r23,2
 1428ed8:	003fd206 	br	1428e24 <__alt_data_end+0xfffe8e24>
 1428edc:	302b883a 	mov	r21,r6
 1428ee0:	00800084 	movi	r2,2
 1428ee4:	18802626 	beq	r3,r2,1428f80 <__mulsf3+0x1c8>
 1428ee8:	008000c4 	movi	r2,3
 1428eec:	1880b826 	beq	r3,r2,14291d0 <__mulsf3+0x418>
 1428ef0:	00800044 	movi	r2,1
 1428ef4:	1880af1e 	bne	r3,r2,14291b4 <__mulsf3+0x3fc>
 1428ef8:	a829883a 	mov	r20,r21
 1428efc:	0007883a 	mov	r3,zero
 1428f00:	0009883a 	mov	r4,zero
 1428f04:	18803fcc 	andi	r2,r3,255
 1428f08:	100695fa 	slli	r3,r2,23
 1428f0c:	a0803fcc 	andi	r2,r20,255
 1428f10:	100a97fa 	slli	r5,r2,31
 1428f14:	00802034 	movhi	r2,128
 1428f18:	10bfffc4 	addi	r2,r2,-1
 1428f1c:	2084703a 	and	r2,r4,r2
 1428f20:	10c4b03a 	or	r2,r2,r3
 1428f24:	1144b03a 	or	r2,r2,r5
 1428f28:	dfc00a17 	ldw	ra,40(sp)
 1428f2c:	df000917 	ldw	fp,36(sp)
 1428f30:	ddc00817 	ldw	r23,32(sp)
 1428f34:	dd800717 	ldw	r22,28(sp)
 1428f38:	dd400617 	ldw	r21,24(sp)
 1428f3c:	dd000517 	ldw	r20,20(sp)
 1428f40:	dcc00417 	ldw	r19,16(sp)
 1428f44:	dc800317 	ldw	r18,12(sp)
 1428f48:	dc400217 	ldw	r17,8(sp)
 1428f4c:	dc000117 	ldw	r16,4(sp)
 1428f50:	dec00b04 	addi	sp,sp,44
 1428f54:	f800283a 	ret
 1428f58:	90000d1e 	bne	r18,zero,1428f90 <__mulsf3+0x1d8>
 1428f5c:	04400104 	movi	r17,4
 1428f60:	05c00044 	movi	r23,1
 1428f64:	003faf06 	br	1428e24 <__alt_data_end+0xfffe8e24>
 1428f68:	9806c03a 	cmpne	r3,r19,zero
 1428f6c:	18c00084 	addi	r3,r3,2
 1428f70:	003fba06 	br	1428e5c <__alt_data_end+0xfffe8e5c>
 1428f74:	9800141e 	bne	r19,zero,1428fc8 <__mulsf3+0x210>
 1428f78:	00c00044 	movi	r3,1
 1428f7c:	003fb706 	br	1428e5c <__alt_data_end+0xfffe8e5c>
 1428f80:	a829883a 	mov	r20,r21
 1428f84:	00ffffc4 	movi	r3,-1
 1428f88:	0009883a 	mov	r4,zero
 1428f8c:	003fdd06 	br	1428f04 <__alt_data_end+0xfffe8f04>
 1428f90:	9009883a 	mov	r4,r18
 1428f94:	d9400015 	stw	r5,0(sp)
 1428f98:	142be040 	call	142be04 <__clzsi2>
 1428f9c:	10fffec4 	addi	r3,r2,-5
 1428fa0:	10801d84 	addi	r2,r2,118
 1428fa4:	90e4983a 	sll	r18,r18,r3
 1428fa8:	00a1c83a 	sub	r16,zero,r2
 1428fac:	0023883a 	mov	r17,zero
 1428fb0:	002f883a 	mov	r23,zero
 1428fb4:	d9400017 	ldw	r5,0(sp)
 1428fb8:	003f9a06 	br	1428e24 <__alt_data_end+0xfffe8e24>
 1428fbc:	04400304 	movi	r17,12
 1428fc0:	05c000c4 	movi	r23,3
 1428fc4:	003f9706 	br	1428e24 <__alt_data_end+0xfffe8e24>
 1428fc8:	9809883a 	mov	r4,r19
 1428fcc:	d9800015 	stw	r6,0(sp)
 1428fd0:	142be040 	call	142be04 <__clzsi2>
 1428fd4:	10fffec4 	addi	r3,r2,-5
 1428fd8:	10801d84 	addi	r2,r2,118
 1428fdc:	98e6983a 	sll	r19,r19,r3
 1428fe0:	0085c83a 	sub	r2,zero,r2
 1428fe4:	0007883a 	mov	r3,zero
 1428fe8:	d9800017 	ldw	r6,0(sp)
 1428fec:	003f9b06 	br	1428e5c <__alt_data_end+0xfffe8e5c>
 1428ff0:	01002034 	movhi	r4,128
 1428ff4:	0029883a 	mov	r20,zero
 1428ff8:	213fffc4 	addi	r4,r4,-1
 1428ffc:	00ffffc4 	movi	r3,-1
 1429000:	003fc006 	br	1428f04 <__alt_data_end+0xfffe8f04>
 1429004:	9027883a 	mov	r19,r18
 1429008:	b807883a 	mov	r3,r23
 142900c:	003fb406 	br	1428ee0 <__alt_data_end+0xfffe8ee0>
 1429010:	9027883a 	mov	r19,r18
 1429014:	e02b883a 	mov	r21,fp
 1429018:	b807883a 	mov	r3,r23
 142901c:	003fb006 	br	1428ee0 <__alt_data_end+0xfffe8ee0>
 1429020:	9028d43a 	srli	r20,r18,16
 1429024:	982cd43a 	srli	r22,r19,16
 1429028:	94bfffcc 	andi	r18,r18,65535
 142902c:	9cffffcc 	andi	r19,r19,65535
 1429030:	980b883a 	mov	r5,r19
 1429034:	9009883a 	mov	r4,r18
 1429038:	d9c00015 	stw	r7,0(sp)
 142903c:	14288940 	call	1428894 <__mulsi3>
 1429040:	a00b883a 	mov	r5,r20
 1429044:	9809883a 	mov	r4,r19
 1429048:	1023883a 	mov	r17,r2
 142904c:	14288940 	call	1428894 <__mulsi3>
 1429050:	a009883a 	mov	r4,r20
 1429054:	b00b883a 	mov	r5,r22
 1429058:	1027883a 	mov	r19,r2
 142905c:	14288940 	call	1428894 <__mulsi3>
 1429060:	b00b883a 	mov	r5,r22
 1429064:	9009883a 	mov	r4,r18
 1429068:	1029883a 	mov	r20,r2
 142906c:	14288940 	call	1428894 <__mulsi3>
 1429070:	8806d43a 	srli	r3,r17,16
 1429074:	14c5883a 	add	r2,r2,r19
 1429078:	d9c00017 	ldw	r7,0(sp)
 142907c:	1885883a 	add	r2,r3,r2
 1429080:	14c0022e 	bgeu	r2,r19,142908c <__mulsf3+0x2d4>
 1429084:	00c00074 	movhi	r3,1
 1429088:	a0e9883a 	add	r20,r20,r3
 142908c:	1026943a 	slli	r19,r2,16
 1429090:	8c7fffcc 	andi	r17,r17,65535
 1429094:	1004d43a 	srli	r2,r2,16
 1429098:	9c63883a 	add	r17,r19,r17
 142909c:	882691ba 	slli	r19,r17,6
 14290a0:	1505883a 	add	r2,r2,r20
 14290a4:	8822d6ba 	srli	r17,r17,26
 14290a8:	100891ba 	slli	r4,r2,6
 14290ac:	9826c03a 	cmpne	r19,r19,zero
 14290b0:	9c62b03a 	or	r17,r19,r17
 14290b4:	8926b03a 	or	r19,r17,r4
 14290b8:	9882002c 	andhi	r2,r19,2048
 14290bc:	10000426 	beq	r2,zero,14290d0 <__mulsf3+0x318>
 14290c0:	9804d07a 	srli	r2,r19,1
 14290c4:	9900004c 	andi	r4,r19,1
 14290c8:	3821883a 	mov	r16,r7
 14290cc:	1126b03a 	or	r19,r2,r4
 14290d0:	80c01fc4 	addi	r3,r16,127
 14290d4:	00c0210e 	bge	zero,r3,142915c <__mulsf3+0x3a4>
 14290d8:	988001cc 	andi	r2,r19,7
 14290dc:	10000426 	beq	r2,zero,14290f0 <__mulsf3+0x338>
 14290e0:	988003cc 	andi	r2,r19,15
 14290e4:	01000104 	movi	r4,4
 14290e8:	11000126 	beq	r2,r4,14290f0 <__mulsf3+0x338>
 14290ec:	9927883a 	add	r19,r19,r4
 14290f0:	9882002c 	andhi	r2,r19,2048
 14290f4:	10000426 	beq	r2,zero,1429108 <__mulsf3+0x350>
 14290f8:	00be0034 	movhi	r2,63488
 14290fc:	10bfffc4 	addi	r2,r2,-1
 1429100:	80c02004 	addi	r3,r16,128
 1429104:	98a6703a 	and	r19,r19,r2
 1429108:	00803f84 	movi	r2,254
 142910c:	10ff9c16 	blt	r2,r3,1428f80 <__alt_data_end+0xfffe8f80>
 1429110:	980891ba 	slli	r4,r19,6
 1429114:	a829883a 	mov	r20,r21
 1429118:	2008d27a 	srli	r4,r4,9
 142911c:	003f7906 	br	1428f04 <__alt_data_end+0xfffe8f04>
 1429120:	9080102c 	andhi	r2,r18,64
 1429124:	10000826 	beq	r2,zero,1429148 <__mulsf3+0x390>
 1429128:	9880102c 	andhi	r2,r19,64
 142912c:	1000061e 	bne	r2,zero,1429148 <__mulsf3+0x390>
 1429130:	00802034 	movhi	r2,128
 1429134:	99001034 	orhi	r4,r19,64
 1429138:	10bfffc4 	addi	r2,r2,-1
 142913c:	b029883a 	mov	r20,r22
 1429140:	2088703a 	and	r4,r4,r2
 1429144:	003fad06 	br	1428ffc <__alt_data_end+0xfffe8ffc>
 1429148:	00802034 	movhi	r2,128
 142914c:	91001034 	orhi	r4,r18,64
 1429150:	10bfffc4 	addi	r2,r2,-1
 1429154:	2088703a 	and	r4,r4,r2
 1429158:	003fa806 	br	1428ffc <__alt_data_end+0xfffe8ffc>
 142915c:	00800044 	movi	r2,1
 1429160:	10c7c83a 	sub	r3,r2,r3
 1429164:	008006c4 	movi	r2,27
 1429168:	10ff6316 	blt	r2,r3,1428ef8 <__alt_data_end+0xfffe8ef8>
 142916c:	00800804 	movi	r2,32
 1429170:	10c5c83a 	sub	r2,r2,r3
 1429174:	9884983a 	sll	r2,r19,r2
 1429178:	98c6d83a 	srl	r3,r19,r3
 142917c:	1004c03a 	cmpne	r2,r2,zero
 1429180:	1884b03a 	or	r2,r3,r2
 1429184:	10c001cc 	andi	r3,r2,7
 1429188:	18000426 	beq	r3,zero,142919c <__mulsf3+0x3e4>
 142918c:	10c003cc 	andi	r3,r2,15
 1429190:	01000104 	movi	r4,4
 1429194:	19000126 	beq	r3,r4,142919c <__mulsf3+0x3e4>
 1429198:	1105883a 	add	r2,r2,r4
 142919c:	10c1002c 	andhi	r3,r2,1024
 14291a0:	18000626 	beq	r3,zero,14291bc <__mulsf3+0x404>
 14291a4:	a829883a 	mov	r20,r21
 14291a8:	00c00044 	movi	r3,1
 14291ac:	0009883a 	mov	r4,zero
 14291b0:	003f5406 	br	1428f04 <__alt_data_end+0xfffe8f04>
 14291b4:	3821883a 	mov	r16,r7
 14291b8:	003fc506 	br	14290d0 <__alt_data_end+0xfffe90d0>
 14291bc:	100491ba 	slli	r2,r2,6
 14291c0:	a829883a 	mov	r20,r21
 14291c4:	0007883a 	mov	r3,zero
 14291c8:	1008d27a 	srli	r4,r2,9
 14291cc:	003f4d06 	br	1428f04 <__alt_data_end+0xfffe8f04>
 14291d0:	00802034 	movhi	r2,128
 14291d4:	99001034 	orhi	r4,r19,64
 14291d8:	10bfffc4 	addi	r2,r2,-1
 14291dc:	a829883a 	mov	r20,r21
 14291e0:	2088703a 	and	r4,r4,r2
 14291e4:	003f8506 	br	1428ffc <__alt_data_end+0xfffe8ffc>

014291e8 <__subsf3>:
 14291e8:	defffc04 	addi	sp,sp,-16
 14291ec:	280cd5fa 	srli	r6,r5,23
 14291f0:	dc000015 	stw	r16,0(sp)
 14291f4:	01c02034 	movhi	r7,128
 14291f8:	2020d5fa 	srli	r16,r4,23
 14291fc:	39ffffc4 	addi	r7,r7,-1
 1429200:	3906703a 	and	r3,r7,r4
 1429204:	dc400115 	stw	r17,4(sp)
 1429208:	394e703a 	and	r7,r7,r5
 142920c:	2022d7fa 	srli	r17,r4,31
 1429210:	dfc00315 	stw	ra,12(sp)
 1429214:	dc800215 	stw	r18,8(sp)
 1429218:	31803fcc 	andi	r6,r6,255
 142921c:	01003fc4 	movi	r4,255
 1429220:	84003fcc 	andi	r16,r16,255
 1429224:	180690fa 	slli	r3,r3,3
 1429228:	2804d7fa 	srli	r2,r5,31
 142922c:	380e90fa 	slli	r7,r7,3
 1429230:	31006d26 	beq	r6,r4,14293e8 <__subsf3+0x200>
 1429234:	1080005c 	xori	r2,r2,1
 1429238:	8189c83a 	sub	r4,r16,r6
 142923c:	14404f26 	beq	r2,r17,142937c <__subsf3+0x194>
 1429240:	0100770e 	bge	zero,r4,1429420 <__subsf3+0x238>
 1429244:	30001e1e 	bne	r6,zero,14292c0 <__subsf3+0xd8>
 1429248:	38006a1e 	bne	r7,zero,14293f4 <__subsf3+0x20c>
 142924c:	188001cc 	andi	r2,r3,7
 1429250:	10000426 	beq	r2,zero,1429264 <__subsf3+0x7c>
 1429254:	188003cc 	andi	r2,r3,15
 1429258:	01000104 	movi	r4,4
 142925c:	11000126 	beq	r2,r4,1429264 <__subsf3+0x7c>
 1429260:	1907883a 	add	r3,r3,r4
 1429264:	1881002c 	andhi	r2,r3,1024
 1429268:	10003926 	beq	r2,zero,1429350 <__subsf3+0x168>
 142926c:	84000044 	addi	r16,r16,1
 1429270:	00803fc4 	movi	r2,255
 1429274:	80807526 	beq	r16,r2,142944c <__subsf3+0x264>
 1429278:	180691ba 	slli	r3,r3,6
 142927c:	8880004c 	andi	r2,r17,1
 1429280:	180ad27a 	srli	r5,r3,9
 1429284:	84003fcc 	andi	r16,r16,255
 1429288:	800695fa 	slli	r3,r16,23
 142928c:	10803fcc 	andi	r2,r2,255
 1429290:	01002034 	movhi	r4,128
 1429294:	213fffc4 	addi	r4,r4,-1
 1429298:	100497fa 	slli	r2,r2,31
 142929c:	2920703a 	and	r16,r5,r4
 14292a0:	80e0b03a 	or	r16,r16,r3
 14292a4:	8084b03a 	or	r2,r16,r2
 14292a8:	dfc00317 	ldw	ra,12(sp)
 14292ac:	dc800217 	ldw	r18,8(sp)
 14292b0:	dc400117 	ldw	r17,4(sp)
 14292b4:	dc000017 	ldw	r16,0(sp)
 14292b8:	dec00404 	addi	sp,sp,16
 14292bc:	f800283a 	ret
 14292c0:	00803fc4 	movi	r2,255
 14292c4:	80bfe126 	beq	r16,r2,142924c <__alt_data_end+0xfffe924c>
 14292c8:	39c10034 	orhi	r7,r7,1024
 14292cc:	008006c4 	movi	r2,27
 14292d0:	11007416 	blt	r2,r4,14294a4 <__subsf3+0x2bc>
 14292d4:	00800804 	movi	r2,32
 14292d8:	1105c83a 	sub	r2,r2,r4
 14292dc:	3884983a 	sll	r2,r7,r2
 14292e0:	390ed83a 	srl	r7,r7,r4
 14292e4:	1008c03a 	cmpne	r4,r2,zero
 14292e8:	390eb03a 	or	r7,r7,r4
 14292ec:	19c7c83a 	sub	r3,r3,r7
 14292f0:	1881002c 	andhi	r2,r3,1024
 14292f4:	10001426 	beq	r2,zero,1429348 <__subsf3+0x160>
 14292f8:	04810034 	movhi	r18,1024
 14292fc:	94bfffc4 	addi	r18,r18,-1
 1429300:	1ca4703a 	and	r18,r3,r18
 1429304:	9009883a 	mov	r4,r18
 1429308:	142be040 	call	142be04 <__clzsi2>
 142930c:	10bffec4 	addi	r2,r2,-5
 1429310:	90a4983a 	sll	r18,r18,r2
 1429314:	14005116 	blt	r2,r16,142945c <__subsf3+0x274>
 1429318:	1405c83a 	sub	r2,r2,r16
 142931c:	10c00044 	addi	r3,r2,1
 1429320:	00800804 	movi	r2,32
 1429324:	10c5c83a 	sub	r2,r2,r3
 1429328:	9084983a 	sll	r2,r18,r2
 142932c:	90e4d83a 	srl	r18,r18,r3
 1429330:	0021883a 	mov	r16,zero
 1429334:	1006c03a 	cmpne	r3,r2,zero
 1429338:	90c6b03a 	or	r3,r18,r3
 142933c:	003fc306 	br	142924c <__alt_data_end+0xfffe924c>
 1429340:	2000e026 	beq	r4,zero,14296c4 <__subsf3+0x4dc>
 1429344:	2007883a 	mov	r3,r4
 1429348:	188001cc 	andi	r2,r3,7
 142934c:	103fc11e 	bne	r2,zero,1429254 <__alt_data_end+0xfffe9254>
 1429350:	180ad0fa 	srli	r5,r3,3
 1429354:	00c03fc4 	movi	r3,255
 1429358:	8880004c 	andi	r2,r17,1
 142935c:	80c0031e 	bne	r16,r3,142936c <__subsf3+0x184>
 1429360:	28006d26 	beq	r5,zero,1429518 <__subsf3+0x330>
 1429364:	29401034 	orhi	r5,r5,64
 1429368:	043fffc4 	movi	r16,-1
 142936c:	00c02034 	movhi	r3,128
 1429370:	18ffffc4 	addi	r3,r3,-1
 1429374:	28ca703a 	and	r5,r5,r3
 1429378:	003fc206 	br	1429284 <__alt_data_end+0xfffe9284>
 142937c:	01003c0e 	bge	zero,r4,1429470 <__subsf3+0x288>
 1429380:	30002126 	beq	r6,zero,1429408 <__subsf3+0x220>
 1429384:	01403fc4 	movi	r5,255
 1429388:	817fb026 	beq	r16,r5,142924c <__alt_data_end+0xfffe924c>
 142938c:	39c10034 	orhi	r7,r7,1024
 1429390:	014006c4 	movi	r5,27
 1429394:	29007416 	blt	r5,r4,1429568 <__subsf3+0x380>
 1429398:	01400804 	movi	r5,32
 142939c:	290bc83a 	sub	r5,r5,r4
 14293a0:	394a983a 	sll	r5,r7,r5
 14293a4:	390ed83a 	srl	r7,r7,r4
 14293a8:	2808c03a 	cmpne	r4,r5,zero
 14293ac:	390eb03a 	or	r7,r7,r4
 14293b0:	19c7883a 	add	r3,r3,r7
 14293b4:	1901002c 	andhi	r4,r3,1024
 14293b8:	20003826 	beq	r4,zero,142949c <__subsf3+0x2b4>
 14293bc:	84000044 	addi	r16,r16,1
 14293c0:	01003fc4 	movi	r4,255
 14293c4:	81005426 	beq	r16,r4,1429518 <__subsf3+0x330>
 14293c8:	1023883a 	mov	r17,r2
 14293cc:	00bf0034 	movhi	r2,64512
 14293d0:	10bfffc4 	addi	r2,r2,-1
 14293d4:	1900004c 	andi	r4,r3,1
 14293d8:	1886703a 	and	r3,r3,r2
 14293dc:	1806d07a 	srli	r3,r3,1
 14293e0:	1906b03a 	or	r3,r3,r4
 14293e4:	003f9906 	br	142924c <__alt_data_end+0xfffe924c>
 14293e8:	383f9226 	beq	r7,zero,1429234 <__alt_data_end+0xfffe9234>
 14293ec:	10803fcc 	andi	r2,r2,255
 14293f0:	003f9106 	br	1429238 <__alt_data_end+0xfffe9238>
 14293f4:	213fffc4 	addi	r4,r4,-1
 14293f8:	203fbc26 	beq	r4,zero,14292ec <__alt_data_end+0xfffe92ec>
 14293fc:	00803fc4 	movi	r2,255
 1429400:	80bfb21e 	bne	r16,r2,14292cc <__alt_data_end+0xfffe92cc>
 1429404:	003f9106 	br	142924c <__alt_data_end+0xfffe924c>
 1429408:	383f9026 	beq	r7,zero,142924c <__alt_data_end+0xfffe924c>
 142940c:	213fffc4 	addi	r4,r4,-1
 1429410:	203fe726 	beq	r4,zero,14293b0 <__alt_data_end+0xfffe93b0>
 1429414:	01403fc4 	movi	r5,255
 1429418:	817fdd1e 	bne	r16,r5,1429390 <__alt_data_end+0xfffe9390>
 142941c:	003f8b06 	br	142924c <__alt_data_end+0xfffe924c>
 1429420:	2000221e 	bne	r4,zero,14294ac <__subsf3+0x2c4>
 1429424:	81000044 	addi	r4,r16,1
 1429428:	21003fcc 	andi	r4,r4,255
 142942c:	01400044 	movi	r5,1
 1429430:	2900470e 	bge	r5,r4,1429550 <__subsf3+0x368>
 1429434:	19e5c83a 	sub	r18,r3,r7
 1429438:	9141002c 	andhi	r5,r18,1024
 142943c:	28002d26 	beq	r5,zero,14294f4 <__subsf3+0x30c>
 1429440:	38e5c83a 	sub	r18,r7,r3
 1429444:	1023883a 	mov	r17,r2
 1429448:	003fae06 	br	1429304 <__alt_data_end+0xfffe9304>
 142944c:	8880004c 	andi	r2,r17,1
 1429450:	043fffc4 	movi	r16,-1
 1429454:	000b883a 	mov	r5,zero
 1429458:	003f8a06 	br	1429284 <__alt_data_end+0xfffe9284>
 142945c:	00ff0034 	movhi	r3,64512
 1429460:	18ffffc4 	addi	r3,r3,-1
 1429464:	80a1c83a 	sub	r16,r16,r2
 1429468:	90c6703a 	and	r3,r18,r3
 142946c:	003f7706 	br	142924c <__alt_data_end+0xfffe924c>
 1429470:	2000431e 	bne	r4,zero,1429580 <__subsf3+0x398>
 1429474:	81000044 	addi	r4,r16,1
 1429478:	21803fcc 	andi	r6,r4,255
 142947c:	01400044 	movi	r5,1
 1429480:	2980280e 	bge	r5,r6,1429524 <__subsf3+0x33c>
 1429484:	01403fc4 	movi	r5,255
 1429488:	21402326 	beq	r4,r5,1429518 <__subsf3+0x330>
 142948c:	19c7883a 	add	r3,r3,r7
 1429490:	1806d07a 	srli	r3,r3,1
 1429494:	2021883a 	mov	r16,r4
 1429498:	003f6c06 	br	142924c <__alt_data_end+0xfffe924c>
 142949c:	1023883a 	mov	r17,r2
 14294a0:	003fa906 	br	1429348 <__alt_data_end+0xfffe9348>
 14294a4:	01c00044 	movi	r7,1
 14294a8:	003f9006 	br	14292ec <__alt_data_end+0xfffe92ec>
 14294ac:	8000151e 	bne	r16,zero,1429504 <__subsf3+0x31c>
 14294b0:	18002f26 	beq	r3,zero,1429570 <__subsf3+0x388>
 14294b4:	0108303a 	nor	r4,zero,r4
 14294b8:	20000a26 	beq	r4,zero,14294e4 <__subsf3+0x2fc>
 14294bc:	01403fc4 	movi	r5,255
 14294c0:	31402b26 	beq	r6,r5,1429570 <__subsf3+0x388>
 14294c4:	014006c4 	movi	r5,27
 14294c8:	29006e16 	blt	r5,r4,1429684 <__subsf3+0x49c>
 14294cc:	01400804 	movi	r5,32
 14294d0:	290bc83a 	sub	r5,r5,r4
 14294d4:	194a983a 	sll	r5,r3,r5
 14294d8:	1908d83a 	srl	r4,r3,r4
 14294dc:	2806c03a 	cmpne	r3,r5,zero
 14294e0:	20c6b03a 	or	r3,r4,r3
 14294e4:	38c7c83a 	sub	r3,r7,r3
 14294e8:	3021883a 	mov	r16,r6
 14294ec:	1023883a 	mov	r17,r2
 14294f0:	003f7f06 	br	14292f0 <__alt_data_end+0xfffe92f0>
 14294f4:	903f831e 	bne	r18,zero,1429304 <__alt_data_end+0xfffe9304>
 14294f8:	0005883a 	mov	r2,zero
 14294fc:	0021883a 	mov	r16,zero
 1429500:	003f9a06 	br	142936c <__alt_data_end+0xfffe936c>
 1429504:	01403fc4 	movi	r5,255
 1429508:	31401926 	beq	r6,r5,1429570 <__subsf3+0x388>
 142950c:	0109c83a 	sub	r4,zero,r4
 1429510:	18c10034 	orhi	r3,r3,1024
 1429514:	003feb06 	br	14294c4 <__alt_data_end+0xfffe94c4>
 1429518:	043fffc4 	movi	r16,-1
 142951c:	000b883a 	mov	r5,zero
 1429520:	003f5806 	br	1429284 <__alt_data_end+0xfffe9284>
 1429524:	8000481e 	bne	r16,zero,1429648 <__subsf3+0x460>
 1429528:	18006226 	beq	r3,zero,14296b4 <__subsf3+0x4cc>
 142952c:	383f4726 	beq	r7,zero,142924c <__alt_data_end+0xfffe924c>
 1429530:	19c7883a 	add	r3,r3,r7
 1429534:	1881002c 	andhi	r2,r3,1024
 1429538:	103f8326 	beq	r2,zero,1429348 <__alt_data_end+0xfffe9348>
 142953c:	00bf0034 	movhi	r2,64512
 1429540:	10bfffc4 	addi	r2,r2,-1
 1429544:	2821883a 	mov	r16,r5
 1429548:	1886703a 	and	r3,r3,r2
 142954c:	003f3f06 	br	142924c <__alt_data_end+0xfffe924c>
 1429550:	80001c1e 	bne	r16,zero,14295c4 <__subsf3+0x3dc>
 1429554:	1800261e 	bne	r3,zero,14295f0 <__subsf3+0x408>
 1429558:	38004c26 	beq	r7,zero,142968c <__subsf3+0x4a4>
 142955c:	3807883a 	mov	r3,r7
 1429560:	1023883a 	mov	r17,r2
 1429564:	003f3906 	br	142924c <__alt_data_end+0xfffe924c>
 1429568:	01c00044 	movi	r7,1
 142956c:	003f9006 	br	14293b0 <__alt_data_end+0xfffe93b0>
 1429570:	3807883a 	mov	r3,r7
 1429574:	3021883a 	mov	r16,r6
 1429578:	1023883a 	mov	r17,r2
 142957c:	003f3306 	br	142924c <__alt_data_end+0xfffe924c>
 1429580:	8000161e 	bne	r16,zero,14295dc <__subsf3+0x3f4>
 1429584:	18002d26 	beq	r3,zero,142963c <__subsf3+0x454>
 1429588:	0108303a 	nor	r4,zero,r4
 142958c:	20000a26 	beq	r4,zero,14295b8 <__subsf3+0x3d0>
 1429590:	01403fc4 	movi	r5,255
 1429594:	31402926 	beq	r6,r5,142963c <__subsf3+0x454>
 1429598:	014006c4 	movi	r5,27
 142959c:	29004716 	blt	r5,r4,14296bc <__subsf3+0x4d4>
 14295a0:	01400804 	movi	r5,32
 14295a4:	290bc83a 	sub	r5,r5,r4
 14295a8:	194a983a 	sll	r5,r3,r5
 14295ac:	1908d83a 	srl	r4,r3,r4
 14295b0:	2806c03a 	cmpne	r3,r5,zero
 14295b4:	20c6b03a 	or	r3,r4,r3
 14295b8:	19c7883a 	add	r3,r3,r7
 14295bc:	3021883a 	mov	r16,r6
 14295c0:	003f7c06 	br	14293b4 <__alt_data_end+0xfffe93b4>
 14295c4:	1800111e 	bne	r3,zero,142960c <__subsf3+0x424>
 14295c8:	38003326 	beq	r7,zero,1429698 <__subsf3+0x4b0>
 14295cc:	3807883a 	mov	r3,r7
 14295d0:	1023883a 	mov	r17,r2
 14295d4:	04003fc4 	movi	r16,255
 14295d8:	003f1c06 	br	142924c <__alt_data_end+0xfffe924c>
 14295dc:	01403fc4 	movi	r5,255
 14295e0:	31401626 	beq	r6,r5,142963c <__subsf3+0x454>
 14295e4:	0109c83a 	sub	r4,zero,r4
 14295e8:	18c10034 	orhi	r3,r3,1024
 14295ec:	003fea06 	br	1429598 <__alt_data_end+0xfffe9598>
 14295f0:	383f1626 	beq	r7,zero,142924c <__alt_data_end+0xfffe924c>
 14295f4:	19c9c83a 	sub	r4,r3,r7
 14295f8:	2141002c 	andhi	r5,r4,1024
 14295fc:	283f5026 	beq	r5,zero,1429340 <__alt_data_end+0xfffe9340>
 1429600:	38c7c83a 	sub	r3,r7,r3
 1429604:	1023883a 	mov	r17,r2
 1429608:	003f1006 	br	142924c <__alt_data_end+0xfffe924c>
 142960c:	38001b26 	beq	r7,zero,142967c <__subsf3+0x494>
 1429610:	1806d0fa 	srli	r3,r3,3
 1429614:	1900102c 	andhi	r4,r3,64
 1429618:	20000526 	beq	r4,zero,1429630 <__subsf3+0x448>
 142961c:	380ed0fa 	srli	r7,r7,3
 1429620:	3900102c 	andhi	r4,r7,64
 1429624:	2000021e 	bne	r4,zero,1429630 <__subsf3+0x448>
 1429628:	3807883a 	mov	r3,r7
 142962c:	1023883a 	mov	r17,r2
 1429630:	180690fa 	slli	r3,r3,3
 1429634:	04003fc4 	movi	r16,255
 1429638:	003f0406 	br	142924c <__alt_data_end+0xfffe924c>
 142963c:	3807883a 	mov	r3,r7
 1429640:	3021883a 	mov	r16,r6
 1429644:	003f0106 	br	142924c <__alt_data_end+0xfffe924c>
 1429648:	18001726 	beq	r3,zero,14296a8 <__subsf3+0x4c0>
 142964c:	38000b26 	beq	r7,zero,142967c <__subsf3+0x494>
 1429650:	1806d0fa 	srli	r3,r3,3
 1429654:	1900102c 	andhi	r4,r3,64
 1429658:	20000426 	beq	r4,zero,142966c <__subsf3+0x484>
 142965c:	380ed0fa 	srli	r7,r7,3
 1429660:	3900102c 	andhi	r4,r7,64
 1429664:	2000011e 	bne	r4,zero,142966c <__subsf3+0x484>
 1429668:	3807883a 	mov	r3,r7
 142966c:	180690fa 	slli	r3,r3,3
 1429670:	1023883a 	mov	r17,r2
 1429674:	04003fc4 	movi	r16,255
 1429678:	003ef406 	br	142924c <__alt_data_end+0xfffe924c>
 142967c:	04003fc4 	movi	r16,255
 1429680:	003ef206 	br	142924c <__alt_data_end+0xfffe924c>
 1429684:	00c00044 	movi	r3,1
 1429688:	003f9606 	br	14294e4 <__alt_data_end+0xfffe94e4>
 142968c:	000b883a 	mov	r5,zero
 1429690:	0005883a 	mov	r2,zero
 1429694:	003f3506 	br	142936c <__alt_data_end+0xfffe936c>
 1429698:	01402034 	movhi	r5,128
 142969c:	297fffc4 	addi	r5,r5,-1
 14296a0:	0005883a 	mov	r2,zero
 14296a4:	003f2f06 	br	1429364 <__alt_data_end+0xfffe9364>
 14296a8:	3807883a 	mov	r3,r7
 14296ac:	04003fc4 	movi	r16,255
 14296b0:	003ee606 	br	142924c <__alt_data_end+0xfffe924c>
 14296b4:	3807883a 	mov	r3,r7
 14296b8:	003ee406 	br	142924c <__alt_data_end+0xfffe924c>
 14296bc:	00c00044 	movi	r3,1
 14296c0:	003fbd06 	br	14295b8 <__alt_data_end+0xfffe95b8>
 14296c4:	0005883a 	mov	r2,zero
 14296c8:	003f2806 	br	142936c <__alt_data_end+0xfffe936c>

014296cc <__fixsfsi>:
 14296cc:	200ad5fa 	srli	r5,r4,23
 14296d0:	00c02034 	movhi	r3,128
 14296d4:	18ffffc4 	addi	r3,r3,-1
 14296d8:	29403fcc 	andi	r5,r5,255
 14296dc:	00801f84 	movi	r2,126
 14296e0:	1906703a 	and	r3,r3,r4
 14296e4:	2008d7fa 	srli	r4,r4,31
 14296e8:	11400e0e 	bge	r2,r5,1429724 <__fixsfsi+0x58>
 14296ec:	00802744 	movi	r2,157
 14296f0:	11400816 	blt	r2,r5,1429714 <__fixsfsi+0x48>
 14296f4:	00802544 	movi	r2,149
 14296f8:	18c02034 	orhi	r3,r3,128
 14296fc:	11400b0e 	bge	r2,r5,142972c <__fixsfsi+0x60>
 1429700:	28bfda84 	addi	r2,r5,-150
 1429704:	1884983a 	sll	r2,r3,r2
 1429708:	20000726 	beq	r4,zero,1429728 <__fixsfsi+0x5c>
 142970c:	0085c83a 	sub	r2,zero,r2
 1429710:	f800283a 	ret
 1429714:	00a00034 	movhi	r2,32768
 1429718:	10bfffc4 	addi	r2,r2,-1
 142971c:	2085883a 	add	r2,r4,r2
 1429720:	f800283a 	ret
 1429724:	0005883a 	mov	r2,zero
 1429728:	f800283a 	ret
 142972c:	00802584 	movi	r2,150
 1429730:	1145c83a 	sub	r2,r2,r5
 1429734:	1884d83a 	srl	r2,r3,r2
 1429738:	003ff306 	br	1429708 <__alt_data_end+0xfffe9708>

0142973c <__floatsisf>:
 142973c:	defffd04 	addi	sp,sp,-12
 1429740:	dfc00215 	stw	ra,8(sp)
 1429744:	dc400115 	stw	r17,4(sp)
 1429748:	dc000015 	stw	r16,0(sp)
 142974c:	20003526 	beq	r4,zero,1429824 <__floatsisf+0xe8>
 1429750:	2021883a 	mov	r16,r4
 1429754:	2022d7fa 	srli	r17,r4,31
 1429758:	20003616 	blt	r4,zero,1429834 <__floatsisf+0xf8>
 142975c:	8009883a 	mov	r4,r16
 1429760:	142be040 	call	142be04 <__clzsi2>
 1429764:	00c02784 	movi	r3,158
 1429768:	1887c83a 	sub	r3,r3,r2
 142976c:	01002584 	movi	r4,150
 1429770:	20c01416 	blt	r4,r3,14297c4 <__floatsisf+0x88>
 1429774:	20c9c83a 	sub	r4,r4,r3
 1429778:	8120983a 	sll	r16,r16,r4
 142977c:	00802034 	movhi	r2,128
 1429780:	10bfffc4 	addi	r2,r2,-1
 1429784:	8809883a 	mov	r4,r17
 1429788:	80a0703a 	and	r16,r16,r2
 142978c:	18803fcc 	andi	r2,r3,255
 1429790:	100695fa 	slli	r3,r2,23
 1429794:	20803fcc 	andi	r2,r4,255
 1429798:	100897fa 	slli	r4,r2,31
 142979c:	00802034 	movhi	r2,128
 14297a0:	10bfffc4 	addi	r2,r2,-1
 14297a4:	8084703a 	and	r2,r16,r2
 14297a8:	10c4b03a 	or	r2,r2,r3
 14297ac:	1104b03a 	or	r2,r2,r4
 14297b0:	dfc00217 	ldw	ra,8(sp)
 14297b4:	dc400117 	ldw	r17,4(sp)
 14297b8:	dc000017 	ldw	r16,0(sp)
 14297bc:	dec00304 	addi	sp,sp,12
 14297c0:	f800283a 	ret
 14297c4:	01002644 	movi	r4,153
 14297c8:	20c01c16 	blt	r4,r3,142983c <__floatsisf+0x100>
 14297cc:	20c9c83a 	sub	r4,r4,r3
 14297d0:	8120983a 	sll	r16,r16,r4
 14297d4:	013f0034 	movhi	r4,64512
 14297d8:	213fffc4 	addi	r4,r4,-1
 14297dc:	814001cc 	andi	r5,r16,7
 14297e0:	8108703a 	and	r4,r16,r4
 14297e4:	28000426 	beq	r5,zero,14297f8 <__floatsisf+0xbc>
 14297e8:	840003cc 	andi	r16,r16,15
 14297ec:	01400104 	movi	r5,4
 14297f0:	81400126 	beq	r16,r5,14297f8 <__floatsisf+0xbc>
 14297f4:	2149883a 	add	r4,r4,r5
 14297f8:	2141002c 	andhi	r5,r4,1024
 14297fc:	28000526 	beq	r5,zero,1429814 <__floatsisf+0xd8>
 1429800:	00c027c4 	movi	r3,159
 1429804:	1887c83a 	sub	r3,r3,r2
 1429808:	00bf0034 	movhi	r2,64512
 142980c:	10bfffc4 	addi	r2,r2,-1
 1429810:	2088703a 	and	r4,r4,r2
 1429814:	202091ba 	slli	r16,r4,6
 1429818:	8809883a 	mov	r4,r17
 142981c:	8020d27a 	srli	r16,r16,9
 1429820:	003fda06 	br	142978c <__alt_data_end+0xfffe978c>
 1429824:	0009883a 	mov	r4,zero
 1429828:	0007883a 	mov	r3,zero
 142982c:	0021883a 	mov	r16,zero
 1429830:	003fd606 	br	142978c <__alt_data_end+0xfffe978c>
 1429834:	0121c83a 	sub	r16,zero,r4
 1429838:	003fc806 	br	142975c <__alt_data_end+0xfffe975c>
 142983c:	01002e44 	movi	r4,185
 1429840:	20c9c83a 	sub	r4,r4,r3
 1429844:	01400144 	movi	r5,5
 1429848:	8108983a 	sll	r4,r16,r4
 142984c:	288bc83a 	sub	r5,r5,r2
 1429850:	8160d83a 	srl	r16,r16,r5
 1429854:	2008c03a 	cmpne	r4,r4,zero
 1429858:	8120b03a 	or	r16,r16,r4
 142985c:	003fdd06 	br	14297d4 <__alt_data_end+0xfffe97d4>

01429860 <__floatunsisf>:
 1429860:	defffe04 	addi	sp,sp,-8
 1429864:	dfc00115 	stw	ra,4(sp)
 1429868:	dc000015 	stw	r16,0(sp)
 142986c:	20002c26 	beq	r4,zero,1429920 <__floatunsisf+0xc0>
 1429870:	2021883a 	mov	r16,r4
 1429874:	142be040 	call	142be04 <__clzsi2>
 1429878:	00c02784 	movi	r3,158
 142987c:	1887c83a 	sub	r3,r3,r2
 1429880:	01002584 	movi	r4,150
 1429884:	20c00f16 	blt	r4,r3,14298c4 <__floatunsisf+0x64>
 1429888:	20c9c83a 	sub	r4,r4,r3
 142988c:	8108983a 	sll	r4,r16,r4
 1429890:	00802034 	movhi	r2,128
 1429894:	10bfffc4 	addi	r2,r2,-1
 1429898:	2088703a 	and	r4,r4,r2
 142989c:	18803fcc 	andi	r2,r3,255
 14298a0:	100695fa 	slli	r3,r2,23
 14298a4:	00802034 	movhi	r2,128
 14298a8:	10bfffc4 	addi	r2,r2,-1
 14298ac:	2084703a 	and	r2,r4,r2
 14298b0:	10c4b03a 	or	r2,r2,r3
 14298b4:	dfc00117 	ldw	ra,4(sp)
 14298b8:	dc000017 	ldw	r16,0(sp)
 14298bc:	dec00204 	addi	sp,sp,8
 14298c0:	f800283a 	ret
 14298c4:	01002644 	movi	r4,153
 14298c8:	20c01816 	blt	r4,r3,142992c <__floatunsisf+0xcc>
 14298cc:	20c9c83a 	sub	r4,r4,r3
 14298d0:	8108983a 	sll	r4,r16,r4
 14298d4:	017f0034 	movhi	r5,64512
 14298d8:	297fffc4 	addi	r5,r5,-1
 14298dc:	218001cc 	andi	r6,r4,7
 14298e0:	214a703a 	and	r5,r4,r5
 14298e4:	30000426 	beq	r6,zero,14298f8 <__floatunsisf+0x98>
 14298e8:	210003cc 	andi	r4,r4,15
 14298ec:	01800104 	movi	r6,4
 14298f0:	21800126 	beq	r4,r6,14298f8 <__floatunsisf+0x98>
 14298f4:	298b883a 	add	r5,r5,r6
 14298f8:	2901002c 	andhi	r4,r5,1024
 14298fc:	20000526 	beq	r4,zero,1429914 <__floatunsisf+0xb4>
 1429900:	00c027c4 	movi	r3,159
 1429904:	1887c83a 	sub	r3,r3,r2
 1429908:	00bf0034 	movhi	r2,64512
 142990c:	10bfffc4 	addi	r2,r2,-1
 1429910:	288a703a 	and	r5,r5,r2
 1429914:	280891ba 	slli	r4,r5,6
 1429918:	2008d27a 	srli	r4,r4,9
 142991c:	003fdf06 	br	142989c <__alt_data_end+0xfffe989c>
 1429920:	0007883a 	mov	r3,zero
 1429924:	0009883a 	mov	r4,zero
 1429928:	003fdc06 	br	142989c <__alt_data_end+0xfffe989c>
 142992c:	01402e44 	movi	r5,185
 1429930:	28cbc83a 	sub	r5,r5,r3
 1429934:	01000144 	movi	r4,5
 1429938:	2089c83a 	sub	r4,r4,r2
 142993c:	814a983a 	sll	r5,r16,r5
 1429940:	8108d83a 	srl	r4,r16,r4
 1429944:	2820c03a 	cmpne	r16,r5,zero
 1429948:	2408b03a 	or	r4,r4,r16
 142994c:	003fe106 	br	14298d4 <__alt_data_end+0xfffe98d4>

01429950 <__divdf3>:
 1429950:	defff004 	addi	sp,sp,-64
 1429954:	dc800815 	stw	r18,32(sp)
 1429958:	2824d53a 	srli	r18,r5,20
 142995c:	dd800c15 	stw	r22,48(sp)
 1429960:	282cd7fa 	srli	r22,r5,31
 1429964:	dc000615 	stw	r16,24(sp)
 1429968:	04000434 	movhi	r16,16
 142996c:	843fffc4 	addi	r16,r16,-1
 1429970:	dfc00f15 	stw	ra,60(sp)
 1429974:	df000e15 	stw	fp,56(sp)
 1429978:	ddc00d15 	stw	r23,52(sp)
 142997c:	dd400b15 	stw	r21,44(sp)
 1429980:	dd000a15 	stw	r20,40(sp)
 1429984:	dcc00915 	stw	r19,36(sp)
 1429988:	dc400715 	stw	r17,28(sp)
 142998c:	9481ffcc 	andi	r18,r18,2047
 1429990:	2c20703a 	and	r16,r5,r16
 1429994:	b2003fcc 	andi	r8,r22,255
 1429998:	90006126 	beq	r18,zero,1429b20 <__divdf3+0x1d0>
 142999c:	0081ffc4 	movi	r2,2047
 14299a0:	202b883a 	mov	r21,r4
 14299a4:	90803726 	beq	r18,r2,1429a84 <__divdf3+0x134>
 14299a8:	80800434 	orhi	r2,r16,16
 14299ac:	100490fa 	slli	r2,r2,3
 14299b0:	2020d77a 	srli	r16,r4,29
 14299b4:	202a90fa 	slli	r21,r4,3
 14299b8:	94bf0044 	addi	r18,r18,-1023
 14299bc:	80a0b03a 	or	r16,r16,r2
 14299c0:	0013883a 	mov	r9,zero
 14299c4:	000b883a 	mov	r5,zero
 14299c8:	3806d53a 	srli	r3,r7,20
 14299cc:	382ed7fa 	srli	r23,r7,31
 14299d0:	04400434 	movhi	r17,16
 14299d4:	8c7fffc4 	addi	r17,r17,-1
 14299d8:	18c1ffcc 	andi	r3,r3,2047
 14299dc:	3029883a 	mov	r20,r6
 14299e0:	3c62703a 	and	r17,r7,r17
 14299e4:	bf003fcc 	andi	fp,r23,255
 14299e8:	18006e26 	beq	r3,zero,1429ba4 <__divdf3+0x254>
 14299ec:	0081ffc4 	movi	r2,2047
 14299f0:	18806626 	beq	r3,r2,1429b8c <__divdf3+0x23c>
 14299f4:	88800434 	orhi	r2,r17,16
 14299f8:	100490fa 	slli	r2,r2,3
 14299fc:	3022d77a 	srli	r17,r6,29
 1429a00:	302890fa 	slli	r20,r6,3
 1429a04:	18ff0044 	addi	r3,r3,-1023
 1429a08:	88a2b03a 	or	r17,r17,r2
 1429a0c:	000f883a 	mov	r7,zero
 1429a10:	b5e6f03a 	xor	r19,r22,r23
 1429a14:	3a4cb03a 	or	r6,r7,r9
 1429a18:	008003c4 	movi	r2,15
 1429a1c:	9809883a 	mov	r4,r19
 1429a20:	90c7c83a 	sub	r3,r18,r3
 1429a24:	9cc03fcc 	andi	r19,r19,255
 1429a28:	11809636 	bltu	r2,r6,1429c84 <__divdf3+0x334>
 1429a2c:	300c90ba 	slli	r6,r6,2
 1429a30:	008050f4 	movhi	r2,323
 1429a34:	10a69104 	addi	r2,r2,-26044
 1429a38:	308d883a 	add	r6,r6,r2
 1429a3c:	30800017 	ldw	r2,0(r6)
 1429a40:	1000683a 	jmp	r2
 1429a44:	01429c84 	movi	r5,2674
 1429a48:	01429abc 	xorhi	r5,zero,2666
 1429a4c:	01429c74 	movhi	r5,2673
 1429a50:	01429ab0 	cmpltui	r5,zero,2666
 1429a54:	01429c74 	movhi	r5,2673
 1429a58:	01429c48 	cmpgei	r5,zero,2673
 1429a5c:	01429c74 	movhi	r5,2673
 1429a60:	01429ab0 	cmpltui	r5,zero,2666
 1429a64:	01429abc 	xorhi	r5,zero,2666
 1429a68:	01429abc 	xorhi	r5,zero,2666
 1429a6c:	01429c48 	cmpgei	r5,zero,2673
 1429a70:	01429ab0 	cmpltui	r5,zero,2666
 1429a74:	01429aa0 	cmpeqi	r5,zero,2666
 1429a78:	01429aa0 	cmpeqi	r5,zero,2666
 1429a7c:	01429aa0 	cmpeqi	r5,zero,2666
 1429a80:	0142a00c 	andi	r5,zero,2688
 1429a84:	2404b03a 	or	r2,r4,r16
 1429a88:	10006c1e 	bne	r2,zero,1429c3c <__divdf3+0x2ec>
 1429a8c:	02400204 	movi	r9,8
 1429a90:	0021883a 	mov	r16,zero
 1429a94:	002b883a 	mov	r21,zero
 1429a98:	01400084 	movi	r5,2
 1429a9c:	003fca06 	br	14299c8 <__alt_data_end+0xfffe99c8>
 1429aa0:	8023883a 	mov	r17,r16
 1429aa4:	a829883a 	mov	r20,r21
 1429aa8:	4039883a 	mov	fp,r8
 1429aac:	280f883a 	mov	r7,r5
 1429ab0:	00800084 	movi	r2,2
 1429ab4:	3881601e 	bne	r7,r2,142a038 <__divdf3+0x6e8>
 1429ab8:	e027883a 	mov	r19,fp
 1429abc:	9900004c 	andi	r4,r19,1
 1429ac0:	0081ffc4 	movi	r2,2047
 1429ac4:	0021883a 	mov	r16,zero
 1429ac8:	002b883a 	mov	r21,zero
 1429acc:	1004953a 	slli	r2,r2,20
 1429ad0:	20c03fcc 	andi	r3,r4,255
 1429ad4:	01400434 	movhi	r5,16
 1429ad8:	297fffc4 	addi	r5,r5,-1
 1429adc:	180697fa 	slli	r3,r3,31
 1429ae0:	8160703a 	and	r16,r16,r5
 1429ae4:	80a0b03a 	or	r16,r16,r2
 1429ae8:	80c6b03a 	or	r3,r16,r3
 1429aec:	a805883a 	mov	r2,r21
 1429af0:	dfc00f17 	ldw	ra,60(sp)
 1429af4:	df000e17 	ldw	fp,56(sp)
 1429af8:	ddc00d17 	ldw	r23,52(sp)
 1429afc:	dd800c17 	ldw	r22,48(sp)
 1429b00:	dd400b17 	ldw	r21,44(sp)
 1429b04:	dd000a17 	ldw	r20,40(sp)
 1429b08:	dcc00917 	ldw	r19,36(sp)
 1429b0c:	dc800817 	ldw	r18,32(sp)
 1429b10:	dc400717 	ldw	r17,28(sp)
 1429b14:	dc000617 	ldw	r16,24(sp)
 1429b18:	dec01004 	addi	sp,sp,64
 1429b1c:	f800283a 	ret
 1429b20:	2404b03a 	or	r2,r4,r16
 1429b24:	2023883a 	mov	r17,r4
 1429b28:	10003f26 	beq	r2,zero,1429c28 <__divdf3+0x2d8>
 1429b2c:	80015e26 	beq	r16,zero,142a0a8 <__divdf3+0x758>
 1429b30:	8009883a 	mov	r4,r16
 1429b34:	d9800215 	stw	r6,8(sp)
 1429b38:	d9c00515 	stw	r7,20(sp)
 1429b3c:	da000415 	stw	r8,16(sp)
 1429b40:	142be040 	call	142be04 <__clzsi2>
 1429b44:	d9800217 	ldw	r6,8(sp)
 1429b48:	d9c00517 	ldw	r7,20(sp)
 1429b4c:	da000417 	ldw	r8,16(sp)
 1429b50:	113ffd44 	addi	r4,r2,-11
 1429b54:	00c00704 	movi	r3,28
 1429b58:	19014f16 	blt	r3,r4,142a098 <__divdf3+0x748>
 1429b5c:	00c00744 	movi	r3,29
 1429b60:	157ffe04 	addi	r21,r2,-8
 1429b64:	1907c83a 	sub	r3,r3,r4
 1429b68:	8560983a 	sll	r16,r16,r21
 1429b6c:	88c6d83a 	srl	r3,r17,r3
 1429b70:	8d6a983a 	sll	r21,r17,r21
 1429b74:	1c20b03a 	or	r16,r3,r16
 1429b78:	1080fcc4 	addi	r2,r2,1011
 1429b7c:	00a5c83a 	sub	r18,zero,r2
 1429b80:	0013883a 	mov	r9,zero
 1429b84:	000b883a 	mov	r5,zero
 1429b88:	003f8f06 	br	14299c8 <__alt_data_end+0xfffe99c8>
 1429b8c:	3444b03a 	or	r2,r6,r17
 1429b90:	1000231e 	bne	r2,zero,1429c20 <__divdf3+0x2d0>
 1429b94:	0023883a 	mov	r17,zero
 1429b98:	0029883a 	mov	r20,zero
 1429b9c:	01c00084 	movi	r7,2
 1429ba0:	003f9b06 	br	1429a10 <__alt_data_end+0xfffe9a10>
 1429ba4:	3444b03a 	or	r2,r6,r17
 1429ba8:	10001926 	beq	r2,zero,1429c10 <__divdf3+0x2c0>
 1429bac:	88014b26 	beq	r17,zero,142a0dc <__divdf3+0x78c>
 1429bb0:	8809883a 	mov	r4,r17
 1429bb4:	d9400115 	stw	r5,4(sp)
 1429bb8:	d9800215 	stw	r6,8(sp)
 1429bbc:	da000415 	stw	r8,16(sp)
 1429bc0:	da400315 	stw	r9,12(sp)
 1429bc4:	142be040 	call	142be04 <__clzsi2>
 1429bc8:	d9400117 	ldw	r5,4(sp)
 1429bcc:	d9800217 	ldw	r6,8(sp)
 1429bd0:	da000417 	ldw	r8,16(sp)
 1429bd4:	da400317 	ldw	r9,12(sp)
 1429bd8:	113ffd44 	addi	r4,r2,-11
 1429bdc:	00c00704 	movi	r3,28
 1429be0:	19013a16 	blt	r3,r4,142a0cc <__divdf3+0x77c>
 1429be4:	00c00744 	movi	r3,29
 1429be8:	153ffe04 	addi	r20,r2,-8
 1429bec:	1907c83a 	sub	r3,r3,r4
 1429bf0:	8d22983a 	sll	r17,r17,r20
 1429bf4:	30c6d83a 	srl	r3,r6,r3
 1429bf8:	3528983a 	sll	r20,r6,r20
 1429bfc:	1c62b03a 	or	r17,r3,r17
 1429c00:	1080fcc4 	addi	r2,r2,1011
 1429c04:	0087c83a 	sub	r3,zero,r2
 1429c08:	000f883a 	mov	r7,zero
 1429c0c:	003f8006 	br	1429a10 <__alt_data_end+0xfffe9a10>
 1429c10:	0023883a 	mov	r17,zero
 1429c14:	0029883a 	mov	r20,zero
 1429c18:	01c00044 	movi	r7,1
 1429c1c:	003f7c06 	br	1429a10 <__alt_data_end+0xfffe9a10>
 1429c20:	01c000c4 	movi	r7,3
 1429c24:	003f7a06 	br	1429a10 <__alt_data_end+0xfffe9a10>
 1429c28:	02400104 	movi	r9,4
 1429c2c:	0021883a 	mov	r16,zero
 1429c30:	002b883a 	mov	r21,zero
 1429c34:	01400044 	movi	r5,1
 1429c38:	003f6306 	br	14299c8 <__alt_data_end+0xfffe99c8>
 1429c3c:	02400304 	movi	r9,12
 1429c40:	014000c4 	movi	r5,3
 1429c44:	003f6006 	br	14299c8 <__alt_data_end+0xfffe99c8>
 1429c48:	04000434 	movhi	r16,16
 1429c4c:	0009883a 	mov	r4,zero
 1429c50:	843fffc4 	addi	r16,r16,-1
 1429c54:	057fffc4 	movi	r21,-1
 1429c58:	0081ffc4 	movi	r2,2047
 1429c5c:	003f9b06 	br	1429acc <__alt_data_end+0xfffe9acc>
 1429c60:	00c00044 	movi	r3,1
 1429c64:	1887c83a 	sub	r3,r3,r2
 1429c68:	01000e04 	movi	r4,56
 1429c6c:	20c1530e 	bge	r4,r3,142a1bc <__divdf3+0x86c>
 1429c70:	9900004c 	andi	r4,r19,1
 1429c74:	0005883a 	mov	r2,zero
 1429c78:	0021883a 	mov	r16,zero
 1429c7c:	002b883a 	mov	r21,zero
 1429c80:	003f9206 	br	1429acc <__alt_data_end+0xfffe9acc>
 1429c84:	8c012e36 	bltu	r17,r16,142a140 <__divdf3+0x7f0>
 1429c88:	84412c26 	beq	r16,r17,142a13c <__divdf3+0x7ec>
 1429c8c:	a82f883a 	mov	r23,r21
 1429c90:	18ffffc4 	addi	r3,r3,-1
 1429c94:	002b883a 	mov	r21,zero
 1429c98:	a004d63a 	srli	r2,r20,24
 1429c9c:	8822923a 	slli	r17,r17,8
 1429ca0:	a028923a 	slli	r20,r20,8
 1429ca4:	8009883a 	mov	r4,r16
 1429ca8:	88acb03a 	or	r22,r17,r2
 1429cac:	dd000015 	stw	r20,0(sp)
 1429cb0:	b028d43a 	srli	r20,r22,16
 1429cb4:	d8c00215 	stw	r3,8(sp)
 1429cb8:	b4bfffcc 	andi	r18,r22,65535
 1429cbc:	a00b883a 	mov	r5,r20
 1429cc0:	14287d80 	call	14287d8 <__udivsi3>
 1429cc4:	100b883a 	mov	r5,r2
 1429cc8:	9009883a 	mov	r4,r18
 1429ccc:	1023883a 	mov	r17,r2
 1429cd0:	14288940 	call	1428894 <__mulsi3>
 1429cd4:	8009883a 	mov	r4,r16
 1429cd8:	a00b883a 	mov	r5,r20
 1429cdc:	1039883a 	mov	fp,r2
 1429ce0:	142883c0 	call	142883c <__umodsi3>
 1429ce4:	1004943a 	slli	r2,r2,16
 1429ce8:	b808d43a 	srli	r4,r23,16
 1429cec:	d8c00217 	ldw	r3,8(sp)
 1429cf0:	2084b03a 	or	r2,r4,r2
 1429cf4:	1700062e 	bgeu	r2,fp,1429d10 <__divdf3+0x3c0>
 1429cf8:	1585883a 	add	r2,r2,r22
 1429cfc:	893fffc4 	addi	r4,r17,-1
 1429d00:	15811d36 	bltu	r2,r22,142a178 <__divdf3+0x828>
 1429d04:	17011c2e 	bgeu	r2,fp,142a178 <__divdf3+0x828>
 1429d08:	8c7fff84 	addi	r17,r17,-2
 1429d0c:	1585883a 	add	r2,r2,r22
 1429d10:	1739c83a 	sub	fp,r2,fp
 1429d14:	a00b883a 	mov	r5,r20
 1429d18:	e009883a 	mov	r4,fp
 1429d1c:	d8c00215 	stw	r3,8(sp)
 1429d20:	14287d80 	call	14287d8 <__udivsi3>
 1429d24:	100b883a 	mov	r5,r2
 1429d28:	9009883a 	mov	r4,r18
 1429d2c:	1021883a 	mov	r16,r2
 1429d30:	14288940 	call	1428894 <__mulsi3>
 1429d34:	a00b883a 	mov	r5,r20
 1429d38:	e009883a 	mov	r4,fp
 1429d3c:	d8800415 	stw	r2,16(sp)
 1429d40:	142883c0 	call	142883c <__umodsi3>
 1429d44:	1004943a 	slli	r2,r2,16
 1429d48:	da000417 	ldw	r8,16(sp)
 1429d4c:	bdffffcc 	andi	r23,r23,65535
 1429d50:	b884b03a 	or	r2,r23,r2
 1429d54:	d8c00217 	ldw	r3,8(sp)
 1429d58:	1200062e 	bgeu	r2,r8,1429d74 <__divdf3+0x424>
 1429d5c:	1585883a 	add	r2,r2,r22
 1429d60:	813fffc4 	addi	r4,r16,-1
 1429d64:	15810236 	bltu	r2,r22,142a170 <__divdf3+0x820>
 1429d68:	1201012e 	bgeu	r2,r8,142a170 <__divdf3+0x820>
 1429d6c:	843fff84 	addi	r16,r16,-2
 1429d70:	1585883a 	add	r2,r2,r22
 1429d74:	8822943a 	slli	r17,r17,16
 1429d78:	d9800017 	ldw	r6,0(sp)
 1429d7c:	1211c83a 	sub	r8,r2,r8
 1429d80:	8c22b03a 	or	r17,r17,r16
 1429d84:	373fffcc 	andi	fp,r6,65535
 1429d88:	8abfffcc 	andi	r10,r17,65535
 1429d8c:	8820d43a 	srli	r16,r17,16
 1429d90:	5009883a 	mov	r4,r10
 1429d94:	e00b883a 	mov	r5,fp
 1429d98:	302ed43a 	srli	r23,r6,16
 1429d9c:	d8c00215 	stw	r3,8(sp)
 1429da0:	da000415 	stw	r8,16(sp)
 1429da4:	da800115 	stw	r10,4(sp)
 1429da8:	14288940 	call	1428894 <__mulsi3>
 1429dac:	800b883a 	mov	r5,r16
 1429db0:	e009883a 	mov	r4,fp
 1429db4:	d8800515 	stw	r2,20(sp)
 1429db8:	14288940 	call	1428894 <__mulsi3>
 1429dbc:	8009883a 	mov	r4,r16
 1429dc0:	b80b883a 	mov	r5,r23
 1429dc4:	d8800315 	stw	r2,12(sp)
 1429dc8:	14288940 	call	1428894 <__mulsi3>
 1429dcc:	da800117 	ldw	r10,4(sp)
 1429dd0:	b80b883a 	mov	r5,r23
 1429dd4:	1021883a 	mov	r16,r2
 1429dd8:	5009883a 	mov	r4,r10
 1429ddc:	14288940 	call	1428894 <__mulsi3>
 1429de0:	d9c00517 	ldw	r7,20(sp)
 1429de4:	da400317 	ldw	r9,12(sp)
 1429de8:	d8c00217 	ldw	r3,8(sp)
 1429dec:	3808d43a 	srli	r4,r7,16
 1429df0:	1245883a 	add	r2,r2,r9
 1429df4:	da000417 	ldw	r8,16(sp)
 1429df8:	2085883a 	add	r2,r4,r2
 1429dfc:	1240022e 	bgeu	r2,r9,1429e08 <__divdf3+0x4b8>
 1429e00:	01000074 	movhi	r4,1
 1429e04:	8121883a 	add	r16,r16,r4
 1429e08:	1008d43a 	srli	r4,r2,16
 1429e0c:	1004943a 	slli	r2,r2,16
 1429e10:	39ffffcc 	andi	r7,r7,65535
 1429e14:	2409883a 	add	r4,r4,r16
 1429e18:	11c5883a 	add	r2,r2,r7
 1429e1c:	4100bb36 	bltu	r8,r4,142a10c <__divdf3+0x7bc>
 1429e20:	4100d726 	beq	r8,r4,142a180 <__divdf3+0x830>
 1429e24:	4109c83a 	sub	r4,r8,r4
 1429e28:	a8a1c83a 	sub	r16,r21,r2
 1429e2c:	ac2b803a 	cmpltu	r21,r21,r16
 1429e30:	256bc83a 	sub	r21,r4,r21
 1429e34:	b540d926 	beq	r22,r21,142a19c <__divdf3+0x84c>
 1429e38:	a00b883a 	mov	r5,r20
 1429e3c:	a809883a 	mov	r4,r21
 1429e40:	d8c00215 	stw	r3,8(sp)
 1429e44:	14287d80 	call	14287d8 <__udivsi3>
 1429e48:	100b883a 	mov	r5,r2
 1429e4c:	9009883a 	mov	r4,r18
 1429e50:	d8800515 	stw	r2,20(sp)
 1429e54:	14288940 	call	1428894 <__mulsi3>
 1429e58:	a809883a 	mov	r4,r21
 1429e5c:	a00b883a 	mov	r5,r20
 1429e60:	d8800415 	stw	r2,16(sp)
 1429e64:	142883c0 	call	142883c <__umodsi3>
 1429e68:	1004943a 	slli	r2,r2,16
 1429e6c:	8008d43a 	srli	r4,r16,16
 1429e70:	da000417 	ldw	r8,16(sp)
 1429e74:	d8c00217 	ldw	r3,8(sp)
 1429e78:	2084b03a 	or	r2,r4,r2
 1429e7c:	d9c00517 	ldw	r7,20(sp)
 1429e80:	1200062e 	bgeu	r2,r8,1429e9c <__divdf3+0x54c>
 1429e84:	1585883a 	add	r2,r2,r22
 1429e88:	393fffc4 	addi	r4,r7,-1
 1429e8c:	1580c536 	bltu	r2,r22,142a1a4 <__divdf3+0x854>
 1429e90:	1200c42e 	bgeu	r2,r8,142a1a4 <__divdf3+0x854>
 1429e94:	39ffff84 	addi	r7,r7,-2
 1429e98:	1585883a 	add	r2,r2,r22
 1429e9c:	122bc83a 	sub	r21,r2,r8
 1429ea0:	a00b883a 	mov	r5,r20
 1429ea4:	a809883a 	mov	r4,r21
 1429ea8:	d8c00215 	stw	r3,8(sp)
 1429eac:	d9c00515 	stw	r7,20(sp)
 1429eb0:	14287d80 	call	14287d8 <__udivsi3>
 1429eb4:	9009883a 	mov	r4,r18
 1429eb8:	100b883a 	mov	r5,r2
 1429ebc:	d8800415 	stw	r2,16(sp)
 1429ec0:	14288940 	call	1428894 <__mulsi3>
 1429ec4:	a809883a 	mov	r4,r21
 1429ec8:	a00b883a 	mov	r5,r20
 1429ecc:	1025883a 	mov	r18,r2
 1429ed0:	142883c0 	call	142883c <__umodsi3>
 1429ed4:	1004943a 	slli	r2,r2,16
 1429ed8:	813fffcc 	andi	r4,r16,65535
 1429edc:	d8c00217 	ldw	r3,8(sp)
 1429ee0:	20a0b03a 	or	r16,r4,r2
 1429ee4:	d9c00517 	ldw	r7,20(sp)
 1429ee8:	da000417 	ldw	r8,16(sp)
 1429eec:	8480062e 	bgeu	r16,r18,1429f08 <__divdf3+0x5b8>
 1429ef0:	85a1883a 	add	r16,r16,r22
 1429ef4:	40bfffc4 	addi	r2,r8,-1
 1429ef8:	8580ac36 	bltu	r16,r22,142a1ac <__divdf3+0x85c>
 1429efc:	8480ab2e 	bgeu	r16,r18,142a1ac <__divdf3+0x85c>
 1429f00:	423fff84 	addi	r8,r8,-2
 1429f04:	85a1883a 	add	r16,r16,r22
 1429f08:	3804943a 	slli	r2,r7,16
 1429f0c:	84a1c83a 	sub	r16,r16,r18
 1429f10:	e009883a 	mov	r4,fp
 1429f14:	1228b03a 	or	r20,r2,r8
 1429f18:	a1ffffcc 	andi	r7,r20,65535
 1429f1c:	a024d43a 	srli	r18,r20,16
 1429f20:	380b883a 	mov	r5,r7
 1429f24:	d8c00215 	stw	r3,8(sp)
 1429f28:	d9c00515 	stw	r7,20(sp)
 1429f2c:	14288940 	call	1428894 <__mulsi3>
 1429f30:	900b883a 	mov	r5,r18
 1429f34:	e009883a 	mov	r4,fp
 1429f38:	102b883a 	mov	r21,r2
 1429f3c:	14288940 	call	1428894 <__mulsi3>
 1429f40:	900b883a 	mov	r5,r18
 1429f44:	b809883a 	mov	r4,r23
 1429f48:	1039883a 	mov	fp,r2
 1429f4c:	14288940 	call	1428894 <__mulsi3>
 1429f50:	d9c00517 	ldw	r7,20(sp)
 1429f54:	b80b883a 	mov	r5,r23
 1429f58:	1025883a 	mov	r18,r2
 1429f5c:	3809883a 	mov	r4,r7
 1429f60:	14288940 	call	1428894 <__mulsi3>
 1429f64:	a808d43a 	srli	r4,r21,16
 1429f68:	1705883a 	add	r2,r2,fp
 1429f6c:	d8c00217 	ldw	r3,8(sp)
 1429f70:	2085883a 	add	r2,r4,r2
 1429f74:	1700022e 	bgeu	r2,fp,1429f80 <__divdf3+0x630>
 1429f78:	01000074 	movhi	r4,1
 1429f7c:	9125883a 	add	r18,r18,r4
 1429f80:	1008d43a 	srli	r4,r2,16
 1429f84:	1004943a 	slli	r2,r2,16
 1429f88:	ad7fffcc 	andi	r21,r21,65535
 1429f8c:	2489883a 	add	r4,r4,r18
 1429f90:	1545883a 	add	r2,r2,r21
 1429f94:	81003836 	bltu	r16,r4,142a078 <__divdf3+0x728>
 1429f98:	81003626 	beq	r16,r4,142a074 <__divdf3+0x724>
 1429f9c:	a5000054 	ori	r20,r20,1
 1429fa0:	1880ffc4 	addi	r2,r3,1023
 1429fa4:	00bf2e0e 	bge	zero,r2,1429c60 <__alt_data_end+0xfffe9c60>
 1429fa8:	a10001cc 	andi	r4,r20,7
 1429fac:	20000726 	beq	r4,zero,1429fcc <__divdf3+0x67c>
 1429fb0:	a10003cc 	andi	r4,r20,15
 1429fb4:	01400104 	movi	r5,4
 1429fb8:	21400426 	beq	r4,r5,1429fcc <__divdf3+0x67c>
 1429fbc:	a149883a 	add	r4,r20,r5
 1429fc0:	2529803a 	cmpltu	r20,r4,r20
 1429fc4:	8d23883a 	add	r17,r17,r20
 1429fc8:	2029883a 	mov	r20,r4
 1429fcc:	8900402c 	andhi	r4,r17,256
 1429fd0:	20000426 	beq	r4,zero,1429fe4 <__divdf3+0x694>
 1429fd4:	18810004 	addi	r2,r3,1024
 1429fd8:	00ffc034 	movhi	r3,65280
 1429fdc:	18ffffc4 	addi	r3,r3,-1
 1429fe0:	88e2703a 	and	r17,r17,r3
 1429fe4:	00c1ff84 	movi	r3,2046
 1429fe8:	18beb416 	blt	r3,r2,1429abc <__alt_data_end+0xfffe9abc>
 1429fec:	a028d0fa 	srli	r20,r20,3
 1429ff0:	882a977a 	slli	r21,r17,29
 1429ff4:	8820927a 	slli	r16,r17,9
 1429ff8:	1081ffcc 	andi	r2,r2,2047
 1429ffc:	ad2ab03a 	or	r21,r21,r20
 142a000:	8020d33a 	srli	r16,r16,12
 142a004:	9900004c 	andi	r4,r19,1
 142a008:	003eb006 	br	1429acc <__alt_data_end+0xfffe9acc>
 142a00c:	8080022c 	andhi	r2,r16,8
 142a010:	10001226 	beq	r2,zero,142a05c <__divdf3+0x70c>
 142a014:	8880022c 	andhi	r2,r17,8
 142a018:	1000101e 	bne	r2,zero,142a05c <__divdf3+0x70c>
 142a01c:	00800434 	movhi	r2,16
 142a020:	8c000234 	orhi	r16,r17,8
 142a024:	10bfffc4 	addi	r2,r2,-1
 142a028:	b809883a 	mov	r4,r23
 142a02c:	80a0703a 	and	r16,r16,r2
 142a030:	a02b883a 	mov	r21,r20
 142a034:	003f0806 	br	1429c58 <__alt_data_end+0xfffe9c58>
 142a038:	008000c4 	movi	r2,3
 142a03c:	3880b126 	beq	r7,r2,142a304 <__divdf3+0x9b4>
 142a040:	00800044 	movi	r2,1
 142a044:	38805b1e 	bne	r7,r2,142a1b4 <__divdf3+0x864>
 142a048:	e009883a 	mov	r4,fp
 142a04c:	0005883a 	mov	r2,zero
 142a050:	0021883a 	mov	r16,zero
 142a054:	002b883a 	mov	r21,zero
 142a058:	003e9c06 	br	1429acc <__alt_data_end+0xfffe9acc>
 142a05c:	00800434 	movhi	r2,16
 142a060:	84000234 	orhi	r16,r16,8
 142a064:	10bfffc4 	addi	r2,r2,-1
 142a068:	b009883a 	mov	r4,r22
 142a06c:	80a0703a 	and	r16,r16,r2
 142a070:	003ef906 	br	1429c58 <__alt_data_end+0xfffe9c58>
 142a074:	103fca26 	beq	r2,zero,1429fa0 <__alt_data_end+0xfffe9fa0>
 142a078:	b421883a 	add	r16,r22,r16
 142a07c:	a17fffc4 	addi	r5,r20,-1
 142a080:	8580422e 	bgeu	r16,r22,142a18c <__divdf3+0x83c>
 142a084:	2829883a 	mov	r20,r5
 142a088:	813fc41e 	bne	r16,r4,1429f9c <__alt_data_end+0xfffe9f9c>
 142a08c:	d9800017 	ldw	r6,0(sp)
 142a090:	30bfc21e 	bne	r6,r2,1429f9c <__alt_data_end+0xfffe9f9c>
 142a094:	003fc206 	br	1429fa0 <__alt_data_end+0xfffe9fa0>
 142a098:	143ff604 	addi	r16,r2,-40
 142a09c:	8c20983a 	sll	r16,r17,r16
 142a0a0:	002b883a 	mov	r21,zero
 142a0a4:	003eb406 	br	1429b78 <__alt_data_end+0xfffe9b78>
 142a0a8:	d9800215 	stw	r6,8(sp)
 142a0ac:	d9c00515 	stw	r7,20(sp)
 142a0b0:	da000415 	stw	r8,16(sp)
 142a0b4:	142be040 	call	142be04 <__clzsi2>
 142a0b8:	10800804 	addi	r2,r2,32
 142a0bc:	da000417 	ldw	r8,16(sp)
 142a0c0:	d9c00517 	ldw	r7,20(sp)
 142a0c4:	d9800217 	ldw	r6,8(sp)
 142a0c8:	003ea106 	br	1429b50 <__alt_data_end+0xfffe9b50>
 142a0cc:	147ff604 	addi	r17,r2,-40
 142a0d0:	3462983a 	sll	r17,r6,r17
 142a0d4:	0029883a 	mov	r20,zero
 142a0d8:	003ec906 	br	1429c00 <__alt_data_end+0xfffe9c00>
 142a0dc:	3009883a 	mov	r4,r6
 142a0e0:	d9400115 	stw	r5,4(sp)
 142a0e4:	d9800215 	stw	r6,8(sp)
 142a0e8:	da000415 	stw	r8,16(sp)
 142a0ec:	da400315 	stw	r9,12(sp)
 142a0f0:	142be040 	call	142be04 <__clzsi2>
 142a0f4:	10800804 	addi	r2,r2,32
 142a0f8:	da400317 	ldw	r9,12(sp)
 142a0fc:	da000417 	ldw	r8,16(sp)
 142a100:	d9800217 	ldw	r6,8(sp)
 142a104:	d9400117 	ldw	r5,4(sp)
 142a108:	003eb306 	br	1429bd8 <__alt_data_end+0xfffe9bd8>
 142a10c:	d9800017 	ldw	r6,0(sp)
 142a110:	a9ab883a 	add	r21,r21,r6
 142a114:	a98b803a 	cmpltu	r5,r21,r6
 142a118:	2d8b883a 	add	r5,r5,r22
 142a11c:	2a11883a 	add	r8,r5,r8
 142a120:	897fffc4 	addi	r5,r17,-1
 142a124:	b2000c2e 	bgeu	r22,r8,142a158 <__divdf3+0x808>
 142a128:	41003f36 	bltu	r8,r4,142a228 <__divdf3+0x8d8>
 142a12c:	22006c26 	beq	r4,r8,142a2e0 <__divdf3+0x990>
 142a130:	4109c83a 	sub	r4,r8,r4
 142a134:	2823883a 	mov	r17,r5
 142a138:	003f3b06 	br	1429e28 <__alt_data_end+0xfffe9e28>
 142a13c:	ad3ed336 	bltu	r21,r20,1429c8c <__alt_data_end+0xfffe9c8c>
 142a140:	a804d07a 	srli	r2,r21,1
 142a144:	802e97fa 	slli	r23,r16,31
 142a148:	a82a97fa 	slli	r21,r21,31
 142a14c:	8020d07a 	srli	r16,r16,1
 142a150:	b8aeb03a 	or	r23,r23,r2
 142a154:	003ed006 	br	1429c98 <__alt_data_end+0xfffe9c98>
 142a158:	b23ff51e 	bne	r22,r8,142a130 <__alt_data_end+0xfffea130>
 142a15c:	d9800017 	ldw	r6,0(sp)
 142a160:	a9bff12e 	bgeu	r21,r6,142a128 <__alt_data_end+0xfffea128>
 142a164:	b109c83a 	sub	r4,r22,r4
 142a168:	2823883a 	mov	r17,r5
 142a16c:	003f2e06 	br	1429e28 <__alt_data_end+0xfffe9e28>
 142a170:	2021883a 	mov	r16,r4
 142a174:	003eff06 	br	1429d74 <__alt_data_end+0xfffe9d74>
 142a178:	2023883a 	mov	r17,r4
 142a17c:	003ee406 	br	1429d10 <__alt_data_end+0xfffe9d10>
 142a180:	a8bfe236 	bltu	r21,r2,142a10c <__alt_data_end+0xfffea10c>
 142a184:	0009883a 	mov	r4,zero
 142a188:	003f2706 	br	1429e28 <__alt_data_end+0xfffe9e28>
 142a18c:	81002d36 	bltu	r16,r4,142a244 <__divdf3+0x8f4>
 142a190:	24005626 	beq	r4,r16,142a2ec <__divdf3+0x99c>
 142a194:	2829883a 	mov	r20,r5
 142a198:	003f8006 	br	1429f9c <__alt_data_end+0xfffe9f9c>
 142a19c:	053fffc4 	movi	r20,-1
 142a1a0:	003f7f06 	br	1429fa0 <__alt_data_end+0xfffe9fa0>
 142a1a4:	200f883a 	mov	r7,r4
 142a1a8:	003f3c06 	br	1429e9c <__alt_data_end+0xfffe9e9c>
 142a1ac:	1011883a 	mov	r8,r2
 142a1b0:	003f5506 	br	1429f08 <__alt_data_end+0xfffe9f08>
 142a1b4:	e027883a 	mov	r19,fp
 142a1b8:	003f7906 	br	1429fa0 <__alt_data_end+0xfffe9fa0>
 142a1bc:	010007c4 	movi	r4,31
 142a1c0:	20c02816 	blt	r4,r3,142a264 <__divdf3+0x914>
 142a1c4:	00800804 	movi	r2,32
 142a1c8:	10c5c83a 	sub	r2,r2,r3
 142a1cc:	888a983a 	sll	r5,r17,r2
 142a1d0:	a0c8d83a 	srl	r4,r20,r3
 142a1d4:	a084983a 	sll	r2,r20,r2
 142a1d8:	88e2d83a 	srl	r17,r17,r3
 142a1dc:	2906b03a 	or	r3,r5,r4
 142a1e0:	1004c03a 	cmpne	r2,r2,zero
 142a1e4:	1886b03a 	or	r3,r3,r2
 142a1e8:	188001cc 	andi	r2,r3,7
 142a1ec:	10000726 	beq	r2,zero,142a20c <__divdf3+0x8bc>
 142a1f0:	188003cc 	andi	r2,r3,15
 142a1f4:	01000104 	movi	r4,4
 142a1f8:	11000426 	beq	r2,r4,142a20c <__divdf3+0x8bc>
 142a1fc:	1805883a 	mov	r2,r3
 142a200:	10c00104 	addi	r3,r2,4
 142a204:	1885803a 	cmpltu	r2,r3,r2
 142a208:	88a3883a 	add	r17,r17,r2
 142a20c:	8880202c 	andhi	r2,r17,128
 142a210:	10002926 	beq	r2,zero,142a2b8 <__divdf3+0x968>
 142a214:	9900004c 	andi	r4,r19,1
 142a218:	00800044 	movi	r2,1
 142a21c:	0021883a 	mov	r16,zero
 142a220:	002b883a 	mov	r21,zero
 142a224:	003e2906 	br	1429acc <__alt_data_end+0xfffe9acc>
 142a228:	d9800017 	ldw	r6,0(sp)
 142a22c:	8c7fff84 	addi	r17,r17,-2
 142a230:	a9ab883a 	add	r21,r21,r6
 142a234:	a98b803a 	cmpltu	r5,r21,r6
 142a238:	2d8b883a 	add	r5,r5,r22
 142a23c:	2a11883a 	add	r8,r5,r8
 142a240:	003ef806 	br	1429e24 <__alt_data_end+0xfffe9e24>
 142a244:	d9800017 	ldw	r6,0(sp)
 142a248:	318f883a 	add	r7,r6,r6
 142a24c:	398b803a 	cmpltu	r5,r7,r6
 142a250:	2d8d883a 	add	r6,r5,r22
 142a254:	81a1883a 	add	r16,r16,r6
 142a258:	a17fff84 	addi	r5,r20,-2
 142a25c:	d9c00015 	stw	r7,0(sp)
 142a260:	003f8806 	br	142a084 <__alt_data_end+0xfffea084>
 142a264:	013ff844 	movi	r4,-31
 142a268:	2085c83a 	sub	r2,r4,r2
 142a26c:	8888d83a 	srl	r4,r17,r2
 142a270:	00800804 	movi	r2,32
 142a274:	18802126 	beq	r3,r2,142a2fc <__divdf3+0x9ac>
 142a278:	04001004 	movi	r16,64
 142a27c:	80c7c83a 	sub	r3,r16,r3
 142a280:	88e0983a 	sll	r16,r17,r3
 142a284:	8504b03a 	or	r2,r16,r20
 142a288:	1004c03a 	cmpne	r2,r2,zero
 142a28c:	2084b03a 	or	r2,r4,r2
 142a290:	144001cc 	andi	r17,r2,7
 142a294:	88000d1e 	bne	r17,zero,142a2cc <__divdf3+0x97c>
 142a298:	0021883a 	mov	r16,zero
 142a29c:	102ad0fa 	srli	r21,r2,3
 142a2a0:	9900004c 	andi	r4,r19,1
 142a2a4:	0005883a 	mov	r2,zero
 142a2a8:	ac6ab03a 	or	r21,r21,r17
 142a2ac:	003e0706 	br	1429acc <__alt_data_end+0xfffe9acc>
 142a2b0:	1007883a 	mov	r3,r2
 142a2b4:	0023883a 	mov	r17,zero
 142a2b8:	8820927a 	slli	r16,r17,9
 142a2bc:	1805883a 	mov	r2,r3
 142a2c0:	8822977a 	slli	r17,r17,29
 142a2c4:	8020d33a 	srli	r16,r16,12
 142a2c8:	003ff406 	br	142a29c <__alt_data_end+0xfffea29c>
 142a2cc:	10c003cc 	andi	r3,r2,15
 142a2d0:	01000104 	movi	r4,4
 142a2d4:	193ff626 	beq	r3,r4,142a2b0 <__alt_data_end+0xfffea2b0>
 142a2d8:	0023883a 	mov	r17,zero
 142a2dc:	003fc806 	br	142a200 <__alt_data_end+0xfffea200>
 142a2e0:	a8bfd136 	bltu	r21,r2,142a228 <__alt_data_end+0xfffea228>
 142a2e4:	2823883a 	mov	r17,r5
 142a2e8:	003fa606 	br	142a184 <__alt_data_end+0xfffea184>
 142a2ec:	d9800017 	ldw	r6,0(sp)
 142a2f0:	30bfd436 	bltu	r6,r2,142a244 <__alt_data_end+0xfffea244>
 142a2f4:	2829883a 	mov	r20,r5
 142a2f8:	003f6406 	br	142a08c <__alt_data_end+0xfffea08c>
 142a2fc:	0021883a 	mov	r16,zero
 142a300:	003fe006 	br	142a284 <__alt_data_end+0xfffea284>
 142a304:	00800434 	movhi	r2,16
 142a308:	8c000234 	orhi	r16,r17,8
 142a30c:	10bfffc4 	addi	r2,r2,-1
 142a310:	e009883a 	mov	r4,fp
 142a314:	80a0703a 	and	r16,r16,r2
 142a318:	a02b883a 	mov	r21,r20
 142a31c:	003e4e06 	br	1429c58 <__alt_data_end+0xfffe9c58>

0142a320 <__eqdf2>:
 142a320:	2804d53a 	srli	r2,r5,20
 142a324:	3806d53a 	srli	r3,r7,20
 142a328:	02000434 	movhi	r8,16
 142a32c:	423fffc4 	addi	r8,r8,-1
 142a330:	1081ffcc 	andi	r2,r2,2047
 142a334:	0281ffc4 	movi	r10,2047
 142a338:	2a12703a 	and	r9,r5,r8
 142a33c:	18c1ffcc 	andi	r3,r3,2047
 142a340:	3a10703a 	and	r8,r7,r8
 142a344:	280ad7fa 	srli	r5,r5,31
 142a348:	380ed7fa 	srli	r7,r7,31
 142a34c:	12801026 	beq	r2,r10,142a390 <__eqdf2+0x70>
 142a350:	0281ffc4 	movi	r10,2047
 142a354:	1a800a26 	beq	r3,r10,142a380 <__eqdf2+0x60>
 142a358:	10c00226 	beq	r2,r3,142a364 <__eqdf2+0x44>
 142a35c:	00800044 	movi	r2,1
 142a360:	f800283a 	ret
 142a364:	4a3ffd1e 	bne	r9,r8,142a35c <__alt_data_end+0xfffea35c>
 142a368:	21bffc1e 	bne	r4,r6,142a35c <__alt_data_end+0xfffea35c>
 142a36c:	29c00c26 	beq	r5,r7,142a3a0 <__eqdf2+0x80>
 142a370:	103ffa1e 	bne	r2,zero,142a35c <__alt_data_end+0xfffea35c>
 142a374:	2244b03a 	or	r2,r4,r9
 142a378:	1004c03a 	cmpne	r2,r2,zero
 142a37c:	f800283a 	ret
 142a380:	3214b03a 	or	r10,r6,r8
 142a384:	503ff426 	beq	r10,zero,142a358 <__alt_data_end+0xfffea358>
 142a388:	00800044 	movi	r2,1
 142a38c:	f800283a 	ret
 142a390:	2254b03a 	or	r10,r4,r9
 142a394:	503fee26 	beq	r10,zero,142a350 <__alt_data_end+0xfffea350>
 142a398:	00800044 	movi	r2,1
 142a39c:	f800283a 	ret
 142a3a0:	0005883a 	mov	r2,zero
 142a3a4:	f800283a 	ret

0142a3a8 <__gedf2>:
 142a3a8:	2804d53a 	srli	r2,r5,20
 142a3ac:	3806d53a 	srli	r3,r7,20
 142a3b0:	02000434 	movhi	r8,16
 142a3b4:	423fffc4 	addi	r8,r8,-1
 142a3b8:	1081ffcc 	andi	r2,r2,2047
 142a3bc:	0241ffc4 	movi	r9,2047
 142a3c0:	2a14703a 	and	r10,r5,r8
 142a3c4:	18c1ffcc 	andi	r3,r3,2047
 142a3c8:	3a10703a 	and	r8,r7,r8
 142a3cc:	280ad7fa 	srli	r5,r5,31
 142a3d0:	380ed7fa 	srli	r7,r7,31
 142a3d4:	12401d26 	beq	r2,r9,142a44c <__gedf2+0xa4>
 142a3d8:	0241ffc4 	movi	r9,2047
 142a3dc:	1a401226 	beq	r3,r9,142a428 <__gedf2+0x80>
 142a3e0:	1000081e 	bne	r2,zero,142a404 <__gedf2+0x5c>
 142a3e4:	2296b03a 	or	r11,r4,r10
 142a3e8:	5813003a 	cmpeq	r9,r11,zero
 142a3ec:	1800091e 	bne	r3,zero,142a414 <__gedf2+0x6c>
 142a3f0:	3218b03a 	or	r12,r6,r8
 142a3f4:	6000071e 	bne	r12,zero,142a414 <__gedf2+0x6c>
 142a3f8:	0005883a 	mov	r2,zero
 142a3fc:	5800101e 	bne	r11,zero,142a440 <__gedf2+0x98>
 142a400:	f800283a 	ret
 142a404:	18000c1e 	bne	r3,zero,142a438 <__gedf2+0x90>
 142a408:	3212b03a 	or	r9,r6,r8
 142a40c:	48000c26 	beq	r9,zero,142a440 <__gedf2+0x98>
 142a410:	0013883a 	mov	r9,zero
 142a414:	39c03fcc 	andi	r7,r7,255
 142a418:	48000826 	beq	r9,zero,142a43c <__gedf2+0x94>
 142a41c:	38000926 	beq	r7,zero,142a444 <__gedf2+0x9c>
 142a420:	00800044 	movi	r2,1
 142a424:	f800283a 	ret
 142a428:	3212b03a 	or	r9,r6,r8
 142a42c:	483fec26 	beq	r9,zero,142a3e0 <__alt_data_end+0xfffea3e0>
 142a430:	00bfff84 	movi	r2,-2
 142a434:	f800283a 	ret
 142a438:	39c03fcc 	andi	r7,r7,255
 142a43c:	29c00626 	beq	r5,r7,142a458 <__gedf2+0xb0>
 142a440:	283ff726 	beq	r5,zero,142a420 <__alt_data_end+0xfffea420>
 142a444:	00bfffc4 	movi	r2,-1
 142a448:	f800283a 	ret
 142a44c:	2292b03a 	or	r9,r4,r10
 142a450:	483fe126 	beq	r9,zero,142a3d8 <__alt_data_end+0xfffea3d8>
 142a454:	003ff606 	br	142a430 <__alt_data_end+0xfffea430>
 142a458:	18bff916 	blt	r3,r2,142a440 <__alt_data_end+0xfffea440>
 142a45c:	10c00316 	blt	r2,r3,142a46c <__gedf2+0xc4>
 142a460:	42bff736 	bltu	r8,r10,142a440 <__alt_data_end+0xfffea440>
 142a464:	52000326 	beq	r10,r8,142a474 <__gedf2+0xcc>
 142a468:	5200042e 	bgeu	r10,r8,142a47c <__gedf2+0xd4>
 142a46c:	283fec1e 	bne	r5,zero,142a420 <__alt_data_end+0xfffea420>
 142a470:	003ff406 	br	142a444 <__alt_data_end+0xfffea444>
 142a474:	313ff236 	bltu	r6,r4,142a440 <__alt_data_end+0xfffea440>
 142a478:	21bffc36 	bltu	r4,r6,142a46c <__alt_data_end+0xfffea46c>
 142a47c:	0005883a 	mov	r2,zero
 142a480:	f800283a 	ret

0142a484 <__ledf2>:
 142a484:	2804d53a 	srli	r2,r5,20
 142a488:	3810d53a 	srli	r8,r7,20
 142a48c:	00c00434 	movhi	r3,16
 142a490:	18ffffc4 	addi	r3,r3,-1
 142a494:	1081ffcc 	andi	r2,r2,2047
 142a498:	0241ffc4 	movi	r9,2047
 142a49c:	28d4703a 	and	r10,r5,r3
 142a4a0:	4201ffcc 	andi	r8,r8,2047
 142a4a4:	38c6703a 	and	r3,r7,r3
 142a4a8:	280ad7fa 	srli	r5,r5,31
 142a4ac:	380ed7fa 	srli	r7,r7,31
 142a4b0:	12401f26 	beq	r2,r9,142a530 <__ledf2+0xac>
 142a4b4:	0241ffc4 	movi	r9,2047
 142a4b8:	42401426 	beq	r8,r9,142a50c <__ledf2+0x88>
 142a4bc:	1000091e 	bne	r2,zero,142a4e4 <__ledf2+0x60>
 142a4c0:	2296b03a 	or	r11,r4,r10
 142a4c4:	5813003a 	cmpeq	r9,r11,zero
 142a4c8:	29403fcc 	andi	r5,r5,255
 142a4cc:	40000a1e 	bne	r8,zero,142a4f8 <__ledf2+0x74>
 142a4d0:	30d8b03a 	or	r12,r6,r3
 142a4d4:	6000081e 	bne	r12,zero,142a4f8 <__ledf2+0x74>
 142a4d8:	0005883a 	mov	r2,zero
 142a4dc:	5800111e 	bne	r11,zero,142a524 <__ledf2+0xa0>
 142a4e0:	f800283a 	ret
 142a4e4:	29403fcc 	andi	r5,r5,255
 142a4e8:	40000c1e 	bne	r8,zero,142a51c <__ledf2+0x98>
 142a4ec:	30d2b03a 	or	r9,r6,r3
 142a4f0:	48000c26 	beq	r9,zero,142a524 <__ledf2+0xa0>
 142a4f4:	0013883a 	mov	r9,zero
 142a4f8:	39c03fcc 	andi	r7,r7,255
 142a4fc:	48000826 	beq	r9,zero,142a520 <__ledf2+0x9c>
 142a500:	38001126 	beq	r7,zero,142a548 <__ledf2+0xc4>
 142a504:	00800044 	movi	r2,1
 142a508:	f800283a 	ret
 142a50c:	30d2b03a 	or	r9,r6,r3
 142a510:	483fea26 	beq	r9,zero,142a4bc <__alt_data_end+0xfffea4bc>
 142a514:	00800084 	movi	r2,2
 142a518:	f800283a 	ret
 142a51c:	39c03fcc 	andi	r7,r7,255
 142a520:	39400726 	beq	r7,r5,142a540 <__ledf2+0xbc>
 142a524:	2800081e 	bne	r5,zero,142a548 <__ledf2+0xc4>
 142a528:	00800044 	movi	r2,1
 142a52c:	f800283a 	ret
 142a530:	2292b03a 	or	r9,r4,r10
 142a534:	483fdf26 	beq	r9,zero,142a4b4 <__alt_data_end+0xfffea4b4>
 142a538:	00800084 	movi	r2,2
 142a53c:	f800283a 	ret
 142a540:	4080030e 	bge	r8,r2,142a550 <__ledf2+0xcc>
 142a544:	383fef26 	beq	r7,zero,142a504 <__alt_data_end+0xfffea504>
 142a548:	00bfffc4 	movi	r2,-1
 142a54c:	f800283a 	ret
 142a550:	123feb16 	blt	r2,r8,142a500 <__alt_data_end+0xfffea500>
 142a554:	1abff336 	bltu	r3,r10,142a524 <__alt_data_end+0xfffea524>
 142a558:	50c00326 	beq	r10,r3,142a568 <__ledf2+0xe4>
 142a55c:	50c0042e 	bgeu	r10,r3,142a570 <__ledf2+0xec>
 142a560:	283fe81e 	bne	r5,zero,142a504 <__alt_data_end+0xfffea504>
 142a564:	003ff806 	br	142a548 <__alt_data_end+0xfffea548>
 142a568:	313fee36 	bltu	r6,r4,142a524 <__alt_data_end+0xfffea524>
 142a56c:	21bffc36 	bltu	r4,r6,142a560 <__alt_data_end+0xfffea560>
 142a570:	0005883a 	mov	r2,zero
 142a574:	f800283a 	ret

0142a578 <__muldf3>:
 142a578:	deffee04 	addi	sp,sp,-72
 142a57c:	dd000c15 	stw	r20,48(sp)
 142a580:	2828d53a 	srli	r20,r5,20
 142a584:	ddc00f15 	stw	r23,60(sp)
 142a588:	282ed7fa 	srli	r23,r5,31
 142a58c:	dc000815 	stw	r16,32(sp)
 142a590:	04000434 	movhi	r16,16
 142a594:	dcc00b15 	stw	r19,44(sp)
 142a598:	843fffc4 	addi	r16,r16,-1
 142a59c:	dfc01115 	stw	ra,68(sp)
 142a5a0:	df001015 	stw	fp,64(sp)
 142a5a4:	dd800e15 	stw	r22,56(sp)
 142a5a8:	dd400d15 	stw	r21,52(sp)
 142a5ac:	dc800a15 	stw	r18,40(sp)
 142a5b0:	dc400915 	stw	r17,36(sp)
 142a5b4:	a501ffcc 	andi	r20,r20,2047
 142a5b8:	2c20703a 	and	r16,r5,r16
 142a5bc:	b827883a 	mov	r19,r23
 142a5c0:	ba403fcc 	andi	r9,r23,255
 142a5c4:	a0006026 	beq	r20,zero,142a748 <__muldf3+0x1d0>
 142a5c8:	0081ffc4 	movi	r2,2047
 142a5cc:	202d883a 	mov	r22,r4
 142a5d0:	a0803626 	beq	r20,r2,142a6ac <__muldf3+0x134>
 142a5d4:	84000434 	orhi	r16,r16,16
 142a5d8:	200ad77a 	srli	r5,r4,29
 142a5dc:	800490fa 	slli	r2,r16,3
 142a5e0:	202c90fa 	slli	r22,r4,3
 142a5e4:	a53f0044 	addi	r20,r20,-1023
 142a5e8:	28a0b03a 	or	r16,r5,r2
 142a5ec:	002b883a 	mov	r21,zero
 142a5f0:	000b883a 	mov	r5,zero
 142a5f4:	3804d53a 	srli	r2,r7,20
 142a5f8:	3838d7fa 	srli	fp,r7,31
 142a5fc:	04400434 	movhi	r17,16
 142a600:	8c7fffc4 	addi	r17,r17,-1
 142a604:	1081ffcc 	andi	r2,r2,2047
 142a608:	3025883a 	mov	r18,r6
 142a60c:	3c62703a 	and	r17,r7,r17
 142a610:	e2803fcc 	andi	r10,fp,255
 142a614:	10006d26 	beq	r2,zero,142a7cc <__muldf3+0x254>
 142a618:	00c1ffc4 	movi	r3,2047
 142a61c:	10c06526 	beq	r2,r3,142a7b4 <__muldf3+0x23c>
 142a620:	8c400434 	orhi	r17,r17,16
 142a624:	300ed77a 	srli	r7,r6,29
 142a628:	880690fa 	slli	r3,r17,3
 142a62c:	302490fa 	slli	r18,r6,3
 142a630:	10bf0044 	addi	r2,r2,-1023
 142a634:	38e2b03a 	or	r17,r7,r3
 142a638:	000f883a 	mov	r7,zero
 142a63c:	a087883a 	add	r3,r20,r2
 142a640:	010003c4 	movi	r4,15
 142a644:	3d44b03a 	or	r2,r7,r21
 142a648:	e5ccf03a 	xor	r6,fp,r23
 142a64c:	1a000044 	addi	r8,r3,1
 142a650:	20809b36 	bltu	r4,r2,142a8c0 <__muldf3+0x348>
 142a654:	100490ba 	slli	r2,r2,2
 142a658:	010050f4 	movhi	r4,323
 142a65c:	21299b04 	addi	r4,r4,-22932
 142a660:	1105883a 	add	r2,r2,r4
 142a664:	10800017 	ldw	r2,0(r2)
 142a668:	1000683a 	jmp	r2
 142a66c:	0142a8c0 	call	142a8c <__alt_mem_onchip_flash_0_data-0x10bd574>
 142a670:	0142a6cc 	andi	r5,zero,2715
 142a674:	0142a6cc 	andi	r5,zero,2715
 142a678:	0142a6c8 	cmpgei	r5,zero,2715
 142a67c:	0142a89c 	xori	r5,zero,2722
 142a680:	0142a89c 	xori	r5,zero,2722
 142a684:	0142a884 	movi	r5,2722
 142a688:	0142a6c8 	cmpgei	r5,zero,2715
 142a68c:	0142a89c 	xori	r5,zero,2722
 142a690:	0142a884 	movi	r5,2722
 142a694:	0142a89c 	xori	r5,zero,2722
 142a698:	0142a6c8 	cmpgei	r5,zero,2715
 142a69c:	0142a8ac 	andhi	r5,zero,2722
 142a6a0:	0142a8ac 	andhi	r5,zero,2722
 142a6a4:	0142a8ac 	andhi	r5,zero,2722
 142a6a8:	0142ac0c 	andi	r5,zero,2736
 142a6ac:	2404b03a 	or	r2,r4,r16
 142a6b0:	1000711e 	bne	r2,zero,142a878 <__muldf3+0x300>
 142a6b4:	05400204 	movi	r21,8
 142a6b8:	0021883a 	mov	r16,zero
 142a6bc:	002d883a 	mov	r22,zero
 142a6c0:	01400084 	movi	r5,2
 142a6c4:	003fcb06 	br	142a5f4 <__alt_data_end+0xfffea5f4>
 142a6c8:	500d883a 	mov	r6,r10
 142a6cc:	00800084 	movi	r2,2
 142a6d0:	38805926 	beq	r7,r2,142a838 <__muldf3+0x2c0>
 142a6d4:	008000c4 	movi	r2,3
 142a6d8:	3881bb26 	beq	r7,r2,142adc8 <__muldf3+0x850>
 142a6dc:	00800044 	movi	r2,1
 142a6e0:	3881961e 	bne	r7,r2,142ad3c <__muldf3+0x7c4>
 142a6e4:	3027883a 	mov	r19,r6
 142a6e8:	0005883a 	mov	r2,zero
 142a6ec:	0021883a 	mov	r16,zero
 142a6f0:	002d883a 	mov	r22,zero
 142a6f4:	1004953a 	slli	r2,r2,20
 142a6f8:	98c03fcc 	andi	r3,r19,255
 142a6fc:	04400434 	movhi	r17,16
 142a700:	8c7fffc4 	addi	r17,r17,-1
 142a704:	180697fa 	slli	r3,r3,31
 142a708:	8460703a 	and	r16,r16,r17
 142a70c:	80a0b03a 	or	r16,r16,r2
 142a710:	80c6b03a 	or	r3,r16,r3
 142a714:	b005883a 	mov	r2,r22
 142a718:	dfc01117 	ldw	ra,68(sp)
 142a71c:	df001017 	ldw	fp,64(sp)
 142a720:	ddc00f17 	ldw	r23,60(sp)
 142a724:	dd800e17 	ldw	r22,56(sp)
 142a728:	dd400d17 	ldw	r21,52(sp)
 142a72c:	dd000c17 	ldw	r20,48(sp)
 142a730:	dcc00b17 	ldw	r19,44(sp)
 142a734:	dc800a17 	ldw	r18,40(sp)
 142a738:	dc400917 	ldw	r17,36(sp)
 142a73c:	dc000817 	ldw	r16,32(sp)
 142a740:	dec01204 	addi	sp,sp,72
 142a744:	f800283a 	ret
 142a748:	2404b03a 	or	r2,r4,r16
 142a74c:	202b883a 	mov	r21,r4
 142a750:	10004426 	beq	r2,zero,142a864 <__muldf3+0x2ec>
 142a754:	80015126 	beq	r16,zero,142ac9c <__muldf3+0x724>
 142a758:	8009883a 	mov	r4,r16
 142a75c:	d9800715 	stw	r6,28(sp)
 142a760:	d9c00215 	stw	r7,8(sp)
 142a764:	da400415 	stw	r9,16(sp)
 142a768:	142be040 	call	142be04 <__clzsi2>
 142a76c:	d9800717 	ldw	r6,28(sp)
 142a770:	d9c00217 	ldw	r7,8(sp)
 142a774:	da400417 	ldw	r9,16(sp)
 142a778:	113ffd44 	addi	r4,r2,-11
 142a77c:	00c00704 	movi	r3,28
 142a780:	19014216 	blt	r3,r4,142ac8c <__muldf3+0x714>
 142a784:	00c00744 	movi	r3,29
 142a788:	15bffe04 	addi	r22,r2,-8
 142a78c:	1907c83a 	sub	r3,r3,r4
 142a790:	85a0983a 	sll	r16,r16,r22
 142a794:	a8c6d83a 	srl	r3,r21,r3
 142a798:	adac983a 	sll	r22,r21,r22
 142a79c:	1c20b03a 	or	r16,r3,r16
 142a7a0:	1080fcc4 	addi	r2,r2,1011
 142a7a4:	00a9c83a 	sub	r20,zero,r2
 142a7a8:	002b883a 	mov	r21,zero
 142a7ac:	000b883a 	mov	r5,zero
 142a7b0:	003f9006 	br	142a5f4 <__alt_data_end+0xfffea5f4>
 142a7b4:	3446b03a 	or	r3,r6,r17
 142a7b8:	1800281e 	bne	r3,zero,142a85c <__muldf3+0x2e4>
 142a7bc:	0023883a 	mov	r17,zero
 142a7c0:	0025883a 	mov	r18,zero
 142a7c4:	01c00084 	movi	r7,2
 142a7c8:	003f9c06 	br	142a63c <__alt_data_end+0xfffea63c>
 142a7cc:	3446b03a 	or	r3,r6,r17
 142a7d0:	18001e26 	beq	r3,zero,142a84c <__muldf3+0x2d4>
 142a7d4:	88012126 	beq	r17,zero,142ac5c <__muldf3+0x6e4>
 142a7d8:	8809883a 	mov	r4,r17
 142a7dc:	d9400215 	stw	r5,8(sp)
 142a7e0:	d9800715 	stw	r6,28(sp)
 142a7e4:	da400415 	stw	r9,16(sp)
 142a7e8:	da800315 	stw	r10,12(sp)
 142a7ec:	142be040 	call	142be04 <__clzsi2>
 142a7f0:	d9400217 	ldw	r5,8(sp)
 142a7f4:	d9800717 	ldw	r6,28(sp)
 142a7f8:	da400417 	ldw	r9,16(sp)
 142a7fc:	da800317 	ldw	r10,12(sp)
 142a800:	113ffd44 	addi	r4,r2,-11
 142a804:	00c00704 	movi	r3,28
 142a808:	19011016 	blt	r3,r4,142ac4c <__muldf3+0x6d4>
 142a80c:	00c00744 	movi	r3,29
 142a810:	14bffe04 	addi	r18,r2,-8
 142a814:	1907c83a 	sub	r3,r3,r4
 142a818:	8ca2983a 	sll	r17,r17,r18
 142a81c:	30c6d83a 	srl	r3,r6,r3
 142a820:	34a4983a 	sll	r18,r6,r18
 142a824:	1c62b03a 	or	r17,r3,r17
 142a828:	1080fcc4 	addi	r2,r2,1011
 142a82c:	0085c83a 	sub	r2,zero,r2
 142a830:	000f883a 	mov	r7,zero
 142a834:	003f8106 	br	142a63c <__alt_data_end+0xfffea63c>
 142a838:	3027883a 	mov	r19,r6
 142a83c:	0081ffc4 	movi	r2,2047
 142a840:	0021883a 	mov	r16,zero
 142a844:	002d883a 	mov	r22,zero
 142a848:	003faa06 	br	142a6f4 <__alt_data_end+0xfffea6f4>
 142a84c:	0023883a 	mov	r17,zero
 142a850:	0025883a 	mov	r18,zero
 142a854:	01c00044 	movi	r7,1
 142a858:	003f7806 	br	142a63c <__alt_data_end+0xfffea63c>
 142a85c:	01c000c4 	movi	r7,3
 142a860:	003f7606 	br	142a63c <__alt_data_end+0xfffea63c>
 142a864:	05400104 	movi	r21,4
 142a868:	0021883a 	mov	r16,zero
 142a86c:	002d883a 	mov	r22,zero
 142a870:	01400044 	movi	r5,1
 142a874:	003f5f06 	br	142a5f4 <__alt_data_end+0xfffea5f4>
 142a878:	05400304 	movi	r21,12
 142a87c:	014000c4 	movi	r5,3
 142a880:	003f5c06 	br	142a5f4 <__alt_data_end+0xfffea5f4>
 142a884:	04000434 	movhi	r16,16
 142a888:	0027883a 	mov	r19,zero
 142a88c:	843fffc4 	addi	r16,r16,-1
 142a890:	05bfffc4 	movi	r22,-1
 142a894:	0081ffc4 	movi	r2,2047
 142a898:	003f9606 	br	142a6f4 <__alt_data_end+0xfffea6f4>
 142a89c:	8023883a 	mov	r17,r16
 142a8a0:	b025883a 	mov	r18,r22
 142a8a4:	280f883a 	mov	r7,r5
 142a8a8:	003f8806 	br	142a6cc <__alt_data_end+0xfffea6cc>
 142a8ac:	8023883a 	mov	r17,r16
 142a8b0:	b025883a 	mov	r18,r22
 142a8b4:	480d883a 	mov	r6,r9
 142a8b8:	280f883a 	mov	r7,r5
 142a8bc:	003f8306 	br	142a6cc <__alt_data_end+0xfffea6cc>
 142a8c0:	b026d43a 	srli	r19,r22,16
 142a8c4:	902ed43a 	srli	r23,r18,16
 142a8c8:	b5bfffcc 	andi	r22,r22,65535
 142a8cc:	94bfffcc 	andi	r18,r18,65535
 142a8d0:	b00b883a 	mov	r5,r22
 142a8d4:	9009883a 	mov	r4,r18
 142a8d8:	d8c00515 	stw	r3,20(sp)
 142a8dc:	d9800715 	stw	r6,28(sp)
 142a8e0:	da000615 	stw	r8,24(sp)
 142a8e4:	14288940 	call	1428894 <__mulsi3>
 142a8e8:	980b883a 	mov	r5,r19
 142a8ec:	9009883a 	mov	r4,r18
 142a8f0:	1029883a 	mov	r20,r2
 142a8f4:	14288940 	call	1428894 <__mulsi3>
 142a8f8:	b80b883a 	mov	r5,r23
 142a8fc:	9809883a 	mov	r4,r19
 142a900:	102b883a 	mov	r21,r2
 142a904:	14288940 	call	1428894 <__mulsi3>
 142a908:	b809883a 	mov	r4,r23
 142a90c:	b00b883a 	mov	r5,r22
 142a910:	1039883a 	mov	fp,r2
 142a914:	14288940 	call	1428894 <__mulsi3>
 142a918:	a008d43a 	srli	r4,r20,16
 142a91c:	1545883a 	add	r2,r2,r21
 142a920:	d8c00517 	ldw	r3,20(sp)
 142a924:	2085883a 	add	r2,r4,r2
 142a928:	d9800717 	ldw	r6,28(sp)
 142a92c:	da000617 	ldw	r8,24(sp)
 142a930:	1540022e 	bgeu	r2,r21,142a93c <__muldf3+0x3c4>
 142a934:	01000074 	movhi	r4,1
 142a938:	e139883a 	add	fp,fp,r4
 142a93c:	100e943a 	slli	r7,r2,16
 142a940:	1004d43a 	srli	r2,r2,16
 142a944:	882ad43a 	srli	r21,r17,16
 142a948:	a53fffcc 	andi	r20,r20,65535
 142a94c:	8c7fffcc 	andi	r17,r17,65535
 142a950:	3d29883a 	add	r20,r7,r20
 142a954:	b00b883a 	mov	r5,r22
 142a958:	8809883a 	mov	r4,r17
 142a95c:	d8c00515 	stw	r3,20(sp)
 142a960:	d9800715 	stw	r6,28(sp)
 142a964:	da000615 	stw	r8,24(sp)
 142a968:	dd000115 	stw	r20,4(sp)
 142a96c:	d8800015 	stw	r2,0(sp)
 142a970:	14288940 	call	1428894 <__mulsi3>
 142a974:	980b883a 	mov	r5,r19
 142a978:	8809883a 	mov	r4,r17
 142a97c:	d8800215 	stw	r2,8(sp)
 142a980:	14288940 	call	1428894 <__mulsi3>
 142a984:	9809883a 	mov	r4,r19
 142a988:	a80b883a 	mov	r5,r21
 142a98c:	1029883a 	mov	r20,r2
 142a990:	14288940 	call	1428894 <__mulsi3>
 142a994:	b00b883a 	mov	r5,r22
 142a998:	a809883a 	mov	r4,r21
 142a99c:	d8800415 	stw	r2,16(sp)
 142a9a0:	14288940 	call	1428894 <__mulsi3>
 142a9a4:	d9c00217 	ldw	r7,8(sp)
 142a9a8:	1505883a 	add	r2,r2,r20
 142a9ac:	d8c00517 	ldw	r3,20(sp)
 142a9b0:	3826d43a 	srli	r19,r7,16
 142a9b4:	d9800717 	ldw	r6,28(sp)
 142a9b8:	da000617 	ldw	r8,24(sp)
 142a9bc:	9885883a 	add	r2,r19,r2
 142a9c0:	da400417 	ldw	r9,16(sp)
 142a9c4:	1500022e 	bgeu	r2,r20,142a9d0 <__muldf3+0x458>
 142a9c8:	01000074 	movhi	r4,1
 142a9cc:	4913883a 	add	r9,r9,r4
 142a9d0:	1028d43a 	srli	r20,r2,16
 142a9d4:	1004943a 	slli	r2,r2,16
 142a9d8:	802cd43a 	srli	r22,r16,16
 142a9dc:	843fffcc 	andi	r16,r16,65535
 142a9e0:	3cffffcc 	andi	r19,r7,65535
 142a9e4:	9009883a 	mov	r4,r18
 142a9e8:	800b883a 	mov	r5,r16
 142a9ec:	a269883a 	add	r20,r20,r9
 142a9f0:	d8c00515 	stw	r3,20(sp)
 142a9f4:	d9800715 	stw	r6,28(sp)
 142a9f8:	da000615 	stw	r8,24(sp)
 142a9fc:	14e7883a 	add	r19,r2,r19
 142aa00:	14288940 	call	1428894 <__mulsi3>
 142aa04:	9009883a 	mov	r4,r18
 142aa08:	b00b883a 	mov	r5,r22
 142aa0c:	d8800315 	stw	r2,12(sp)
 142aa10:	14288940 	call	1428894 <__mulsi3>
 142aa14:	b809883a 	mov	r4,r23
 142aa18:	b00b883a 	mov	r5,r22
 142aa1c:	d8800215 	stw	r2,8(sp)
 142aa20:	14288940 	call	1428894 <__mulsi3>
 142aa24:	b80b883a 	mov	r5,r23
 142aa28:	8009883a 	mov	r4,r16
 142aa2c:	d8800415 	stw	r2,16(sp)
 142aa30:	14288940 	call	1428894 <__mulsi3>
 142aa34:	da800317 	ldw	r10,12(sp)
 142aa38:	d9c00217 	ldw	r7,8(sp)
 142aa3c:	d9000017 	ldw	r4,0(sp)
 142aa40:	502ed43a 	srli	r23,r10,16
 142aa44:	11c5883a 	add	r2,r2,r7
 142aa48:	24e5883a 	add	r18,r4,r19
 142aa4c:	b885883a 	add	r2,r23,r2
 142aa50:	d8c00517 	ldw	r3,20(sp)
 142aa54:	d9800717 	ldw	r6,28(sp)
 142aa58:	da000617 	ldw	r8,24(sp)
 142aa5c:	da400417 	ldw	r9,16(sp)
 142aa60:	11c0022e 	bgeu	r2,r7,142aa6c <__muldf3+0x4f4>
 142aa64:	01000074 	movhi	r4,1
 142aa68:	4913883a 	add	r9,r9,r4
 142aa6c:	100ed43a 	srli	r7,r2,16
 142aa70:	1004943a 	slli	r2,r2,16
 142aa74:	55ffffcc 	andi	r23,r10,65535
 142aa78:	3a53883a 	add	r9,r7,r9
 142aa7c:	8809883a 	mov	r4,r17
 142aa80:	800b883a 	mov	r5,r16
 142aa84:	d8c00515 	stw	r3,20(sp)
 142aa88:	d9800715 	stw	r6,28(sp)
 142aa8c:	da000615 	stw	r8,24(sp)
 142aa90:	da400415 	stw	r9,16(sp)
 142aa94:	15ef883a 	add	r23,r2,r23
 142aa98:	14288940 	call	1428894 <__mulsi3>
 142aa9c:	8809883a 	mov	r4,r17
 142aaa0:	b00b883a 	mov	r5,r22
 142aaa4:	d8800215 	stw	r2,8(sp)
 142aaa8:	14288940 	call	1428894 <__mulsi3>
 142aaac:	b00b883a 	mov	r5,r22
 142aab0:	a809883a 	mov	r4,r21
 142aab4:	d8800315 	stw	r2,12(sp)
 142aab8:	14288940 	call	1428894 <__mulsi3>
 142aabc:	8009883a 	mov	r4,r16
 142aac0:	a80b883a 	mov	r5,r21
 142aac4:	1023883a 	mov	r17,r2
 142aac8:	14288940 	call	1428894 <__mulsi3>
 142aacc:	d9c00217 	ldw	r7,8(sp)
 142aad0:	da800317 	ldw	r10,12(sp)
 142aad4:	d8c00517 	ldw	r3,20(sp)
 142aad8:	3808d43a 	srli	r4,r7,16
 142aadc:	1285883a 	add	r2,r2,r10
 142aae0:	d9800717 	ldw	r6,28(sp)
 142aae4:	2085883a 	add	r2,r4,r2
 142aae8:	da000617 	ldw	r8,24(sp)
 142aaec:	da400417 	ldw	r9,16(sp)
 142aaf0:	1280022e 	bgeu	r2,r10,142aafc <__muldf3+0x584>
 142aaf4:	01000074 	movhi	r4,1
 142aaf8:	8923883a 	add	r17,r17,r4
 142aafc:	1008943a 	slli	r4,r2,16
 142ab00:	39ffffcc 	andi	r7,r7,65535
 142ab04:	e4b9883a 	add	fp,fp,r18
 142ab08:	21cf883a 	add	r7,r4,r7
 142ab0c:	e4e7803a 	cmpltu	r19,fp,r19
 142ab10:	3d0f883a 	add	r7,r7,r20
 142ab14:	bf39883a 	add	fp,r23,fp
 142ab18:	99c9883a 	add	r4,r19,r7
 142ab1c:	e5ef803a 	cmpltu	r23,fp,r23
 142ab20:	490b883a 	add	r5,r9,r4
 142ab24:	1004d43a 	srli	r2,r2,16
 142ab28:	b965883a 	add	r18,r23,r5
 142ab2c:	24c9803a 	cmpltu	r4,r4,r19
 142ab30:	3d29803a 	cmpltu	r20,r7,r20
 142ab34:	a128b03a 	or	r20,r20,r4
 142ab38:	95ef803a 	cmpltu	r23,r18,r23
 142ab3c:	2a53803a 	cmpltu	r9,r5,r9
 142ab40:	a0a9883a 	add	r20,r20,r2
 142ab44:	4deeb03a 	or	r23,r9,r23
 142ab48:	a5ef883a 	add	r23,r20,r23
 142ab4c:	bc63883a 	add	r17,r23,r17
 142ab50:	e004927a 	slli	r2,fp,9
 142ab54:	d9000117 	ldw	r4,4(sp)
 142ab58:	882e927a 	slli	r23,r17,9
 142ab5c:	9022d5fa 	srli	r17,r18,23
 142ab60:	e038d5fa 	srli	fp,fp,23
 142ab64:	1104b03a 	or	r2,r2,r4
 142ab68:	9024927a 	slli	r18,r18,9
 142ab6c:	1004c03a 	cmpne	r2,r2,zero
 142ab70:	bc62b03a 	or	r17,r23,r17
 142ab74:	1738b03a 	or	fp,r2,fp
 142ab78:	8880402c 	andhi	r2,r17,256
 142ab7c:	e4a4b03a 	or	r18,fp,r18
 142ab80:	10000726 	beq	r2,zero,142aba0 <__muldf3+0x628>
 142ab84:	9006d07a 	srli	r3,r18,1
 142ab88:	880497fa 	slli	r2,r17,31
 142ab8c:	9480004c 	andi	r18,r18,1
 142ab90:	8822d07a 	srli	r17,r17,1
 142ab94:	1ca4b03a 	or	r18,r3,r18
 142ab98:	14a4b03a 	or	r18,r2,r18
 142ab9c:	4007883a 	mov	r3,r8
 142aba0:	1880ffc4 	addi	r2,r3,1023
 142aba4:	0080460e 	bge	zero,r2,142acc0 <__muldf3+0x748>
 142aba8:	910001cc 	andi	r4,r18,7
 142abac:	20000726 	beq	r4,zero,142abcc <__muldf3+0x654>
 142abb0:	910003cc 	andi	r4,r18,15
 142abb4:	01400104 	movi	r5,4
 142abb8:	21400426 	beq	r4,r5,142abcc <__muldf3+0x654>
 142abbc:	9149883a 	add	r4,r18,r5
 142abc0:	24a5803a 	cmpltu	r18,r4,r18
 142abc4:	8ca3883a 	add	r17,r17,r18
 142abc8:	2025883a 	mov	r18,r4
 142abcc:	8900402c 	andhi	r4,r17,256
 142abd0:	20000426 	beq	r4,zero,142abe4 <__muldf3+0x66c>
 142abd4:	18810004 	addi	r2,r3,1024
 142abd8:	00ffc034 	movhi	r3,65280
 142abdc:	18ffffc4 	addi	r3,r3,-1
 142abe0:	88e2703a 	and	r17,r17,r3
 142abe4:	00c1ff84 	movi	r3,2046
 142abe8:	18bf1316 	blt	r3,r2,142a838 <__alt_data_end+0xfffea838>
 142abec:	882c977a 	slli	r22,r17,29
 142abf0:	9024d0fa 	srli	r18,r18,3
 142abf4:	8822927a 	slli	r17,r17,9
 142abf8:	1081ffcc 	andi	r2,r2,2047
 142abfc:	b4acb03a 	or	r22,r22,r18
 142ac00:	8820d33a 	srli	r16,r17,12
 142ac04:	3027883a 	mov	r19,r6
 142ac08:	003eba06 	br	142a6f4 <__alt_data_end+0xfffea6f4>
 142ac0c:	8080022c 	andhi	r2,r16,8
 142ac10:	10000926 	beq	r2,zero,142ac38 <__muldf3+0x6c0>
 142ac14:	8880022c 	andhi	r2,r17,8
 142ac18:	1000071e 	bne	r2,zero,142ac38 <__muldf3+0x6c0>
 142ac1c:	00800434 	movhi	r2,16
 142ac20:	8c000234 	orhi	r16,r17,8
 142ac24:	10bfffc4 	addi	r2,r2,-1
 142ac28:	e027883a 	mov	r19,fp
 142ac2c:	80a0703a 	and	r16,r16,r2
 142ac30:	902d883a 	mov	r22,r18
 142ac34:	003f1706 	br	142a894 <__alt_data_end+0xfffea894>
 142ac38:	00800434 	movhi	r2,16
 142ac3c:	84000234 	orhi	r16,r16,8
 142ac40:	10bfffc4 	addi	r2,r2,-1
 142ac44:	80a0703a 	and	r16,r16,r2
 142ac48:	003f1206 	br	142a894 <__alt_data_end+0xfffea894>
 142ac4c:	147ff604 	addi	r17,r2,-40
 142ac50:	3462983a 	sll	r17,r6,r17
 142ac54:	0025883a 	mov	r18,zero
 142ac58:	003ef306 	br	142a828 <__alt_data_end+0xfffea828>
 142ac5c:	3009883a 	mov	r4,r6
 142ac60:	d9400215 	stw	r5,8(sp)
 142ac64:	d9800715 	stw	r6,28(sp)
 142ac68:	da400415 	stw	r9,16(sp)
 142ac6c:	da800315 	stw	r10,12(sp)
 142ac70:	142be040 	call	142be04 <__clzsi2>
 142ac74:	10800804 	addi	r2,r2,32
 142ac78:	da800317 	ldw	r10,12(sp)
 142ac7c:	da400417 	ldw	r9,16(sp)
 142ac80:	d9800717 	ldw	r6,28(sp)
 142ac84:	d9400217 	ldw	r5,8(sp)
 142ac88:	003edd06 	br	142a800 <__alt_data_end+0xfffea800>
 142ac8c:	143ff604 	addi	r16,r2,-40
 142ac90:	ac20983a 	sll	r16,r21,r16
 142ac94:	002d883a 	mov	r22,zero
 142ac98:	003ec106 	br	142a7a0 <__alt_data_end+0xfffea7a0>
 142ac9c:	d9800715 	stw	r6,28(sp)
 142aca0:	d9c00215 	stw	r7,8(sp)
 142aca4:	da400415 	stw	r9,16(sp)
 142aca8:	142be040 	call	142be04 <__clzsi2>
 142acac:	10800804 	addi	r2,r2,32
 142acb0:	da400417 	ldw	r9,16(sp)
 142acb4:	d9c00217 	ldw	r7,8(sp)
 142acb8:	d9800717 	ldw	r6,28(sp)
 142acbc:	003eae06 	br	142a778 <__alt_data_end+0xfffea778>
 142acc0:	00c00044 	movi	r3,1
 142acc4:	1887c83a 	sub	r3,r3,r2
 142acc8:	01000e04 	movi	r4,56
 142accc:	20fe8516 	blt	r4,r3,142a6e4 <__alt_data_end+0xfffea6e4>
 142acd0:	010007c4 	movi	r4,31
 142acd4:	20c01b16 	blt	r4,r3,142ad44 <__muldf3+0x7cc>
 142acd8:	00800804 	movi	r2,32
 142acdc:	10c5c83a 	sub	r2,r2,r3
 142ace0:	888a983a 	sll	r5,r17,r2
 142ace4:	90c8d83a 	srl	r4,r18,r3
 142ace8:	9084983a 	sll	r2,r18,r2
 142acec:	88e2d83a 	srl	r17,r17,r3
 142acf0:	2906b03a 	or	r3,r5,r4
 142acf4:	1004c03a 	cmpne	r2,r2,zero
 142acf8:	1886b03a 	or	r3,r3,r2
 142acfc:	188001cc 	andi	r2,r3,7
 142ad00:	10000726 	beq	r2,zero,142ad20 <__muldf3+0x7a8>
 142ad04:	188003cc 	andi	r2,r3,15
 142ad08:	01000104 	movi	r4,4
 142ad0c:	11000426 	beq	r2,r4,142ad20 <__muldf3+0x7a8>
 142ad10:	1805883a 	mov	r2,r3
 142ad14:	10c00104 	addi	r3,r2,4
 142ad18:	1885803a 	cmpltu	r2,r3,r2
 142ad1c:	88a3883a 	add	r17,r17,r2
 142ad20:	8880202c 	andhi	r2,r17,128
 142ad24:	10001c26 	beq	r2,zero,142ad98 <__muldf3+0x820>
 142ad28:	3027883a 	mov	r19,r6
 142ad2c:	00800044 	movi	r2,1
 142ad30:	0021883a 	mov	r16,zero
 142ad34:	002d883a 	mov	r22,zero
 142ad38:	003e6e06 	br	142a6f4 <__alt_data_end+0xfffea6f4>
 142ad3c:	4007883a 	mov	r3,r8
 142ad40:	003f9706 	br	142aba0 <__alt_data_end+0xfffeaba0>
 142ad44:	017ff844 	movi	r5,-31
 142ad48:	2885c83a 	sub	r2,r5,r2
 142ad4c:	888ad83a 	srl	r5,r17,r2
 142ad50:	00800804 	movi	r2,32
 142ad54:	18801a26 	beq	r3,r2,142adc0 <__muldf3+0x848>
 142ad58:	01001004 	movi	r4,64
 142ad5c:	20c7c83a 	sub	r3,r4,r3
 142ad60:	88e2983a 	sll	r17,r17,r3
 142ad64:	8ca4b03a 	or	r18,r17,r18
 142ad68:	9004c03a 	cmpne	r2,r18,zero
 142ad6c:	2884b03a 	or	r2,r5,r2
 142ad70:	144001cc 	andi	r17,r2,7
 142ad74:	88000d1e 	bne	r17,zero,142adac <__muldf3+0x834>
 142ad78:	0021883a 	mov	r16,zero
 142ad7c:	102cd0fa 	srli	r22,r2,3
 142ad80:	3027883a 	mov	r19,r6
 142ad84:	0005883a 	mov	r2,zero
 142ad88:	b46cb03a 	or	r22,r22,r17
 142ad8c:	003e5906 	br	142a6f4 <__alt_data_end+0xfffea6f4>
 142ad90:	1007883a 	mov	r3,r2
 142ad94:	0023883a 	mov	r17,zero
 142ad98:	8820927a 	slli	r16,r17,9
 142ad9c:	1805883a 	mov	r2,r3
 142ada0:	8822977a 	slli	r17,r17,29
 142ada4:	8020d33a 	srli	r16,r16,12
 142ada8:	003ff406 	br	142ad7c <__alt_data_end+0xfffead7c>
 142adac:	10c003cc 	andi	r3,r2,15
 142adb0:	01000104 	movi	r4,4
 142adb4:	193ff626 	beq	r3,r4,142ad90 <__alt_data_end+0xfffead90>
 142adb8:	0023883a 	mov	r17,zero
 142adbc:	003fd506 	br	142ad14 <__alt_data_end+0xfffead14>
 142adc0:	0023883a 	mov	r17,zero
 142adc4:	003fe706 	br	142ad64 <__alt_data_end+0xfffead64>
 142adc8:	00800434 	movhi	r2,16
 142adcc:	8c000234 	orhi	r16,r17,8
 142add0:	10bfffc4 	addi	r2,r2,-1
 142add4:	3027883a 	mov	r19,r6
 142add8:	80a0703a 	and	r16,r16,r2
 142addc:	902d883a 	mov	r22,r18
 142ade0:	003eac06 	br	142a894 <__alt_data_end+0xfffea894>

0142ade4 <__subdf3>:
 142ade4:	02000434 	movhi	r8,16
 142ade8:	423fffc4 	addi	r8,r8,-1
 142adec:	defffb04 	addi	sp,sp,-20
 142adf0:	2a14703a 	and	r10,r5,r8
 142adf4:	3812d53a 	srli	r9,r7,20
 142adf8:	3a10703a 	and	r8,r7,r8
 142adfc:	2006d77a 	srli	r3,r4,29
 142ae00:	3004d77a 	srli	r2,r6,29
 142ae04:	dc000015 	stw	r16,0(sp)
 142ae08:	501490fa 	slli	r10,r10,3
 142ae0c:	2820d53a 	srli	r16,r5,20
 142ae10:	401090fa 	slli	r8,r8,3
 142ae14:	dc800215 	stw	r18,8(sp)
 142ae18:	dc400115 	stw	r17,4(sp)
 142ae1c:	dfc00415 	stw	ra,16(sp)
 142ae20:	202290fa 	slli	r17,r4,3
 142ae24:	dcc00315 	stw	r19,12(sp)
 142ae28:	4a41ffcc 	andi	r9,r9,2047
 142ae2c:	0101ffc4 	movi	r4,2047
 142ae30:	2824d7fa 	srli	r18,r5,31
 142ae34:	8401ffcc 	andi	r16,r16,2047
 142ae38:	50c6b03a 	or	r3,r10,r3
 142ae3c:	380ed7fa 	srli	r7,r7,31
 142ae40:	408ab03a 	or	r5,r8,r2
 142ae44:	300c90fa 	slli	r6,r6,3
 142ae48:	49009626 	beq	r9,r4,142b0a4 <__subdf3+0x2c0>
 142ae4c:	39c0005c 	xori	r7,r7,1
 142ae50:	8245c83a 	sub	r2,r16,r9
 142ae54:	3c807426 	beq	r7,r18,142b028 <__subdf3+0x244>
 142ae58:	0080af0e 	bge	zero,r2,142b118 <__subdf3+0x334>
 142ae5c:	48002a1e 	bne	r9,zero,142af08 <__subdf3+0x124>
 142ae60:	2988b03a 	or	r4,r5,r6
 142ae64:	20009a1e 	bne	r4,zero,142b0d0 <__subdf3+0x2ec>
 142ae68:	888001cc 	andi	r2,r17,7
 142ae6c:	10000726 	beq	r2,zero,142ae8c <__subdf3+0xa8>
 142ae70:	888003cc 	andi	r2,r17,15
 142ae74:	01000104 	movi	r4,4
 142ae78:	11000426 	beq	r2,r4,142ae8c <__subdf3+0xa8>
 142ae7c:	890b883a 	add	r5,r17,r4
 142ae80:	2c63803a 	cmpltu	r17,r5,r17
 142ae84:	1c47883a 	add	r3,r3,r17
 142ae88:	2823883a 	mov	r17,r5
 142ae8c:	1880202c 	andhi	r2,r3,128
 142ae90:	10005926 	beq	r2,zero,142aff8 <__subdf3+0x214>
 142ae94:	84000044 	addi	r16,r16,1
 142ae98:	0081ffc4 	movi	r2,2047
 142ae9c:	8080be26 	beq	r16,r2,142b198 <__subdf3+0x3b4>
 142aea0:	017fe034 	movhi	r5,65408
 142aea4:	297fffc4 	addi	r5,r5,-1
 142aea8:	1946703a 	and	r3,r3,r5
 142aeac:	1804977a 	slli	r2,r3,29
 142aeb0:	1806927a 	slli	r3,r3,9
 142aeb4:	8822d0fa 	srli	r17,r17,3
 142aeb8:	8401ffcc 	andi	r16,r16,2047
 142aebc:	180ad33a 	srli	r5,r3,12
 142aec0:	9100004c 	andi	r4,r18,1
 142aec4:	1444b03a 	or	r2,r2,r17
 142aec8:	80c1ffcc 	andi	r3,r16,2047
 142aecc:	1820953a 	slli	r16,r3,20
 142aed0:	20c03fcc 	andi	r3,r4,255
 142aed4:	180897fa 	slli	r4,r3,31
 142aed8:	00c00434 	movhi	r3,16
 142aedc:	18ffffc4 	addi	r3,r3,-1
 142aee0:	28c6703a 	and	r3,r5,r3
 142aee4:	1c06b03a 	or	r3,r3,r16
 142aee8:	1906b03a 	or	r3,r3,r4
 142aeec:	dfc00417 	ldw	ra,16(sp)
 142aef0:	dcc00317 	ldw	r19,12(sp)
 142aef4:	dc800217 	ldw	r18,8(sp)
 142aef8:	dc400117 	ldw	r17,4(sp)
 142aefc:	dc000017 	ldw	r16,0(sp)
 142af00:	dec00504 	addi	sp,sp,20
 142af04:	f800283a 	ret
 142af08:	0101ffc4 	movi	r4,2047
 142af0c:	813fd626 	beq	r16,r4,142ae68 <__alt_data_end+0xfffeae68>
 142af10:	29402034 	orhi	r5,r5,128
 142af14:	01000e04 	movi	r4,56
 142af18:	2080a316 	blt	r4,r2,142b1a8 <__subdf3+0x3c4>
 142af1c:	010007c4 	movi	r4,31
 142af20:	2080c616 	blt	r4,r2,142b23c <__subdf3+0x458>
 142af24:	01000804 	movi	r4,32
 142af28:	2089c83a 	sub	r4,r4,r2
 142af2c:	2910983a 	sll	r8,r5,r4
 142af30:	308ed83a 	srl	r7,r6,r2
 142af34:	3108983a 	sll	r4,r6,r4
 142af38:	2884d83a 	srl	r2,r5,r2
 142af3c:	41ccb03a 	or	r6,r8,r7
 142af40:	2008c03a 	cmpne	r4,r4,zero
 142af44:	310cb03a 	or	r6,r6,r4
 142af48:	898dc83a 	sub	r6,r17,r6
 142af4c:	89a3803a 	cmpltu	r17,r17,r6
 142af50:	1887c83a 	sub	r3,r3,r2
 142af54:	1c47c83a 	sub	r3,r3,r17
 142af58:	3023883a 	mov	r17,r6
 142af5c:	1880202c 	andhi	r2,r3,128
 142af60:	10002326 	beq	r2,zero,142aff0 <__subdf3+0x20c>
 142af64:	04c02034 	movhi	r19,128
 142af68:	9cffffc4 	addi	r19,r19,-1
 142af6c:	1ce6703a 	and	r19,r3,r19
 142af70:	98007a26 	beq	r19,zero,142b15c <__subdf3+0x378>
 142af74:	9809883a 	mov	r4,r19
 142af78:	142be040 	call	142be04 <__clzsi2>
 142af7c:	113ffe04 	addi	r4,r2,-8
 142af80:	00c007c4 	movi	r3,31
 142af84:	19007b16 	blt	r3,r4,142b174 <__subdf3+0x390>
 142af88:	00800804 	movi	r2,32
 142af8c:	1105c83a 	sub	r2,r2,r4
 142af90:	8884d83a 	srl	r2,r17,r2
 142af94:	9906983a 	sll	r3,r19,r4
 142af98:	8922983a 	sll	r17,r17,r4
 142af9c:	10c4b03a 	or	r2,r2,r3
 142afa0:	24007816 	blt	r4,r16,142b184 <__subdf3+0x3a0>
 142afa4:	2421c83a 	sub	r16,r4,r16
 142afa8:	80c00044 	addi	r3,r16,1
 142afac:	010007c4 	movi	r4,31
 142afb0:	20c09516 	blt	r4,r3,142b208 <__subdf3+0x424>
 142afb4:	01400804 	movi	r5,32
 142afb8:	28cbc83a 	sub	r5,r5,r3
 142afbc:	88c8d83a 	srl	r4,r17,r3
 142afc0:	8962983a 	sll	r17,r17,r5
 142afc4:	114a983a 	sll	r5,r2,r5
 142afc8:	10c6d83a 	srl	r3,r2,r3
 142afcc:	8804c03a 	cmpne	r2,r17,zero
 142afd0:	290ab03a 	or	r5,r5,r4
 142afd4:	28a2b03a 	or	r17,r5,r2
 142afd8:	0021883a 	mov	r16,zero
 142afdc:	003fa206 	br	142ae68 <__alt_data_end+0xfffeae68>
 142afe0:	2090b03a 	or	r8,r4,r2
 142afe4:	40018e26 	beq	r8,zero,142b620 <__subdf3+0x83c>
 142afe8:	1007883a 	mov	r3,r2
 142afec:	2023883a 	mov	r17,r4
 142aff0:	888001cc 	andi	r2,r17,7
 142aff4:	103f9e1e 	bne	r2,zero,142ae70 <__alt_data_end+0xfffeae70>
 142aff8:	1804977a 	slli	r2,r3,29
 142affc:	8822d0fa 	srli	r17,r17,3
 142b000:	1810d0fa 	srli	r8,r3,3
 142b004:	9100004c 	andi	r4,r18,1
 142b008:	1444b03a 	or	r2,r2,r17
 142b00c:	00c1ffc4 	movi	r3,2047
 142b010:	80c02826 	beq	r16,r3,142b0b4 <__subdf3+0x2d0>
 142b014:	01400434 	movhi	r5,16
 142b018:	297fffc4 	addi	r5,r5,-1
 142b01c:	80e0703a 	and	r16,r16,r3
 142b020:	414a703a 	and	r5,r8,r5
 142b024:	003fa806 	br	142aec8 <__alt_data_end+0xfffeaec8>
 142b028:	0080630e 	bge	zero,r2,142b1b8 <__subdf3+0x3d4>
 142b02c:	48003026 	beq	r9,zero,142b0f0 <__subdf3+0x30c>
 142b030:	0101ffc4 	movi	r4,2047
 142b034:	813f8c26 	beq	r16,r4,142ae68 <__alt_data_end+0xfffeae68>
 142b038:	29402034 	orhi	r5,r5,128
 142b03c:	01000e04 	movi	r4,56
 142b040:	2080a90e 	bge	r4,r2,142b2e8 <__subdf3+0x504>
 142b044:	298cb03a 	or	r6,r5,r6
 142b048:	3012c03a 	cmpne	r9,r6,zero
 142b04c:	0005883a 	mov	r2,zero
 142b050:	4c53883a 	add	r9,r9,r17
 142b054:	4c63803a 	cmpltu	r17,r9,r17
 142b058:	10c7883a 	add	r3,r2,r3
 142b05c:	88c7883a 	add	r3,r17,r3
 142b060:	4823883a 	mov	r17,r9
 142b064:	1880202c 	andhi	r2,r3,128
 142b068:	1000d026 	beq	r2,zero,142b3ac <__subdf3+0x5c8>
 142b06c:	84000044 	addi	r16,r16,1
 142b070:	0081ffc4 	movi	r2,2047
 142b074:	8080fe26 	beq	r16,r2,142b470 <__subdf3+0x68c>
 142b078:	00bfe034 	movhi	r2,65408
 142b07c:	10bfffc4 	addi	r2,r2,-1
 142b080:	1886703a 	and	r3,r3,r2
 142b084:	880ad07a 	srli	r5,r17,1
 142b088:	180497fa 	slli	r2,r3,31
 142b08c:	8900004c 	andi	r4,r17,1
 142b090:	2922b03a 	or	r17,r5,r4
 142b094:	1806d07a 	srli	r3,r3,1
 142b098:	1462b03a 	or	r17,r2,r17
 142b09c:	3825883a 	mov	r18,r7
 142b0a0:	003f7106 	br	142ae68 <__alt_data_end+0xfffeae68>
 142b0a4:	2984b03a 	or	r2,r5,r6
 142b0a8:	103f6826 	beq	r2,zero,142ae4c <__alt_data_end+0xfffeae4c>
 142b0ac:	39c03fcc 	andi	r7,r7,255
 142b0b0:	003f6706 	br	142ae50 <__alt_data_end+0xfffeae50>
 142b0b4:	4086b03a 	or	r3,r8,r2
 142b0b8:	18015226 	beq	r3,zero,142b604 <__subdf3+0x820>
 142b0bc:	00c00434 	movhi	r3,16
 142b0c0:	41400234 	orhi	r5,r8,8
 142b0c4:	18ffffc4 	addi	r3,r3,-1
 142b0c8:	28ca703a 	and	r5,r5,r3
 142b0cc:	003f7e06 	br	142aec8 <__alt_data_end+0xfffeaec8>
 142b0d0:	10bfffc4 	addi	r2,r2,-1
 142b0d4:	1000491e 	bne	r2,zero,142b1fc <__subdf3+0x418>
 142b0d8:	898fc83a 	sub	r7,r17,r6
 142b0dc:	89e3803a 	cmpltu	r17,r17,r7
 142b0e0:	1947c83a 	sub	r3,r3,r5
 142b0e4:	1c47c83a 	sub	r3,r3,r17
 142b0e8:	3823883a 	mov	r17,r7
 142b0ec:	003f9b06 	br	142af5c <__alt_data_end+0xfffeaf5c>
 142b0f0:	2988b03a 	or	r4,r5,r6
 142b0f4:	203f5c26 	beq	r4,zero,142ae68 <__alt_data_end+0xfffeae68>
 142b0f8:	10bfffc4 	addi	r2,r2,-1
 142b0fc:	1000931e 	bne	r2,zero,142b34c <__subdf3+0x568>
 142b100:	898d883a 	add	r6,r17,r6
 142b104:	3463803a 	cmpltu	r17,r6,r17
 142b108:	1947883a 	add	r3,r3,r5
 142b10c:	88c7883a 	add	r3,r17,r3
 142b110:	3023883a 	mov	r17,r6
 142b114:	003fd306 	br	142b064 <__alt_data_end+0xfffeb064>
 142b118:	1000541e 	bne	r2,zero,142b26c <__subdf3+0x488>
 142b11c:	80800044 	addi	r2,r16,1
 142b120:	1081ffcc 	andi	r2,r2,2047
 142b124:	01000044 	movi	r4,1
 142b128:	2080a20e 	bge	r4,r2,142b3b4 <__subdf3+0x5d0>
 142b12c:	8989c83a 	sub	r4,r17,r6
 142b130:	8905803a 	cmpltu	r2,r17,r4
 142b134:	1967c83a 	sub	r19,r3,r5
 142b138:	98a7c83a 	sub	r19,r19,r2
 142b13c:	9880202c 	andhi	r2,r19,128
 142b140:	10006326 	beq	r2,zero,142b2d0 <__subdf3+0x4ec>
 142b144:	3463c83a 	sub	r17,r6,r17
 142b148:	28c7c83a 	sub	r3,r5,r3
 142b14c:	344d803a 	cmpltu	r6,r6,r17
 142b150:	19a7c83a 	sub	r19,r3,r6
 142b154:	3825883a 	mov	r18,r7
 142b158:	983f861e 	bne	r19,zero,142af74 <__alt_data_end+0xfffeaf74>
 142b15c:	8809883a 	mov	r4,r17
 142b160:	142be040 	call	142be04 <__clzsi2>
 142b164:	10800804 	addi	r2,r2,32
 142b168:	113ffe04 	addi	r4,r2,-8
 142b16c:	00c007c4 	movi	r3,31
 142b170:	193f850e 	bge	r3,r4,142af88 <__alt_data_end+0xfffeaf88>
 142b174:	10bff604 	addi	r2,r2,-40
 142b178:	8884983a 	sll	r2,r17,r2
 142b17c:	0023883a 	mov	r17,zero
 142b180:	243f880e 	bge	r4,r16,142afa4 <__alt_data_end+0xfffeafa4>
 142b184:	00ffe034 	movhi	r3,65408
 142b188:	18ffffc4 	addi	r3,r3,-1
 142b18c:	8121c83a 	sub	r16,r16,r4
 142b190:	10c6703a 	and	r3,r2,r3
 142b194:	003f3406 	br	142ae68 <__alt_data_end+0xfffeae68>
 142b198:	9100004c 	andi	r4,r18,1
 142b19c:	000b883a 	mov	r5,zero
 142b1a0:	0005883a 	mov	r2,zero
 142b1a4:	003f4806 	br	142aec8 <__alt_data_end+0xfffeaec8>
 142b1a8:	298cb03a 	or	r6,r5,r6
 142b1ac:	300cc03a 	cmpne	r6,r6,zero
 142b1b0:	0005883a 	mov	r2,zero
 142b1b4:	003f6406 	br	142af48 <__alt_data_end+0xfffeaf48>
 142b1b8:	10009a1e 	bne	r2,zero,142b424 <__subdf3+0x640>
 142b1bc:	82400044 	addi	r9,r16,1
 142b1c0:	4881ffcc 	andi	r2,r9,2047
 142b1c4:	02800044 	movi	r10,1
 142b1c8:	5080670e 	bge	r10,r2,142b368 <__subdf3+0x584>
 142b1cc:	0081ffc4 	movi	r2,2047
 142b1d0:	4880af26 	beq	r9,r2,142b490 <__subdf3+0x6ac>
 142b1d4:	898d883a 	add	r6,r17,r6
 142b1d8:	1945883a 	add	r2,r3,r5
 142b1dc:	3447803a 	cmpltu	r3,r6,r17
 142b1e0:	1887883a 	add	r3,r3,r2
 142b1e4:	182297fa 	slli	r17,r3,31
 142b1e8:	300cd07a 	srli	r6,r6,1
 142b1ec:	1806d07a 	srli	r3,r3,1
 142b1f0:	4821883a 	mov	r16,r9
 142b1f4:	89a2b03a 	or	r17,r17,r6
 142b1f8:	003f1b06 	br	142ae68 <__alt_data_end+0xfffeae68>
 142b1fc:	0101ffc4 	movi	r4,2047
 142b200:	813f441e 	bne	r16,r4,142af14 <__alt_data_end+0xfffeaf14>
 142b204:	003f1806 	br	142ae68 <__alt_data_end+0xfffeae68>
 142b208:	843ff844 	addi	r16,r16,-31
 142b20c:	01400804 	movi	r5,32
 142b210:	1408d83a 	srl	r4,r2,r16
 142b214:	19405026 	beq	r3,r5,142b358 <__subdf3+0x574>
 142b218:	01401004 	movi	r5,64
 142b21c:	28c7c83a 	sub	r3,r5,r3
 142b220:	10c4983a 	sll	r2,r2,r3
 142b224:	88a2b03a 	or	r17,r17,r2
 142b228:	8822c03a 	cmpne	r17,r17,zero
 142b22c:	2462b03a 	or	r17,r4,r17
 142b230:	0007883a 	mov	r3,zero
 142b234:	0021883a 	mov	r16,zero
 142b238:	003f6d06 	br	142aff0 <__alt_data_end+0xfffeaff0>
 142b23c:	11fff804 	addi	r7,r2,-32
 142b240:	01000804 	movi	r4,32
 142b244:	29ced83a 	srl	r7,r5,r7
 142b248:	11004526 	beq	r2,r4,142b360 <__subdf3+0x57c>
 142b24c:	01001004 	movi	r4,64
 142b250:	2089c83a 	sub	r4,r4,r2
 142b254:	2904983a 	sll	r2,r5,r4
 142b258:	118cb03a 	or	r6,r2,r6
 142b25c:	300cc03a 	cmpne	r6,r6,zero
 142b260:	398cb03a 	or	r6,r7,r6
 142b264:	0005883a 	mov	r2,zero
 142b268:	003f3706 	br	142af48 <__alt_data_end+0xfffeaf48>
 142b26c:	80002a26 	beq	r16,zero,142b318 <__subdf3+0x534>
 142b270:	0101ffc4 	movi	r4,2047
 142b274:	49006626 	beq	r9,r4,142b410 <__subdf3+0x62c>
 142b278:	0085c83a 	sub	r2,zero,r2
 142b27c:	18c02034 	orhi	r3,r3,128
 142b280:	01000e04 	movi	r4,56
 142b284:	20807e16 	blt	r4,r2,142b480 <__subdf3+0x69c>
 142b288:	010007c4 	movi	r4,31
 142b28c:	2080e716 	blt	r4,r2,142b62c <__subdf3+0x848>
 142b290:	01000804 	movi	r4,32
 142b294:	2089c83a 	sub	r4,r4,r2
 142b298:	1914983a 	sll	r10,r3,r4
 142b29c:	8890d83a 	srl	r8,r17,r2
 142b2a0:	8908983a 	sll	r4,r17,r4
 142b2a4:	1884d83a 	srl	r2,r3,r2
 142b2a8:	5222b03a 	or	r17,r10,r8
 142b2ac:	2006c03a 	cmpne	r3,r4,zero
 142b2b0:	88e2b03a 	or	r17,r17,r3
 142b2b4:	3463c83a 	sub	r17,r6,r17
 142b2b8:	2885c83a 	sub	r2,r5,r2
 142b2bc:	344d803a 	cmpltu	r6,r6,r17
 142b2c0:	1187c83a 	sub	r3,r2,r6
 142b2c4:	4821883a 	mov	r16,r9
 142b2c8:	3825883a 	mov	r18,r7
 142b2cc:	003f2306 	br	142af5c <__alt_data_end+0xfffeaf5c>
 142b2d0:	24d0b03a 	or	r8,r4,r19
 142b2d4:	40001b1e 	bne	r8,zero,142b344 <__subdf3+0x560>
 142b2d8:	0005883a 	mov	r2,zero
 142b2dc:	0009883a 	mov	r4,zero
 142b2e0:	0021883a 	mov	r16,zero
 142b2e4:	003f4906 	br	142b00c <__alt_data_end+0xfffeb00c>
 142b2e8:	010007c4 	movi	r4,31
 142b2ec:	20803a16 	blt	r4,r2,142b3d8 <__subdf3+0x5f4>
 142b2f0:	01000804 	movi	r4,32
 142b2f4:	2089c83a 	sub	r4,r4,r2
 142b2f8:	2912983a 	sll	r9,r5,r4
 142b2fc:	3090d83a 	srl	r8,r6,r2
 142b300:	3108983a 	sll	r4,r6,r4
 142b304:	2884d83a 	srl	r2,r5,r2
 142b308:	4a12b03a 	or	r9,r9,r8
 142b30c:	2008c03a 	cmpne	r4,r4,zero
 142b310:	4912b03a 	or	r9,r9,r4
 142b314:	003f4e06 	br	142b050 <__alt_data_end+0xfffeb050>
 142b318:	1c48b03a 	or	r4,r3,r17
 142b31c:	20003c26 	beq	r4,zero,142b410 <__subdf3+0x62c>
 142b320:	0084303a 	nor	r2,zero,r2
 142b324:	1000381e 	bne	r2,zero,142b408 <__subdf3+0x624>
 142b328:	3463c83a 	sub	r17,r6,r17
 142b32c:	28c5c83a 	sub	r2,r5,r3
 142b330:	344d803a 	cmpltu	r6,r6,r17
 142b334:	1187c83a 	sub	r3,r2,r6
 142b338:	4821883a 	mov	r16,r9
 142b33c:	3825883a 	mov	r18,r7
 142b340:	003f0606 	br	142af5c <__alt_data_end+0xfffeaf5c>
 142b344:	2023883a 	mov	r17,r4
 142b348:	003f0906 	br	142af70 <__alt_data_end+0xfffeaf70>
 142b34c:	0101ffc4 	movi	r4,2047
 142b350:	813f3a1e 	bne	r16,r4,142b03c <__alt_data_end+0xfffeb03c>
 142b354:	003ec406 	br	142ae68 <__alt_data_end+0xfffeae68>
 142b358:	0005883a 	mov	r2,zero
 142b35c:	003fb106 	br	142b224 <__alt_data_end+0xfffeb224>
 142b360:	0005883a 	mov	r2,zero
 142b364:	003fbc06 	br	142b258 <__alt_data_end+0xfffeb258>
 142b368:	1c44b03a 	or	r2,r3,r17
 142b36c:	80008e1e 	bne	r16,zero,142b5a8 <__subdf3+0x7c4>
 142b370:	1000c826 	beq	r2,zero,142b694 <__subdf3+0x8b0>
 142b374:	2984b03a 	or	r2,r5,r6
 142b378:	103ebb26 	beq	r2,zero,142ae68 <__alt_data_end+0xfffeae68>
 142b37c:	8989883a 	add	r4,r17,r6
 142b380:	1945883a 	add	r2,r3,r5
 142b384:	2447803a 	cmpltu	r3,r4,r17
 142b388:	1887883a 	add	r3,r3,r2
 142b38c:	1880202c 	andhi	r2,r3,128
 142b390:	2023883a 	mov	r17,r4
 142b394:	103f1626 	beq	r2,zero,142aff0 <__alt_data_end+0xfffeaff0>
 142b398:	00bfe034 	movhi	r2,65408
 142b39c:	10bfffc4 	addi	r2,r2,-1
 142b3a0:	5021883a 	mov	r16,r10
 142b3a4:	1886703a 	and	r3,r3,r2
 142b3a8:	003eaf06 	br	142ae68 <__alt_data_end+0xfffeae68>
 142b3ac:	3825883a 	mov	r18,r7
 142b3b0:	003f0f06 	br	142aff0 <__alt_data_end+0xfffeaff0>
 142b3b4:	1c44b03a 	or	r2,r3,r17
 142b3b8:	8000251e 	bne	r16,zero,142b450 <__subdf3+0x66c>
 142b3bc:	1000661e 	bne	r2,zero,142b558 <__subdf3+0x774>
 142b3c0:	2990b03a 	or	r8,r5,r6
 142b3c4:	40009626 	beq	r8,zero,142b620 <__subdf3+0x83c>
 142b3c8:	2807883a 	mov	r3,r5
 142b3cc:	3023883a 	mov	r17,r6
 142b3d0:	3825883a 	mov	r18,r7
 142b3d4:	003ea406 	br	142ae68 <__alt_data_end+0xfffeae68>
 142b3d8:	127ff804 	addi	r9,r2,-32
 142b3dc:	01000804 	movi	r4,32
 142b3e0:	2a52d83a 	srl	r9,r5,r9
 142b3e4:	11008c26 	beq	r2,r4,142b618 <__subdf3+0x834>
 142b3e8:	01001004 	movi	r4,64
 142b3ec:	2085c83a 	sub	r2,r4,r2
 142b3f0:	2884983a 	sll	r2,r5,r2
 142b3f4:	118cb03a 	or	r6,r2,r6
 142b3f8:	300cc03a 	cmpne	r6,r6,zero
 142b3fc:	4992b03a 	or	r9,r9,r6
 142b400:	0005883a 	mov	r2,zero
 142b404:	003f1206 	br	142b050 <__alt_data_end+0xfffeb050>
 142b408:	0101ffc4 	movi	r4,2047
 142b40c:	493f9c1e 	bne	r9,r4,142b280 <__alt_data_end+0xfffeb280>
 142b410:	2807883a 	mov	r3,r5
 142b414:	3023883a 	mov	r17,r6
 142b418:	4821883a 	mov	r16,r9
 142b41c:	3825883a 	mov	r18,r7
 142b420:	003e9106 	br	142ae68 <__alt_data_end+0xfffeae68>
 142b424:	80001f1e 	bne	r16,zero,142b4a4 <__subdf3+0x6c0>
 142b428:	1c48b03a 	or	r4,r3,r17
 142b42c:	20005a26 	beq	r4,zero,142b598 <__subdf3+0x7b4>
 142b430:	0084303a 	nor	r2,zero,r2
 142b434:	1000561e 	bne	r2,zero,142b590 <__subdf3+0x7ac>
 142b438:	89a3883a 	add	r17,r17,r6
 142b43c:	1945883a 	add	r2,r3,r5
 142b440:	898d803a 	cmpltu	r6,r17,r6
 142b444:	3087883a 	add	r3,r6,r2
 142b448:	4821883a 	mov	r16,r9
 142b44c:	003f0506 	br	142b064 <__alt_data_end+0xfffeb064>
 142b450:	10002b1e 	bne	r2,zero,142b500 <__subdf3+0x71c>
 142b454:	2984b03a 	or	r2,r5,r6
 142b458:	10008026 	beq	r2,zero,142b65c <__subdf3+0x878>
 142b45c:	2807883a 	mov	r3,r5
 142b460:	3023883a 	mov	r17,r6
 142b464:	3825883a 	mov	r18,r7
 142b468:	0401ffc4 	movi	r16,2047
 142b46c:	003e7e06 	br	142ae68 <__alt_data_end+0xfffeae68>
 142b470:	3809883a 	mov	r4,r7
 142b474:	0011883a 	mov	r8,zero
 142b478:	0005883a 	mov	r2,zero
 142b47c:	003ee306 	br	142b00c <__alt_data_end+0xfffeb00c>
 142b480:	1c62b03a 	or	r17,r3,r17
 142b484:	8822c03a 	cmpne	r17,r17,zero
 142b488:	0005883a 	mov	r2,zero
 142b48c:	003f8906 	br	142b2b4 <__alt_data_end+0xfffeb2b4>
 142b490:	3809883a 	mov	r4,r7
 142b494:	4821883a 	mov	r16,r9
 142b498:	0011883a 	mov	r8,zero
 142b49c:	0005883a 	mov	r2,zero
 142b4a0:	003eda06 	br	142b00c <__alt_data_end+0xfffeb00c>
 142b4a4:	0101ffc4 	movi	r4,2047
 142b4a8:	49003b26 	beq	r9,r4,142b598 <__subdf3+0x7b4>
 142b4ac:	0085c83a 	sub	r2,zero,r2
 142b4b0:	18c02034 	orhi	r3,r3,128
 142b4b4:	01000e04 	movi	r4,56
 142b4b8:	20806e16 	blt	r4,r2,142b674 <__subdf3+0x890>
 142b4bc:	010007c4 	movi	r4,31
 142b4c0:	20807716 	blt	r4,r2,142b6a0 <__subdf3+0x8bc>
 142b4c4:	01000804 	movi	r4,32
 142b4c8:	2089c83a 	sub	r4,r4,r2
 142b4cc:	1914983a 	sll	r10,r3,r4
 142b4d0:	8890d83a 	srl	r8,r17,r2
 142b4d4:	8908983a 	sll	r4,r17,r4
 142b4d8:	1884d83a 	srl	r2,r3,r2
 142b4dc:	5222b03a 	or	r17,r10,r8
 142b4e0:	2006c03a 	cmpne	r3,r4,zero
 142b4e4:	88e2b03a 	or	r17,r17,r3
 142b4e8:	89a3883a 	add	r17,r17,r6
 142b4ec:	1145883a 	add	r2,r2,r5
 142b4f0:	898d803a 	cmpltu	r6,r17,r6
 142b4f4:	3087883a 	add	r3,r6,r2
 142b4f8:	4821883a 	mov	r16,r9
 142b4fc:	003ed906 	br	142b064 <__alt_data_end+0xfffeb064>
 142b500:	2984b03a 	or	r2,r5,r6
 142b504:	10004226 	beq	r2,zero,142b610 <__subdf3+0x82c>
 142b508:	1808d0fa 	srli	r4,r3,3
 142b50c:	8822d0fa 	srli	r17,r17,3
 142b510:	1806977a 	slli	r3,r3,29
 142b514:	2080022c 	andhi	r2,r4,8
 142b518:	1c62b03a 	or	r17,r3,r17
 142b51c:	10000826 	beq	r2,zero,142b540 <__subdf3+0x75c>
 142b520:	2812d0fa 	srli	r9,r5,3
 142b524:	4880022c 	andhi	r2,r9,8
 142b528:	1000051e 	bne	r2,zero,142b540 <__subdf3+0x75c>
 142b52c:	300cd0fa 	srli	r6,r6,3
 142b530:	2804977a 	slli	r2,r5,29
 142b534:	4809883a 	mov	r4,r9
 142b538:	3825883a 	mov	r18,r7
 142b53c:	11a2b03a 	or	r17,r2,r6
 142b540:	8806d77a 	srli	r3,r17,29
 142b544:	200890fa 	slli	r4,r4,3
 142b548:	882290fa 	slli	r17,r17,3
 142b54c:	0401ffc4 	movi	r16,2047
 142b550:	1906b03a 	or	r3,r3,r4
 142b554:	003e4406 	br	142ae68 <__alt_data_end+0xfffeae68>
 142b558:	2984b03a 	or	r2,r5,r6
 142b55c:	103e4226 	beq	r2,zero,142ae68 <__alt_data_end+0xfffeae68>
 142b560:	8989c83a 	sub	r4,r17,r6
 142b564:	8911803a 	cmpltu	r8,r17,r4
 142b568:	1945c83a 	sub	r2,r3,r5
 142b56c:	1205c83a 	sub	r2,r2,r8
 142b570:	1200202c 	andhi	r8,r2,128
 142b574:	403e9a26 	beq	r8,zero,142afe0 <__alt_data_end+0xfffeafe0>
 142b578:	3463c83a 	sub	r17,r6,r17
 142b57c:	28c5c83a 	sub	r2,r5,r3
 142b580:	344d803a 	cmpltu	r6,r6,r17
 142b584:	1187c83a 	sub	r3,r2,r6
 142b588:	3825883a 	mov	r18,r7
 142b58c:	003e3606 	br	142ae68 <__alt_data_end+0xfffeae68>
 142b590:	0101ffc4 	movi	r4,2047
 142b594:	493fc71e 	bne	r9,r4,142b4b4 <__alt_data_end+0xfffeb4b4>
 142b598:	2807883a 	mov	r3,r5
 142b59c:	3023883a 	mov	r17,r6
 142b5a0:	4821883a 	mov	r16,r9
 142b5a4:	003e3006 	br	142ae68 <__alt_data_end+0xfffeae68>
 142b5a8:	10003626 	beq	r2,zero,142b684 <__subdf3+0x8a0>
 142b5ac:	2984b03a 	or	r2,r5,r6
 142b5b0:	10001726 	beq	r2,zero,142b610 <__subdf3+0x82c>
 142b5b4:	1808d0fa 	srli	r4,r3,3
 142b5b8:	8822d0fa 	srli	r17,r17,3
 142b5bc:	1806977a 	slli	r3,r3,29
 142b5c0:	2080022c 	andhi	r2,r4,8
 142b5c4:	1c62b03a 	or	r17,r3,r17
 142b5c8:	10000726 	beq	r2,zero,142b5e8 <__subdf3+0x804>
 142b5cc:	2812d0fa 	srli	r9,r5,3
 142b5d0:	4880022c 	andhi	r2,r9,8
 142b5d4:	1000041e 	bne	r2,zero,142b5e8 <__subdf3+0x804>
 142b5d8:	300cd0fa 	srli	r6,r6,3
 142b5dc:	2804977a 	slli	r2,r5,29
 142b5e0:	4809883a 	mov	r4,r9
 142b5e4:	11a2b03a 	or	r17,r2,r6
 142b5e8:	8806d77a 	srli	r3,r17,29
 142b5ec:	200890fa 	slli	r4,r4,3
 142b5f0:	882290fa 	slli	r17,r17,3
 142b5f4:	3825883a 	mov	r18,r7
 142b5f8:	1906b03a 	or	r3,r3,r4
 142b5fc:	0401ffc4 	movi	r16,2047
 142b600:	003e1906 	br	142ae68 <__alt_data_end+0xfffeae68>
 142b604:	000b883a 	mov	r5,zero
 142b608:	0005883a 	mov	r2,zero
 142b60c:	003e2e06 	br	142aec8 <__alt_data_end+0xfffeaec8>
 142b610:	0401ffc4 	movi	r16,2047
 142b614:	003e1406 	br	142ae68 <__alt_data_end+0xfffeae68>
 142b618:	0005883a 	mov	r2,zero
 142b61c:	003f7506 	br	142b3f4 <__alt_data_end+0xfffeb3f4>
 142b620:	0005883a 	mov	r2,zero
 142b624:	0009883a 	mov	r4,zero
 142b628:	003e7806 	br	142b00c <__alt_data_end+0xfffeb00c>
 142b62c:	123ff804 	addi	r8,r2,-32
 142b630:	01000804 	movi	r4,32
 142b634:	1a10d83a 	srl	r8,r3,r8
 142b638:	11002526 	beq	r2,r4,142b6d0 <__subdf3+0x8ec>
 142b63c:	01001004 	movi	r4,64
 142b640:	2085c83a 	sub	r2,r4,r2
 142b644:	1884983a 	sll	r2,r3,r2
 142b648:	1444b03a 	or	r2,r2,r17
 142b64c:	1004c03a 	cmpne	r2,r2,zero
 142b650:	40a2b03a 	or	r17,r8,r2
 142b654:	0005883a 	mov	r2,zero
 142b658:	003f1606 	br	142b2b4 <__alt_data_end+0xfffeb2b4>
 142b65c:	02000434 	movhi	r8,16
 142b660:	0009883a 	mov	r4,zero
 142b664:	423fffc4 	addi	r8,r8,-1
 142b668:	00bfffc4 	movi	r2,-1
 142b66c:	0401ffc4 	movi	r16,2047
 142b670:	003e6606 	br	142b00c <__alt_data_end+0xfffeb00c>
 142b674:	1c62b03a 	or	r17,r3,r17
 142b678:	8822c03a 	cmpne	r17,r17,zero
 142b67c:	0005883a 	mov	r2,zero
 142b680:	003f9906 	br	142b4e8 <__alt_data_end+0xfffeb4e8>
 142b684:	2807883a 	mov	r3,r5
 142b688:	3023883a 	mov	r17,r6
 142b68c:	0401ffc4 	movi	r16,2047
 142b690:	003df506 	br	142ae68 <__alt_data_end+0xfffeae68>
 142b694:	2807883a 	mov	r3,r5
 142b698:	3023883a 	mov	r17,r6
 142b69c:	003df206 	br	142ae68 <__alt_data_end+0xfffeae68>
 142b6a0:	123ff804 	addi	r8,r2,-32
 142b6a4:	01000804 	movi	r4,32
 142b6a8:	1a10d83a 	srl	r8,r3,r8
 142b6ac:	11000a26 	beq	r2,r4,142b6d8 <__subdf3+0x8f4>
 142b6b0:	01001004 	movi	r4,64
 142b6b4:	2085c83a 	sub	r2,r4,r2
 142b6b8:	1884983a 	sll	r2,r3,r2
 142b6bc:	1444b03a 	or	r2,r2,r17
 142b6c0:	1004c03a 	cmpne	r2,r2,zero
 142b6c4:	40a2b03a 	or	r17,r8,r2
 142b6c8:	0005883a 	mov	r2,zero
 142b6cc:	003f8606 	br	142b4e8 <__alt_data_end+0xfffeb4e8>
 142b6d0:	0005883a 	mov	r2,zero
 142b6d4:	003fdc06 	br	142b648 <__alt_data_end+0xfffeb648>
 142b6d8:	0005883a 	mov	r2,zero
 142b6dc:	003ff706 	br	142b6bc <__alt_data_end+0xfffeb6bc>

0142b6e0 <__fixdfsi>:
 142b6e0:	280cd53a 	srli	r6,r5,20
 142b6e4:	00c00434 	movhi	r3,16
 142b6e8:	18ffffc4 	addi	r3,r3,-1
 142b6ec:	3181ffcc 	andi	r6,r6,2047
 142b6f0:	01c0ff84 	movi	r7,1022
 142b6f4:	28c6703a 	and	r3,r5,r3
 142b6f8:	280ad7fa 	srli	r5,r5,31
 142b6fc:	3980120e 	bge	r7,r6,142b748 <__fixdfsi+0x68>
 142b700:	00810744 	movi	r2,1053
 142b704:	11800c16 	blt	r2,r6,142b738 <__fixdfsi+0x58>
 142b708:	00810cc4 	movi	r2,1075
 142b70c:	1185c83a 	sub	r2,r2,r6
 142b710:	01c007c4 	movi	r7,31
 142b714:	18c00434 	orhi	r3,r3,16
 142b718:	38800d16 	blt	r7,r2,142b750 <__fixdfsi+0x70>
 142b71c:	31befb44 	addi	r6,r6,-1043
 142b720:	2084d83a 	srl	r2,r4,r2
 142b724:	1986983a 	sll	r3,r3,r6
 142b728:	1884b03a 	or	r2,r3,r2
 142b72c:	28000726 	beq	r5,zero,142b74c <__fixdfsi+0x6c>
 142b730:	0085c83a 	sub	r2,zero,r2
 142b734:	f800283a 	ret
 142b738:	00a00034 	movhi	r2,32768
 142b73c:	10bfffc4 	addi	r2,r2,-1
 142b740:	2885883a 	add	r2,r5,r2
 142b744:	f800283a 	ret
 142b748:	0005883a 	mov	r2,zero
 142b74c:	f800283a 	ret
 142b750:	008104c4 	movi	r2,1043
 142b754:	1185c83a 	sub	r2,r2,r6
 142b758:	1884d83a 	srl	r2,r3,r2
 142b75c:	003ff306 	br	142b72c <__alt_data_end+0xfffeb72c>

0142b760 <__floatsidf>:
 142b760:	defffd04 	addi	sp,sp,-12
 142b764:	dfc00215 	stw	ra,8(sp)
 142b768:	dc400115 	stw	r17,4(sp)
 142b76c:	dc000015 	stw	r16,0(sp)
 142b770:	20002b26 	beq	r4,zero,142b820 <__floatsidf+0xc0>
 142b774:	2023883a 	mov	r17,r4
 142b778:	2020d7fa 	srli	r16,r4,31
 142b77c:	20002d16 	blt	r4,zero,142b834 <__floatsidf+0xd4>
 142b780:	8809883a 	mov	r4,r17
 142b784:	142be040 	call	142be04 <__clzsi2>
 142b788:	01410784 	movi	r5,1054
 142b78c:	288bc83a 	sub	r5,r5,r2
 142b790:	01010cc4 	movi	r4,1075
 142b794:	2149c83a 	sub	r4,r4,r5
 142b798:	00c007c4 	movi	r3,31
 142b79c:	1900160e 	bge	r3,r4,142b7f8 <__floatsidf+0x98>
 142b7a0:	00c104c4 	movi	r3,1043
 142b7a4:	1947c83a 	sub	r3,r3,r5
 142b7a8:	88c6983a 	sll	r3,r17,r3
 142b7ac:	00800434 	movhi	r2,16
 142b7b0:	10bfffc4 	addi	r2,r2,-1
 142b7b4:	1886703a 	and	r3,r3,r2
 142b7b8:	2941ffcc 	andi	r5,r5,2047
 142b7bc:	800d883a 	mov	r6,r16
 142b7c0:	0005883a 	mov	r2,zero
 142b7c4:	280a953a 	slli	r5,r5,20
 142b7c8:	31803fcc 	andi	r6,r6,255
 142b7cc:	01000434 	movhi	r4,16
 142b7d0:	300c97fa 	slli	r6,r6,31
 142b7d4:	213fffc4 	addi	r4,r4,-1
 142b7d8:	1906703a 	and	r3,r3,r4
 142b7dc:	1946b03a 	or	r3,r3,r5
 142b7e0:	1986b03a 	or	r3,r3,r6
 142b7e4:	dfc00217 	ldw	ra,8(sp)
 142b7e8:	dc400117 	ldw	r17,4(sp)
 142b7ec:	dc000017 	ldw	r16,0(sp)
 142b7f0:	dec00304 	addi	sp,sp,12
 142b7f4:	f800283a 	ret
 142b7f8:	00c002c4 	movi	r3,11
 142b7fc:	1887c83a 	sub	r3,r3,r2
 142b800:	88c6d83a 	srl	r3,r17,r3
 142b804:	8904983a 	sll	r2,r17,r4
 142b808:	01000434 	movhi	r4,16
 142b80c:	213fffc4 	addi	r4,r4,-1
 142b810:	2941ffcc 	andi	r5,r5,2047
 142b814:	1906703a 	and	r3,r3,r4
 142b818:	800d883a 	mov	r6,r16
 142b81c:	003fe906 	br	142b7c4 <__alt_data_end+0xfffeb7c4>
 142b820:	000d883a 	mov	r6,zero
 142b824:	000b883a 	mov	r5,zero
 142b828:	0007883a 	mov	r3,zero
 142b82c:	0005883a 	mov	r2,zero
 142b830:	003fe406 	br	142b7c4 <__alt_data_end+0xfffeb7c4>
 142b834:	0123c83a 	sub	r17,zero,r4
 142b838:	003fd106 	br	142b780 <__alt_data_end+0xfffeb780>

0142b83c <__floatunsidf>:
 142b83c:	defffe04 	addi	sp,sp,-8
 142b840:	dc000015 	stw	r16,0(sp)
 142b844:	dfc00115 	stw	ra,4(sp)
 142b848:	2021883a 	mov	r16,r4
 142b84c:	20002226 	beq	r4,zero,142b8d8 <__floatunsidf+0x9c>
 142b850:	142be040 	call	142be04 <__clzsi2>
 142b854:	01010784 	movi	r4,1054
 142b858:	2089c83a 	sub	r4,r4,r2
 142b85c:	01810cc4 	movi	r6,1075
 142b860:	310dc83a 	sub	r6,r6,r4
 142b864:	00c007c4 	movi	r3,31
 142b868:	1980120e 	bge	r3,r6,142b8b4 <__floatunsidf+0x78>
 142b86c:	00c104c4 	movi	r3,1043
 142b870:	1907c83a 	sub	r3,r3,r4
 142b874:	80ca983a 	sll	r5,r16,r3
 142b878:	00800434 	movhi	r2,16
 142b87c:	10bfffc4 	addi	r2,r2,-1
 142b880:	2101ffcc 	andi	r4,r4,2047
 142b884:	0021883a 	mov	r16,zero
 142b888:	288a703a 	and	r5,r5,r2
 142b88c:	2008953a 	slli	r4,r4,20
 142b890:	00c00434 	movhi	r3,16
 142b894:	18ffffc4 	addi	r3,r3,-1
 142b898:	28c6703a 	and	r3,r5,r3
 142b89c:	8005883a 	mov	r2,r16
 142b8a0:	1906b03a 	or	r3,r3,r4
 142b8a4:	dfc00117 	ldw	ra,4(sp)
 142b8a8:	dc000017 	ldw	r16,0(sp)
 142b8ac:	dec00204 	addi	sp,sp,8
 142b8b0:	f800283a 	ret
 142b8b4:	00c002c4 	movi	r3,11
 142b8b8:	188bc83a 	sub	r5,r3,r2
 142b8bc:	814ad83a 	srl	r5,r16,r5
 142b8c0:	00c00434 	movhi	r3,16
 142b8c4:	18ffffc4 	addi	r3,r3,-1
 142b8c8:	81a0983a 	sll	r16,r16,r6
 142b8cc:	2101ffcc 	andi	r4,r4,2047
 142b8d0:	28ca703a 	and	r5,r5,r3
 142b8d4:	003fed06 	br	142b88c <__alt_data_end+0xfffeb88c>
 142b8d8:	0009883a 	mov	r4,zero
 142b8dc:	000b883a 	mov	r5,zero
 142b8e0:	003fea06 	br	142b88c <__alt_data_end+0xfffeb88c>

0142b8e4 <_Unwind_ForcedUnwind_Phase2>:
 142b8e4:	defff404 	addi	sp,sp,-48
 142b8e8:	dd800915 	stw	r22,36(sp)
 142b8ec:	058050f4 	movhi	r22,323
 142b8f0:	ddc00a15 	stw	r23,40(sp)
 142b8f4:	dd400815 	stw	r21,32(sp)
 142b8f8:	dd000715 	stw	r20,28(sp)
 142b8fc:	dcc00615 	stw	r19,24(sp)
 142b900:	dc400415 	stw	r17,16(sp)
 142b904:	dc000315 	stw	r16,12(sp)
 142b908:	dfc00b15 	stw	ra,44(sp)
 142b90c:	dc800515 	stw	r18,20(sp)
 142b910:	2021883a 	mov	r16,r4
 142b914:	2823883a 	mov	r17,r5
 142b918:	24c00317 	ldw	r19,12(r4)
 142b91c:	25000417 	ldw	r20,16(r4)
 142b920:	28c00017 	ldw	r3,0(r5)
 142b924:	b5bd2704 	addi	r22,r22,-2916
 142b928:	054001c4 	movi	r21,7
 142b92c:	05c00204 	movi	r23,8
 142b930:	00001606 	br	142b98c <_Unwind_ForcedUnwind_Phase2+0xa8>
 142b934:	81800017 	ldw	r6,0(r16)
 142b938:	81c00117 	ldw	r7,4(r16)
 142b93c:	1c800617 	ldw	r18,24(r3)
 142b940:	dd000215 	stw	r20,8(sp)
 142b944:	dc400115 	stw	r17,4(sp)
 142b948:	dc000015 	stw	r16,0(sp)
 142b94c:	983ee83a 	callr	r19
 142b950:	01400284 	movi	r5,10
 142b954:	01000044 	movi	r4,1
 142b958:	1000241e 	bne	r2,zero,142b9ec <_Unwind_ForcedUnwind_Phase2+0x108>
 142b95c:	90000726 	beq	r18,zero,142b97c <_Unwind_ForcedUnwind_Phase2+0x98>
 142b960:	81800017 	ldw	r6,0(r16)
 142b964:	81c00117 	ldw	r7,4(r16)
 142b968:	dc400115 	stw	r17,4(sp)
 142b96c:	dc000015 	stw	r16,0(sp)
 142b970:	903ee83a 	callr	r18
 142b974:	15401f26 	beq	r2,r21,142b9f4 <_Unwind_ForcedUnwind_Phase2+0x110>
 142b978:	15c01c1e 	bne	r2,r23,142b9ec <_Unwind_ForcedUnwind_Phase2+0x108>
 142b97c:	88800017 	ldw	r2,0(r17)
 142b980:	10c00017 	ldw	r3,0(r2)
 142b984:	b0c00015 	stw	r3,0(r22)
 142b988:	88c00015 	stw	r3,0(r17)
 142b98c:	01400284 	movi	r5,10
 142b990:	01000044 	movi	r4,1
 142b994:	183fe71e 	bne	r3,zero,142b934 <__alt_data_end+0xfffeb934>
 142b998:	81800017 	ldw	r6,0(r16)
 142b99c:	81c00117 	ldw	r7,4(r16)
 142b9a0:	01400684 	movi	r5,26
 142b9a4:	dd000215 	stw	r20,8(sp)
 142b9a8:	dc400115 	stw	r17,4(sp)
 142b9ac:	dc000015 	stw	r16,0(sp)
 142b9b0:	01000044 	movi	r4,1
 142b9b4:	983ee83a 	callr	r19
 142b9b8:	10000c1e 	bne	r2,zero,142b9ec <_Unwind_ForcedUnwind_Phase2+0x108>
 142b9bc:	00800144 	movi	r2,5
 142b9c0:	dfc00b17 	ldw	ra,44(sp)
 142b9c4:	ddc00a17 	ldw	r23,40(sp)
 142b9c8:	dd800917 	ldw	r22,36(sp)
 142b9cc:	dd400817 	ldw	r21,32(sp)
 142b9d0:	dd000717 	ldw	r20,28(sp)
 142b9d4:	dcc00617 	ldw	r19,24(sp)
 142b9d8:	dc800517 	ldw	r18,20(sp)
 142b9dc:	dc400417 	ldw	r17,16(sp)
 142b9e0:	dc000317 	ldw	r16,12(sp)
 142b9e4:	dec00c04 	addi	sp,sp,48
 142b9e8:	f800283a 	ret
 142b9ec:	00800084 	movi	r2,2
 142b9f0:	003ff306 	br	142b9c0 <__alt_data_end+0xfffeb9c0>
 142b9f4:	a805883a 	mov	r2,r21
 142b9f8:	003ff106 	br	142b9c0 <__alt_data_end+0xfffeb9c0>

0142b9fc <_Unwind_RaiseException_Phase2>:
 142b9fc:	28c00017 	ldw	r3,0(r5)
 142ba00:	defff804 	addi	sp,sp,-32
 142ba04:	dcc00515 	stw	r19,20(sp)
 142ba08:	dc800415 	stw	r18,16(sp)
 142ba0c:	dc400315 	stw	r17,12(sp)
 142ba10:	dc000215 	stw	r16,8(sp)
 142ba14:	dfc00715 	stw	ra,28(sp)
 142ba18:	dd000615 	stw	r20,24(sp)
 142ba1c:	2823883a 	mov	r17,r5
 142ba20:	2021883a 	mov	r16,r4
 142ba24:	048001c4 	movi	r18,7
 142ba28:	04c00204 	movi	r19,8
 142ba2c:	18001326 	beq	r3,zero,142ba7c <_Unwind_RaiseException_Phase2+0x80>
 142ba30:	81000417 	ldw	r4,16(r16)
 142ba34:	1a000617 	ldw	r8,24(r3)
 142ba38:	19001926 	beq	r3,r4,142baa0 <_Unwind_RaiseException_Phase2+0xa4>
 142ba3c:	40000c26 	beq	r8,zero,142ba70 <_Unwind_RaiseException_Phase2+0x74>
 142ba40:	01400084 	movi	r5,2
 142ba44:	0029883a 	mov	r20,zero
 142ba48:	81800017 	ldw	r6,0(r16)
 142ba4c:	81c00117 	ldw	r7,4(r16)
 142ba50:	01000044 	movi	r4,1
 142ba54:	dc400115 	stw	r17,4(sp)
 142ba58:	dc000015 	stw	r16,0(sp)
 142ba5c:	403ee83a 	callr	r8
 142ba60:	14801326 	beq	r2,r18,142bab0 <_Unwind_RaiseException_Phase2+0xb4>
 142ba64:	14c0051e 	bne	r2,r19,142ba7c <_Unwind_RaiseException_Phase2+0x80>
 142ba68:	a000131e 	bne	r20,zero,142bab8 <_Unwind_RaiseException_Phase2+0xbc>
 142ba6c:	88c00017 	ldw	r3,0(r17)
 142ba70:	18c00017 	ldw	r3,0(r3)
 142ba74:	88c00015 	stw	r3,0(r17)
 142ba78:	183fed1e 	bne	r3,zero,142ba30 <__alt_data_end+0xfffeba30>
 142ba7c:	00800084 	movi	r2,2
 142ba80:	dfc00717 	ldw	ra,28(sp)
 142ba84:	dd000617 	ldw	r20,24(sp)
 142ba88:	dcc00517 	ldw	r19,20(sp)
 142ba8c:	dc800417 	ldw	r18,16(sp)
 142ba90:	dc400317 	ldw	r17,12(sp)
 142ba94:	dc000217 	ldw	r16,8(sp)
 142ba98:	dec00804 	addi	sp,sp,32
 142ba9c:	f800283a 	ret
 142baa0:	40000526 	beq	r8,zero,142bab8 <_Unwind_RaiseException_Phase2+0xbc>
 142baa4:	01400184 	movi	r5,6
 142baa8:	05000104 	movi	r20,4
 142baac:	003fe606 	br	142ba48 <__alt_data_end+0xfffeba48>
 142bab0:	9005883a 	mov	r2,r18
 142bab4:	003ff206 	br	142ba80 <__alt_data_end+0xfffeba80>
 142bab8:	142be680 	call	142be68 <abort>

0142babc <uw_install_context.isra.1>:
 142babc:	20c00017 	ldw	r3,0(r4)
 142bac0:	deffff04 	addi	sp,sp,-4
 142bac4:	014050f4 	movhi	r5,323
 142bac8:	19000917 	ldw	r4,36(r3)
 142bacc:	df000015 	stw	fp,0(sp)
 142bad0:	18800804 	addi	r2,r3,32
 142bad4:	d839883a 	mov	fp,sp
 142bad8:	297d2704 	addi	r5,r5,-2916
 142badc:	28c00015 	stw	r3,0(r5)
 142bae0:	17000017 	ldw	fp,0(r2)
 142bae4:	1ec00a17 	ldw	sp,40(r3)
 142bae8:	2000683a 	jmp	r4

0142baec <_Unwind_SjLj_Register>:
 142baec:	008050f4 	movhi	r2,323
 142baf0:	10bd2704 	addi	r2,r2,-2916
 142baf4:	10c00017 	ldw	r3,0(r2)
 142baf8:	11000015 	stw	r4,0(r2)
 142bafc:	20c00015 	stw	r3,0(r4)
 142bb00:	f800283a 	ret

0142bb04 <_Unwind_SjLj_Unregister>:
 142bb04:	20c00017 	ldw	r3,0(r4)
 142bb08:	008050f4 	movhi	r2,323
 142bb0c:	10bd2704 	addi	r2,r2,-2916
 142bb10:	10c00015 	stw	r3,0(r2)
 142bb14:	f800283a 	ret

0142bb18 <_Unwind_GetGR>:
 142bb18:	20800017 	ldw	r2,0(r4)
 142bb1c:	29400084 	addi	r5,r5,2
 142bb20:	294b883a 	add	r5,r5,r5
 142bb24:	294b883a 	add	r5,r5,r5
 142bb28:	114b883a 	add	r5,r2,r5
 142bb2c:	28800017 	ldw	r2,0(r5)
 142bb30:	f800283a 	ret

0142bb34 <_Unwind_GetCFA>:
 142bb34:	20800017 	ldw	r2,0(r4)
 142bb38:	10000226 	beq	r2,zero,142bb44 <_Unwind_GetCFA+0x10>
 142bb3c:	10800a17 	ldw	r2,40(r2)
 142bb40:	f800283a 	ret
 142bb44:	0005883a 	mov	r2,zero
 142bb48:	f800283a 	ret

0142bb4c <_Unwind_SetGR>:
 142bb4c:	20800017 	ldw	r2,0(r4)
 142bb50:	29400084 	addi	r5,r5,2
 142bb54:	294b883a 	add	r5,r5,r5
 142bb58:	294b883a 	add	r5,r5,r5
 142bb5c:	114b883a 	add	r5,r2,r5
 142bb60:	29800015 	stw	r6,0(r5)
 142bb64:	f800283a 	ret

0142bb68 <_Unwind_GetIP>:
 142bb68:	20800017 	ldw	r2,0(r4)
 142bb6c:	10800117 	ldw	r2,4(r2)
 142bb70:	10800044 	addi	r2,r2,1
 142bb74:	f800283a 	ret

0142bb78 <_Unwind_GetIPInfo>:
 142bb78:	20800017 	ldw	r2,0(r4)
 142bb7c:	28000015 	stw	zero,0(r5)
 142bb80:	10000326 	beq	r2,zero,142bb90 <_Unwind_GetIPInfo+0x18>
 142bb84:	10800117 	ldw	r2,4(r2)
 142bb88:	10800044 	addi	r2,r2,1
 142bb8c:	f800283a 	ret
 142bb90:	0005883a 	mov	r2,zero
 142bb94:	f800283a 	ret

0142bb98 <_Unwind_SetIP>:
 142bb98:	20800017 	ldw	r2,0(r4)
 142bb9c:	297fffc4 	addi	r5,r5,-1
 142bba0:	11400115 	stw	r5,4(r2)
 142bba4:	f800283a 	ret

0142bba8 <_Unwind_GetLanguageSpecificData>:
 142bba8:	20800017 	ldw	r2,0(r4)
 142bbac:	10800717 	ldw	r2,28(r2)
 142bbb0:	f800283a 	ret

0142bbb4 <_Unwind_GetRegionStart>:
 142bbb4:	0005883a 	mov	r2,zero
 142bbb8:	f800283a 	ret

0142bbbc <_Unwind_FindEnclosingFunction>:
 142bbbc:	0005883a 	mov	r2,zero
 142bbc0:	f800283a 	ret

0142bbc4 <_Unwind_GetDataRelBase>:
 142bbc4:	0005883a 	mov	r2,zero
 142bbc8:	f800283a 	ret

0142bbcc <_Unwind_GetTextRelBase>:
 142bbcc:	0005883a 	mov	r2,zero
 142bbd0:	f800283a 	ret

0142bbd4 <_Unwind_SjLj_RaiseException>:
 142bbd4:	008050f4 	movhi	r2,323
 142bbd8:	defff804 	addi	sp,sp,-32
 142bbdc:	10bd2704 	addi	r2,r2,-2916
 142bbe0:	dc800515 	stw	r18,20(sp)
 142bbe4:	14800017 	ldw	r18,0(r2)
 142bbe8:	dfc00715 	stw	ra,28(sp)
 142bbec:	dcc00615 	stw	r19,24(sp)
 142bbf0:	dc400415 	stw	r17,16(sp)
 142bbf4:	dc000315 	stw	r16,12(sp)
 142bbf8:	dc800215 	stw	r18,8(sp)
 142bbfc:	90001426 	beq	r18,zero,142bc50 <_Unwind_SjLj_RaiseException+0x7c>
 142bc00:	2021883a 	mov	r16,r4
 142bc04:	9005883a 	mov	r2,r18
 142bc08:	04400184 	movi	r17,6
 142bc0c:	04c00204 	movi	r19,8
 142bc10:	10800617 	ldw	r2,24(r2)
 142bc14:	10000a26 	beq	r2,zero,142bc40 <_Unwind_SjLj_RaiseException+0x6c>
 142bc18:	81800017 	ldw	r6,0(r16)
 142bc1c:	81c00117 	ldw	r7,4(r16)
 142bc20:	01400044 	movi	r5,1
 142bc24:	d8c00204 	addi	r3,sp,8
 142bc28:	d8c00115 	stw	r3,4(sp)
 142bc2c:	dc000015 	stw	r16,0(sp)
 142bc30:	2809883a 	mov	r4,r5
 142bc34:	103ee83a 	callr	r2
 142bc38:	14400d26 	beq	r2,r17,142bc70 <_Unwind_SjLj_RaiseException+0x9c>
 142bc3c:	14c0171e 	bne	r2,r19,142bc9c <_Unwind_SjLj_RaiseException+0xc8>
 142bc40:	d8800217 	ldw	r2,8(sp)
 142bc44:	10800017 	ldw	r2,0(r2)
 142bc48:	d8800215 	stw	r2,8(sp)
 142bc4c:	103ff01e 	bne	r2,zero,142bc10 <__alt_data_end+0xfffebc10>
 142bc50:	00800144 	movi	r2,5
 142bc54:	dfc00717 	ldw	ra,28(sp)
 142bc58:	dcc00617 	ldw	r19,24(sp)
 142bc5c:	dc800517 	ldw	r18,20(sp)
 142bc60:	dc400417 	ldw	r17,16(sp)
 142bc64:	dc000317 	ldw	r16,12(sp)
 142bc68:	dec00804 	addi	sp,sp,32
 142bc6c:	f800283a 	ret
 142bc70:	d8800217 	ldw	r2,8(sp)
 142bc74:	80000315 	stw	zero,12(r16)
 142bc78:	d9400204 	addi	r5,sp,8
 142bc7c:	80800415 	stw	r2,16(r16)
 142bc80:	8009883a 	mov	r4,r16
 142bc84:	dc800215 	stw	r18,8(sp)
 142bc88:	142b9fc0 	call	142b9fc <_Unwind_RaiseException_Phase2>
 142bc8c:	00c001c4 	movi	r3,7
 142bc90:	10fff01e 	bne	r2,r3,142bc54 <__alt_data_end+0xfffebc54>
 142bc94:	d9000204 	addi	r4,sp,8
 142bc98:	142babc0 	call	142babc <uw_install_context.isra.1>
 142bc9c:	008000c4 	movi	r2,3
 142bca0:	003fec06 	br	142bc54 <__alt_data_end+0xfffebc54>

0142bca4 <_Unwind_SjLj_ForcedUnwind>:
 142bca4:	00c050f4 	movhi	r3,323
 142bca8:	18fd2704 	addi	r3,r3,-2916
 142bcac:	defffe04 	addi	sp,sp,-8
 142bcb0:	18c00017 	ldw	r3,0(r3)
 142bcb4:	dfc00115 	stw	ra,4(sp)
 142bcb8:	21400315 	stw	r5,12(r4)
 142bcbc:	21800415 	stw	r6,16(r4)
 142bcc0:	d80b883a 	mov	r5,sp
 142bcc4:	d8c00015 	stw	r3,0(sp)
 142bcc8:	142b8e40 	call	142b8e4 <_Unwind_ForcedUnwind_Phase2>
 142bccc:	00c001c4 	movi	r3,7
 142bcd0:	10c00326 	beq	r2,r3,142bce0 <_Unwind_SjLj_ForcedUnwind+0x3c>
 142bcd4:	dfc00117 	ldw	ra,4(sp)
 142bcd8:	dec00204 	addi	sp,sp,8
 142bcdc:	f800283a 	ret
 142bce0:	d809883a 	mov	r4,sp
 142bce4:	142babc0 	call	142babc <uw_install_context.isra.1>

0142bce8 <_Unwind_SjLj_Resume>:
 142bce8:	00c050f4 	movhi	r3,323
 142bcec:	18fd2704 	addi	r3,r3,-2916
 142bcf0:	18c00017 	ldw	r3,0(r3)
 142bcf4:	20800317 	ldw	r2,12(r4)
 142bcf8:	defffe04 	addi	sp,sp,-8
 142bcfc:	dfc00115 	stw	ra,4(sp)
 142bd00:	d8c00015 	stw	r3,0(sp)
 142bd04:	d80b883a 	mov	r5,sp
 142bd08:	1000041e 	bne	r2,zero,142bd1c <_Unwind_SjLj_Resume+0x34>
 142bd0c:	142b9fc0 	call	142b9fc <_Unwind_RaiseException_Phase2>
 142bd10:	00c001c4 	movi	r3,7
 142bd14:	10c00326 	beq	r2,r3,142bd24 <_Unwind_SjLj_Resume+0x3c>
 142bd18:	142be680 	call	142be68 <abort>
 142bd1c:	142b8e40 	call	142b8e4 <_Unwind_ForcedUnwind_Phase2>
 142bd20:	003ffb06 	br	142bd10 <__alt_data_end+0xfffebd10>
 142bd24:	d809883a 	mov	r4,sp
 142bd28:	142babc0 	call	142babc <uw_install_context.isra.1>

0142bd2c <_Unwind_SjLj_Resume_or_Rethrow>:
 142bd2c:	20800317 	ldw	r2,12(r4)
 142bd30:	defffe04 	addi	sp,sp,-8
 142bd34:	dfc00115 	stw	ra,4(sp)
 142bd38:	1000041e 	bne	r2,zero,142bd4c <_Unwind_SjLj_Resume_or_Rethrow+0x20>
 142bd3c:	142bbd40 	call	142bbd4 <_Unwind_SjLj_RaiseException>
 142bd40:	dfc00117 	ldw	ra,4(sp)
 142bd44:	dec00204 	addi	sp,sp,8
 142bd48:	f800283a 	ret
 142bd4c:	008050f4 	movhi	r2,323
 142bd50:	10bd2704 	addi	r2,r2,-2916
 142bd54:	10800017 	ldw	r2,0(r2)
 142bd58:	d80b883a 	mov	r5,sp
 142bd5c:	d8800015 	stw	r2,0(sp)
 142bd60:	142b8e40 	call	142b8e4 <_Unwind_ForcedUnwind_Phase2>
 142bd64:	00c001c4 	movi	r3,7
 142bd68:	10c00126 	beq	r2,r3,142bd70 <_Unwind_SjLj_Resume_or_Rethrow+0x44>
 142bd6c:	142be680 	call	142be68 <abort>
 142bd70:	d809883a 	mov	r4,sp
 142bd74:	142babc0 	call	142babc <uw_install_context.isra.1>

0142bd78 <_Unwind_DeleteException>:
 142bd78:	20800217 	ldw	r2,8(r4)
 142bd7c:	10000326 	beq	r2,zero,142bd8c <_Unwind_DeleteException+0x14>
 142bd80:	200b883a 	mov	r5,r4
 142bd84:	01000044 	movi	r4,1
 142bd88:	1000683a 	jmp	r2
 142bd8c:	f800283a 	ret

0142bd90 <_Unwind_Backtrace>:
 142bd90:	008050f4 	movhi	r2,323
 142bd94:	10bd2704 	addi	r2,r2,-2916
 142bd98:	10800017 	ldw	r2,0(r2)
 142bd9c:	defffc04 	addi	sp,sp,-16
 142bda0:	dc400215 	stw	r17,8(sp)
 142bda4:	dc000115 	stw	r16,4(sp)
 142bda8:	dfc00315 	stw	ra,12(sp)
 142bdac:	2023883a 	mov	r17,r4
 142bdb0:	2821883a 	mov	r16,r5
 142bdb4:	d8800015 	stw	r2,0(sp)
 142bdb8:	00000506 	br	142bdd0 <_Unwind_Backtrace+0x40>
 142bdbc:	883ee83a 	callr	r17
 142bdc0:	10000e1e 	bne	r2,zero,142bdfc <_Unwind_Backtrace+0x6c>
 142bdc4:	d8800017 	ldw	r2,0(sp)
 142bdc8:	10800017 	ldw	r2,0(r2)
 142bdcc:	d8800015 	stw	r2,0(sp)
 142bdd0:	800b883a 	mov	r5,r16
 142bdd4:	d809883a 	mov	r4,sp
 142bdd8:	103ff81e 	bne	r2,zero,142bdbc <__alt_data_end+0xfffebdbc>
 142bddc:	883ee83a 	callr	r17
 142bde0:	1000061e 	bne	r2,zero,142bdfc <_Unwind_Backtrace+0x6c>
 142bde4:	00800144 	movi	r2,5
 142bde8:	dfc00317 	ldw	ra,12(sp)
 142bdec:	dc400217 	ldw	r17,8(sp)
 142bdf0:	dc000117 	ldw	r16,4(sp)
 142bdf4:	dec00404 	addi	sp,sp,16
 142bdf8:	f800283a 	ret
 142bdfc:	008000c4 	movi	r2,3
 142be00:	003ff906 	br	142bde8 <__alt_data_end+0xfffebde8>

0142be04 <__clzsi2>:
 142be04:	00bfffd4 	movui	r2,65535
 142be08:	11000536 	bltu	r2,r4,142be20 <__clzsi2+0x1c>
 142be0c:	00803fc4 	movi	r2,255
 142be10:	11000f36 	bltu	r2,r4,142be50 <__clzsi2+0x4c>
 142be14:	00800804 	movi	r2,32
 142be18:	0007883a 	mov	r3,zero
 142be1c:	00000506 	br	142be34 <__clzsi2+0x30>
 142be20:	00804034 	movhi	r2,256
 142be24:	10bfffc4 	addi	r2,r2,-1
 142be28:	11000c2e 	bgeu	r2,r4,142be5c <__clzsi2+0x58>
 142be2c:	00800204 	movi	r2,8
 142be30:	00c00604 	movi	r3,24
 142be34:	20c8d83a 	srl	r4,r4,r3
 142be38:	00c050f4 	movhi	r3,323
 142be3c:	18f7be04 	addi	r3,r3,-8456
 142be40:	1909883a 	add	r4,r3,r4
 142be44:	20c00003 	ldbu	r3,0(r4)
 142be48:	10c5c83a 	sub	r2,r2,r3
 142be4c:	f800283a 	ret
 142be50:	00800604 	movi	r2,24
 142be54:	00c00204 	movi	r3,8
 142be58:	003ff606 	br	142be34 <__alt_data_end+0xfffebe34>
 142be5c:	00800404 	movi	r2,16
 142be60:	1007883a 	mov	r3,r2
 142be64:	003ff306 	br	142be34 <__alt_data_end+0xfffebe34>

0142be68 <abort>:
 142be68:	deffff04 	addi	sp,sp,-4
 142be6c:	01000184 	movi	r4,6
 142be70:	dfc00015 	stw	ra,0(sp)
 142be74:	142ca840 	call	142ca84 <raise>
 142be78:	01000044 	movi	r4,1
 142be7c:	142d0440 	call	142d044 <_exit>

0142be80 <malloc>:
 142be80:	008050f4 	movhi	r2,323
 142be84:	10ba8404 	addi	r2,r2,-5616
 142be88:	200b883a 	mov	r5,r4
 142be8c:	11000017 	ldw	r4,0(r2)
 142be90:	142bea81 	jmpi	142bea8 <_malloc_r>

0142be94 <free>:
 142be94:	008050f4 	movhi	r2,323
 142be98:	10ba8404 	addi	r2,r2,-5616
 142be9c:	200b883a 	mov	r5,r4
 142bea0:	11000017 	ldw	r4,0(r2)
 142bea4:	142cd341 	jmpi	142cd34 <_free_r>

0142bea8 <_malloc_r>:
 142bea8:	defff504 	addi	sp,sp,-44
 142beac:	dc800315 	stw	r18,12(sp)
 142beb0:	dfc00a15 	stw	ra,40(sp)
 142beb4:	df000915 	stw	fp,36(sp)
 142beb8:	ddc00815 	stw	r23,32(sp)
 142bebc:	dd800715 	stw	r22,28(sp)
 142bec0:	dd400615 	stw	r21,24(sp)
 142bec4:	dd000515 	stw	r20,20(sp)
 142bec8:	dcc00415 	stw	r19,16(sp)
 142becc:	dc400215 	stw	r17,8(sp)
 142bed0:	dc000115 	stw	r16,4(sp)
 142bed4:	288002c4 	addi	r2,r5,11
 142bed8:	00c00584 	movi	r3,22
 142bedc:	2025883a 	mov	r18,r4
 142bee0:	18807f2e 	bgeu	r3,r2,142c0e0 <_malloc_r+0x238>
 142bee4:	047ffe04 	movi	r17,-8
 142bee8:	1462703a 	and	r17,r2,r17
 142beec:	8800a316 	blt	r17,zero,142c17c <_malloc_r+0x2d4>
 142bef0:	8940a236 	bltu	r17,r5,142c17c <_malloc_r+0x2d4>
 142bef4:	142d3500 	call	142d350 <__malloc_lock>
 142bef8:	00807dc4 	movi	r2,503
 142befc:	1441e92e 	bgeu	r2,r17,142c6a4 <_malloc_r+0x7fc>
 142bf00:	8804d27a 	srli	r2,r17,9
 142bf04:	1000a126 	beq	r2,zero,142c18c <_malloc_r+0x2e4>
 142bf08:	00c00104 	movi	r3,4
 142bf0c:	18811e36 	bltu	r3,r2,142c388 <_malloc_r+0x4e0>
 142bf10:	8804d1ba 	srli	r2,r17,6
 142bf14:	12000e44 	addi	r8,r2,57
 142bf18:	11c00e04 	addi	r7,r2,56
 142bf1c:	4209883a 	add	r4,r8,r8
 142bf20:	04c050f4 	movhi	r19,323
 142bf24:	2109883a 	add	r4,r4,r4
 142bf28:	9cf80204 	addi	r19,r19,-8184
 142bf2c:	2109883a 	add	r4,r4,r4
 142bf30:	9909883a 	add	r4,r19,r4
 142bf34:	24000117 	ldw	r16,4(r4)
 142bf38:	213ffe04 	addi	r4,r4,-8
 142bf3c:	24009726 	beq	r4,r16,142c19c <_malloc_r+0x2f4>
 142bf40:	80800117 	ldw	r2,4(r16)
 142bf44:	01bfff04 	movi	r6,-4
 142bf48:	014003c4 	movi	r5,15
 142bf4c:	1184703a 	and	r2,r2,r6
 142bf50:	1447c83a 	sub	r3,r2,r17
 142bf54:	28c00716 	blt	r5,r3,142bf74 <_malloc_r+0xcc>
 142bf58:	1800920e 	bge	r3,zero,142c1a4 <_malloc_r+0x2fc>
 142bf5c:	84000317 	ldw	r16,12(r16)
 142bf60:	24008e26 	beq	r4,r16,142c19c <_malloc_r+0x2f4>
 142bf64:	80800117 	ldw	r2,4(r16)
 142bf68:	1184703a 	and	r2,r2,r6
 142bf6c:	1447c83a 	sub	r3,r2,r17
 142bf70:	28fff90e 	bge	r5,r3,142bf58 <__alt_data_end+0xfffebf58>
 142bf74:	3809883a 	mov	r4,r7
 142bf78:	018050f4 	movhi	r6,323
 142bf7c:	9c000417 	ldw	r16,16(r19)
 142bf80:	31b80204 	addi	r6,r6,-8184
 142bf84:	32000204 	addi	r8,r6,8
 142bf88:	82013426 	beq	r16,r8,142c45c <_malloc_r+0x5b4>
 142bf8c:	80c00117 	ldw	r3,4(r16)
 142bf90:	00bfff04 	movi	r2,-4
 142bf94:	188e703a 	and	r7,r3,r2
 142bf98:	3c45c83a 	sub	r2,r7,r17
 142bf9c:	00c003c4 	movi	r3,15
 142bfa0:	18811f16 	blt	r3,r2,142c420 <_malloc_r+0x578>
 142bfa4:	32000515 	stw	r8,20(r6)
 142bfa8:	32000415 	stw	r8,16(r6)
 142bfac:	10007f0e 	bge	r2,zero,142c1ac <_malloc_r+0x304>
 142bfb0:	00807fc4 	movi	r2,511
 142bfb4:	11c0fd36 	bltu	r2,r7,142c3ac <_malloc_r+0x504>
 142bfb8:	3806d0fa 	srli	r3,r7,3
 142bfbc:	01c00044 	movi	r7,1
 142bfc0:	30800117 	ldw	r2,4(r6)
 142bfc4:	19400044 	addi	r5,r3,1
 142bfc8:	294b883a 	add	r5,r5,r5
 142bfcc:	1807d0ba 	srai	r3,r3,2
 142bfd0:	294b883a 	add	r5,r5,r5
 142bfd4:	294b883a 	add	r5,r5,r5
 142bfd8:	298b883a 	add	r5,r5,r6
 142bfdc:	38c6983a 	sll	r3,r7,r3
 142bfe0:	29c00017 	ldw	r7,0(r5)
 142bfe4:	2a7ffe04 	addi	r9,r5,-8
 142bfe8:	1886b03a 	or	r3,r3,r2
 142bfec:	82400315 	stw	r9,12(r16)
 142bff0:	81c00215 	stw	r7,8(r16)
 142bff4:	30c00115 	stw	r3,4(r6)
 142bff8:	2c000015 	stw	r16,0(r5)
 142bffc:	3c000315 	stw	r16,12(r7)
 142c000:	2005d0ba 	srai	r2,r4,2
 142c004:	01400044 	movi	r5,1
 142c008:	288a983a 	sll	r5,r5,r2
 142c00c:	19406f36 	bltu	r3,r5,142c1cc <_malloc_r+0x324>
 142c010:	28c4703a 	and	r2,r5,r3
 142c014:	10000a1e 	bne	r2,zero,142c040 <_malloc_r+0x198>
 142c018:	00bfff04 	movi	r2,-4
 142c01c:	294b883a 	add	r5,r5,r5
 142c020:	2088703a 	and	r4,r4,r2
 142c024:	28c4703a 	and	r2,r5,r3
 142c028:	21000104 	addi	r4,r4,4
 142c02c:	1000041e 	bne	r2,zero,142c040 <_malloc_r+0x198>
 142c030:	294b883a 	add	r5,r5,r5
 142c034:	28c4703a 	and	r2,r5,r3
 142c038:	21000104 	addi	r4,r4,4
 142c03c:	103ffc26 	beq	r2,zero,142c030 <__alt_data_end+0xfffec030>
 142c040:	02bfff04 	movi	r10,-4
 142c044:	024003c4 	movi	r9,15
 142c048:	21800044 	addi	r6,r4,1
 142c04c:	318d883a 	add	r6,r6,r6
 142c050:	318d883a 	add	r6,r6,r6
 142c054:	318d883a 	add	r6,r6,r6
 142c058:	998d883a 	add	r6,r19,r6
 142c05c:	333ffe04 	addi	r12,r6,-8
 142c060:	2017883a 	mov	r11,r4
 142c064:	31800104 	addi	r6,r6,4
 142c068:	34000017 	ldw	r16,0(r6)
 142c06c:	31fffd04 	addi	r7,r6,-12
 142c070:	81c0041e 	bne	r16,r7,142c084 <_malloc_r+0x1dc>
 142c074:	0000fb06 	br	142c464 <_malloc_r+0x5bc>
 142c078:	1801030e 	bge	r3,zero,142c488 <_malloc_r+0x5e0>
 142c07c:	84000317 	ldw	r16,12(r16)
 142c080:	81c0f826 	beq	r16,r7,142c464 <_malloc_r+0x5bc>
 142c084:	80800117 	ldw	r2,4(r16)
 142c088:	1284703a 	and	r2,r2,r10
 142c08c:	1447c83a 	sub	r3,r2,r17
 142c090:	48fff90e 	bge	r9,r3,142c078 <__alt_data_end+0xfffec078>
 142c094:	80800317 	ldw	r2,12(r16)
 142c098:	81000217 	ldw	r4,8(r16)
 142c09c:	89400054 	ori	r5,r17,1
 142c0a0:	81400115 	stw	r5,4(r16)
 142c0a4:	20800315 	stw	r2,12(r4)
 142c0a8:	11000215 	stw	r4,8(r2)
 142c0ac:	8463883a 	add	r17,r16,r17
 142c0b0:	9c400515 	stw	r17,20(r19)
 142c0b4:	9c400415 	stw	r17,16(r19)
 142c0b8:	18800054 	ori	r2,r3,1
 142c0bc:	88800115 	stw	r2,4(r17)
 142c0c0:	8a000315 	stw	r8,12(r17)
 142c0c4:	8a000215 	stw	r8,8(r17)
 142c0c8:	88e3883a 	add	r17,r17,r3
 142c0cc:	88c00015 	stw	r3,0(r17)
 142c0d0:	9009883a 	mov	r4,r18
 142c0d4:	142d3740 	call	142d374 <__malloc_unlock>
 142c0d8:	80800204 	addi	r2,r16,8
 142c0dc:	00001b06 	br	142c14c <_malloc_r+0x2a4>
 142c0e0:	04400404 	movi	r17,16
 142c0e4:	89402536 	bltu	r17,r5,142c17c <_malloc_r+0x2d4>
 142c0e8:	142d3500 	call	142d350 <__malloc_lock>
 142c0ec:	00800184 	movi	r2,6
 142c0f0:	01000084 	movi	r4,2
 142c0f4:	04c050f4 	movhi	r19,323
 142c0f8:	1085883a 	add	r2,r2,r2
 142c0fc:	9cf80204 	addi	r19,r19,-8184
 142c100:	1085883a 	add	r2,r2,r2
 142c104:	9885883a 	add	r2,r19,r2
 142c108:	14000117 	ldw	r16,4(r2)
 142c10c:	10fffe04 	addi	r3,r2,-8
 142c110:	80c0d926 	beq	r16,r3,142c478 <_malloc_r+0x5d0>
 142c114:	80c00117 	ldw	r3,4(r16)
 142c118:	81000317 	ldw	r4,12(r16)
 142c11c:	00bfff04 	movi	r2,-4
 142c120:	1884703a 	and	r2,r3,r2
 142c124:	81400217 	ldw	r5,8(r16)
 142c128:	8085883a 	add	r2,r16,r2
 142c12c:	10c00117 	ldw	r3,4(r2)
 142c130:	29000315 	stw	r4,12(r5)
 142c134:	21400215 	stw	r5,8(r4)
 142c138:	18c00054 	ori	r3,r3,1
 142c13c:	10c00115 	stw	r3,4(r2)
 142c140:	9009883a 	mov	r4,r18
 142c144:	142d3740 	call	142d374 <__malloc_unlock>
 142c148:	80800204 	addi	r2,r16,8
 142c14c:	dfc00a17 	ldw	ra,40(sp)
 142c150:	df000917 	ldw	fp,36(sp)
 142c154:	ddc00817 	ldw	r23,32(sp)
 142c158:	dd800717 	ldw	r22,28(sp)
 142c15c:	dd400617 	ldw	r21,24(sp)
 142c160:	dd000517 	ldw	r20,20(sp)
 142c164:	dcc00417 	ldw	r19,16(sp)
 142c168:	dc800317 	ldw	r18,12(sp)
 142c16c:	dc400217 	ldw	r17,8(sp)
 142c170:	dc000117 	ldw	r16,4(sp)
 142c174:	dec00b04 	addi	sp,sp,44
 142c178:	f800283a 	ret
 142c17c:	00800304 	movi	r2,12
 142c180:	90800015 	stw	r2,0(r18)
 142c184:	0005883a 	mov	r2,zero
 142c188:	003ff006 	br	142c14c <__alt_data_end+0xfffec14c>
 142c18c:	01002004 	movi	r4,128
 142c190:	02001004 	movi	r8,64
 142c194:	01c00fc4 	movi	r7,63
 142c198:	003f6106 	br	142bf20 <__alt_data_end+0xfffebf20>
 142c19c:	4009883a 	mov	r4,r8
 142c1a0:	003f7506 	br	142bf78 <__alt_data_end+0xfffebf78>
 142c1a4:	81000317 	ldw	r4,12(r16)
 142c1a8:	003fde06 	br	142c124 <__alt_data_end+0xfffec124>
 142c1ac:	81c5883a 	add	r2,r16,r7
 142c1b0:	11400117 	ldw	r5,4(r2)
 142c1b4:	9009883a 	mov	r4,r18
 142c1b8:	29400054 	ori	r5,r5,1
 142c1bc:	11400115 	stw	r5,4(r2)
 142c1c0:	142d3740 	call	142d374 <__malloc_unlock>
 142c1c4:	80800204 	addi	r2,r16,8
 142c1c8:	003fe006 	br	142c14c <__alt_data_end+0xfffec14c>
 142c1cc:	9c000217 	ldw	r16,8(r19)
 142c1d0:	00bfff04 	movi	r2,-4
 142c1d4:	85800117 	ldw	r22,4(r16)
 142c1d8:	b0ac703a 	and	r22,r22,r2
 142c1dc:	b4400336 	bltu	r22,r17,142c1ec <_malloc_r+0x344>
 142c1e0:	b445c83a 	sub	r2,r22,r17
 142c1e4:	00c003c4 	movi	r3,15
 142c1e8:	18805d16 	blt	r3,r2,142c360 <_malloc_r+0x4b8>
 142c1ec:	05c050f4 	movhi	r23,323
 142c1f0:	008050f4 	movhi	r2,323
 142c1f4:	10bd2a04 	addi	r2,r2,-2904
 142c1f8:	bdfa8104 	addi	r23,r23,-5628
 142c1fc:	15400017 	ldw	r21,0(r2)
 142c200:	b8c00017 	ldw	r3,0(r23)
 142c204:	00bfffc4 	movi	r2,-1
 142c208:	858d883a 	add	r6,r16,r22
 142c20c:	8d6b883a 	add	r21,r17,r21
 142c210:	1880ea26 	beq	r3,r2,142c5bc <_malloc_r+0x714>
 142c214:	ad4403c4 	addi	r21,r21,4111
 142c218:	00bc0004 	movi	r2,-4096
 142c21c:	a8aa703a 	and	r21,r21,r2
 142c220:	a80b883a 	mov	r5,r21
 142c224:	9009883a 	mov	r4,r18
 142c228:	d9800015 	stw	r6,0(sp)
 142c22c:	142c7dc0 	call	142c7dc <_sbrk_r>
 142c230:	1029883a 	mov	r20,r2
 142c234:	00bfffc4 	movi	r2,-1
 142c238:	d9800017 	ldw	r6,0(sp)
 142c23c:	a080e826 	beq	r20,r2,142c5e0 <_malloc_r+0x738>
 142c240:	a180a636 	bltu	r20,r6,142c4dc <_malloc_r+0x634>
 142c244:	070050f4 	movhi	fp,323
 142c248:	e73d4304 	addi	fp,fp,-2804
 142c24c:	e0800017 	ldw	r2,0(fp)
 142c250:	a887883a 	add	r3,r21,r2
 142c254:	e0c00015 	stw	r3,0(fp)
 142c258:	3500e626 	beq	r6,r20,142c5f4 <_malloc_r+0x74c>
 142c25c:	b9000017 	ldw	r4,0(r23)
 142c260:	00bfffc4 	movi	r2,-1
 142c264:	2080ee26 	beq	r4,r2,142c620 <_malloc_r+0x778>
 142c268:	a185c83a 	sub	r2,r20,r6
 142c26c:	10c5883a 	add	r2,r2,r3
 142c270:	e0800015 	stw	r2,0(fp)
 142c274:	a0c001cc 	andi	r3,r20,7
 142c278:	1800bc26 	beq	r3,zero,142c56c <_malloc_r+0x6c4>
 142c27c:	a0e9c83a 	sub	r20,r20,r3
 142c280:	00840204 	movi	r2,4104
 142c284:	a5000204 	addi	r20,r20,8
 142c288:	10c7c83a 	sub	r3,r2,r3
 142c28c:	a545883a 	add	r2,r20,r21
 142c290:	1083ffcc 	andi	r2,r2,4095
 142c294:	18abc83a 	sub	r21,r3,r2
 142c298:	a80b883a 	mov	r5,r21
 142c29c:	9009883a 	mov	r4,r18
 142c2a0:	142c7dc0 	call	142c7dc <_sbrk_r>
 142c2a4:	00ffffc4 	movi	r3,-1
 142c2a8:	10c0e126 	beq	r2,r3,142c630 <_malloc_r+0x788>
 142c2ac:	1505c83a 	sub	r2,r2,r20
 142c2b0:	1545883a 	add	r2,r2,r21
 142c2b4:	10800054 	ori	r2,r2,1
 142c2b8:	e0c00017 	ldw	r3,0(fp)
 142c2bc:	9d000215 	stw	r20,8(r19)
 142c2c0:	a0800115 	stw	r2,4(r20)
 142c2c4:	a8c7883a 	add	r3,r21,r3
 142c2c8:	e0c00015 	stw	r3,0(fp)
 142c2cc:	84c00e26 	beq	r16,r19,142c308 <_malloc_r+0x460>
 142c2d0:	018003c4 	movi	r6,15
 142c2d4:	3580a72e 	bgeu	r6,r22,142c574 <_malloc_r+0x6cc>
 142c2d8:	81400117 	ldw	r5,4(r16)
 142c2dc:	013ffe04 	movi	r4,-8
 142c2e0:	b0bffd04 	addi	r2,r22,-12
 142c2e4:	1104703a 	and	r2,r2,r4
 142c2e8:	2900004c 	andi	r4,r5,1
 142c2ec:	2088b03a 	or	r4,r4,r2
 142c2f0:	81000115 	stw	r4,4(r16)
 142c2f4:	01400144 	movi	r5,5
 142c2f8:	8089883a 	add	r4,r16,r2
 142c2fc:	21400115 	stw	r5,4(r4)
 142c300:	21400215 	stw	r5,8(r4)
 142c304:	3080cd36 	bltu	r6,r2,142c63c <_malloc_r+0x794>
 142c308:	008050f4 	movhi	r2,323
 142c30c:	10bd2904 	addi	r2,r2,-2908
 142c310:	11000017 	ldw	r4,0(r2)
 142c314:	20c0012e 	bgeu	r4,r3,142c31c <_malloc_r+0x474>
 142c318:	10c00015 	stw	r3,0(r2)
 142c31c:	008050f4 	movhi	r2,323
 142c320:	10bd2804 	addi	r2,r2,-2912
 142c324:	11000017 	ldw	r4,0(r2)
 142c328:	9c000217 	ldw	r16,8(r19)
 142c32c:	20c0012e 	bgeu	r4,r3,142c334 <_malloc_r+0x48c>
 142c330:	10c00015 	stw	r3,0(r2)
 142c334:	80c00117 	ldw	r3,4(r16)
 142c338:	00bfff04 	movi	r2,-4
 142c33c:	1886703a 	and	r3,r3,r2
 142c340:	1c45c83a 	sub	r2,r3,r17
 142c344:	1c400236 	bltu	r3,r17,142c350 <_malloc_r+0x4a8>
 142c348:	00c003c4 	movi	r3,15
 142c34c:	18800416 	blt	r3,r2,142c360 <_malloc_r+0x4b8>
 142c350:	9009883a 	mov	r4,r18
 142c354:	142d3740 	call	142d374 <__malloc_unlock>
 142c358:	0005883a 	mov	r2,zero
 142c35c:	003f7b06 	br	142c14c <__alt_data_end+0xfffec14c>
 142c360:	88c00054 	ori	r3,r17,1
 142c364:	80c00115 	stw	r3,4(r16)
 142c368:	8463883a 	add	r17,r16,r17
 142c36c:	10800054 	ori	r2,r2,1
 142c370:	9c400215 	stw	r17,8(r19)
 142c374:	88800115 	stw	r2,4(r17)
 142c378:	9009883a 	mov	r4,r18
 142c37c:	142d3740 	call	142d374 <__malloc_unlock>
 142c380:	80800204 	addi	r2,r16,8
 142c384:	003f7106 	br	142c14c <__alt_data_end+0xfffec14c>
 142c388:	00c00504 	movi	r3,20
 142c38c:	18804a2e 	bgeu	r3,r2,142c4b8 <_malloc_r+0x610>
 142c390:	00c01504 	movi	r3,84
 142c394:	18806e36 	bltu	r3,r2,142c550 <_malloc_r+0x6a8>
 142c398:	8804d33a 	srli	r2,r17,12
 142c39c:	12001bc4 	addi	r8,r2,111
 142c3a0:	11c01b84 	addi	r7,r2,110
 142c3a4:	4209883a 	add	r4,r8,r8
 142c3a8:	003edd06 	br	142bf20 <__alt_data_end+0xfffebf20>
 142c3ac:	3804d27a 	srli	r2,r7,9
 142c3b0:	00c00104 	movi	r3,4
 142c3b4:	1880442e 	bgeu	r3,r2,142c4c8 <_malloc_r+0x620>
 142c3b8:	00c00504 	movi	r3,20
 142c3bc:	18808136 	bltu	r3,r2,142c5c4 <_malloc_r+0x71c>
 142c3c0:	11401704 	addi	r5,r2,92
 142c3c4:	10c016c4 	addi	r3,r2,91
 142c3c8:	294b883a 	add	r5,r5,r5
 142c3cc:	294b883a 	add	r5,r5,r5
 142c3d0:	294b883a 	add	r5,r5,r5
 142c3d4:	994b883a 	add	r5,r19,r5
 142c3d8:	28800017 	ldw	r2,0(r5)
 142c3dc:	018050f4 	movhi	r6,323
 142c3e0:	297ffe04 	addi	r5,r5,-8
 142c3e4:	31b80204 	addi	r6,r6,-8184
 142c3e8:	28806526 	beq	r5,r2,142c580 <_malloc_r+0x6d8>
 142c3ec:	01bfff04 	movi	r6,-4
 142c3f0:	10c00117 	ldw	r3,4(r2)
 142c3f4:	1986703a 	and	r3,r3,r6
 142c3f8:	38c0022e 	bgeu	r7,r3,142c404 <_malloc_r+0x55c>
 142c3fc:	10800217 	ldw	r2,8(r2)
 142c400:	28bffb1e 	bne	r5,r2,142c3f0 <__alt_data_end+0xfffec3f0>
 142c404:	11400317 	ldw	r5,12(r2)
 142c408:	98c00117 	ldw	r3,4(r19)
 142c40c:	81400315 	stw	r5,12(r16)
 142c410:	80800215 	stw	r2,8(r16)
 142c414:	2c000215 	stw	r16,8(r5)
 142c418:	14000315 	stw	r16,12(r2)
 142c41c:	003ef806 	br	142c000 <__alt_data_end+0xfffec000>
 142c420:	88c00054 	ori	r3,r17,1
 142c424:	80c00115 	stw	r3,4(r16)
 142c428:	8463883a 	add	r17,r16,r17
 142c42c:	34400515 	stw	r17,20(r6)
 142c430:	34400415 	stw	r17,16(r6)
 142c434:	10c00054 	ori	r3,r2,1
 142c438:	8a000315 	stw	r8,12(r17)
 142c43c:	8a000215 	stw	r8,8(r17)
 142c440:	88c00115 	stw	r3,4(r17)
 142c444:	88a3883a 	add	r17,r17,r2
 142c448:	88800015 	stw	r2,0(r17)
 142c44c:	9009883a 	mov	r4,r18
 142c450:	142d3740 	call	142d374 <__malloc_unlock>
 142c454:	80800204 	addi	r2,r16,8
 142c458:	003f3c06 	br	142c14c <__alt_data_end+0xfffec14c>
 142c45c:	30c00117 	ldw	r3,4(r6)
 142c460:	003ee706 	br	142c000 <__alt_data_end+0xfffec000>
 142c464:	5ac00044 	addi	r11,r11,1
 142c468:	588000cc 	andi	r2,r11,3
 142c46c:	31800204 	addi	r6,r6,8
 142c470:	103efd1e 	bne	r2,zero,142c068 <__alt_data_end+0xfffec068>
 142c474:	00002406 	br	142c508 <_malloc_r+0x660>
 142c478:	14000317 	ldw	r16,12(r2)
 142c47c:	143f251e 	bne	r2,r16,142c114 <__alt_data_end+0xfffec114>
 142c480:	21000084 	addi	r4,r4,2
 142c484:	003ebc06 	br	142bf78 <__alt_data_end+0xfffebf78>
 142c488:	8085883a 	add	r2,r16,r2
 142c48c:	10c00117 	ldw	r3,4(r2)
 142c490:	81000317 	ldw	r4,12(r16)
 142c494:	81400217 	ldw	r5,8(r16)
 142c498:	18c00054 	ori	r3,r3,1
 142c49c:	10c00115 	stw	r3,4(r2)
 142c4a0:	29000315 	stw	r4,12(r5)
 142c4a4:	21400215 	stw	r5,8(r4)
 142c4a8:	9009883a 	mov	r4,r18
 142c4ac:	142d3740 	call	142d374 <__malloc_unlock>
 142c4b0:	80800204 	addi	r2,r16,8
 142c4b4:	003f2506 	br	142c14c <__alt_data_end+0xfffec14c>
 142c4b8:	12001704 	addi	r8,r2,92
 142c4bc:	11c016c4 	addi	r7,r2,91
 142c4c0:	4209883a 	add	r4,r8,r8
 142c4c4:	003e9606 	br	142bf20 <__alt_data_end+0xfffebf20>
 142c4c8:	3804d1ba 	srli	r2,r7,6
 142c4cc:	11400e44 	addi	r5,r2,57
 142c4d0:	10c00e04 	addi	r3,r2,56
 142c4d4:	294b883a 	add	r5,r5,r5
 142c4d8:	003fbc06 	br	142c3cc <__alt_data_end+0xfffec3cc>
 142c4dc:	84ff5926 	beq	r16,r19,142c244 <__alt_data_end+0xfffec244>
 142c4e0:	008050f4 	movhi	r2,323
 142c4e4:	10b80204 	addi	r2,r2,-8184
 142c4e8:	14000217 	ldw	r16,8(r2)
 142c4ec:	00bfff04 	movi	r2,-4
 142c4f0:	80c00117 	ldw	r3,4(r16)
 142c4f4:	1886703a 	and	r3,r3,r2
 142c4f8:	003f9106 	br	142c340 <__alt_data_end+0xfffec340>
 142c4fc:	60800217 	ldw	r2,8(r12)
 142c500:	213fffc4 	addi	r4,r4,-1
 142c504:	1300651e 	bne	r2,r12,142c69c <_malloc_r+0x7f4>
 142c508:	208000cc 	andi	r2,r4,3
 142c50c:	633ffe04 	addi	r12,r12,-8
 142c510:	103ffa1e 	bne	r2,zero,142c4fc <__alt_data_end+0xfffec4fc>
 142c514:	98800117 	ldw	r2,4(r19)
 142c518:	0146303a 	nor	r3,zero,r5
 142c51c:	1884703a 	and	r2,r3,r2
 142c520:	98800115 	stw	r2,4(r19)
 142c524:	294b883a 	add	r5,r5,r5
 142c528:	117f2836 	bltu	r2,r5,142c1cc <__alt_data_end+0xfffec1cc>
 142c52c:	283f2726 	beq	r5,zero,142c1cc <__alt_data_end+0xfffec1cc>
 142c530:	2886703a 	and	r3,r5,r2
 142c534:	5809883a 	mov	r4,r11
 142c538:	183ec31e 	bne	r3,zero,142c048 <__alt_data_end+0xfffec048>
 142c53c:	294b883a 	add	r5,r5,r5
 142c540:	2886703a 	and	r3,r5,r2
 142c544:	21000104 	addi	r4,r4,4
 142c548:	183ffc26 	beq	r3,zero,142c53c <__alt_data_end+0xfffec53c>
 142c54c:	003ebe06 	br	142c048 <__alt_data_end+0xfffec048>
 142c550:	00c05504 	movi	r3,340
 142c554:	18801236 	bltu	r3,r2,142c5a0 <_malloc_r+0x6f8>
 142c558:	8804d3fa 	srli	r2,r17,15
 142c55c:	12001e04 	addi	r8,r2,120
 142c560:	11c01dc4 	addi	r7,r2,119
 142c564:	4209883a 	add	r4,r8,r8
 142c568:	003e6d06 	br	142bf20 <__alt_data_end+0xfffebf20>
 142c56c:	00c40004 	movi	r3,4096
 142c570:	003f4606 	br	142c28c <__alt_data_end+0xfffec28c>
 142c574:	00800044 	movi	r2,1
 142c578:	a0800115 	stw	r2,4(r20)
 142c57c:	003f7406 	br	142c350 <__alt_data_end+0xfffec350>
 142c580:	1805d0ba 	srai	r2,r3,2
 142c584:	01c00044 	movi	r7,1
 142c588:	30c00117 	ldw	r3,4(r6)
 142c58c:	388e983a 	sll	r7,r7,r2
 142c590:	2805883a 	mov	r2,r5
 142c594:	38c6b03a 	or	r3,r7,r3
 142c598:	30c00115 	stw	r3,4(r6)
 142c59c:	003f9b06 	br	142c40c <__alt_data_end+0xfffec40c>
 142c5a0:	00c15504 	movi	r3,1364
 142c5a4:	18801a36 	bltu	r3,r2,142c610 <_malloc_r+0x768>
 142c5a8:	8804d4ba 	srli	r2,r17,18
 142c5ac:	12001f44 	addi	r8,r2,125
 142c5b0:	11c01f04 	addi	r7,r2,124
 142c5b4:	4209883a 	add	r4,r8,r8
 142c5b8:	003e5906 	br	142bf20 <__alt_data_end+0xfffebf20>
 142c5bc:	ad400404 	addi	r21,r21,16
 142c5c0:	003f1706 	br	142c220 <__alt_data_end+0xfffec220>
 142c5c4:	00c01504 	movi	r3,84
 142c5c8:	18802336 	bltu	r3,r2,142c658 <_malloc_r+0x7b0>
 142c5cc:	3804d33a 	srli	r2,r7,12
 142c5d0:	11401bc4 	addi	r5,r2,111
 142c5d4:	10c01b84 	addi	r3,r2,110
 142c5d8:	294b883a 	add	r5,r5,r5
 142c5dc:	003f7b06 	br	142c3cc <__alt_data_end+0xfffec3cc>
 142c5e0:	9c000217 	ldw	r16,8(r19)
 142c5e4:	00bfff04 	movi	r2,-4
 142c5e8:	80c00117 	ldw	r3,4(r16)
 142c5ec:	1886703a 	and	r3,r3,r2
 142c5f0:	003f5306 	br	142c340 <__alt_data_end+0xfffec340>
 142c5f4:	3083ffcc 	andi	r2,r6,4095
 142c5f8:	103f181e 	bne	r2,zero,142c25c <__alt_data_end+0xfffec25c>
 142c5fc:	99000217 	ldw	r4,8(r19)
 142c600:	b545883a 	add	r2,r22,r21
 142c604:	10800054 	ori	r2,r2,1
 142c608:	20800115 	stw	r2,4(r4)
 142c60c:	003f3e06 	br	142c308 <__alt_data_end+0xfffec308>
 142c610:	01003f84 	movi	r4,254
 142c614:	02001fc4 	movi	r8,127
 142c618:	01c01f84 	movi	r7,126
 142c61c:	003e4006 	br	142bf20 <__alt_data_end+0xfffebf20>
 142c620:	008050f4 	movhi	r2,323
 142c624:	10ba8104 	addi	r2,r2,-5628
 142c628:	15000015 	stw	r20,0(r2)
 142c62c:	003f1106 	br	142c274 <__alt_data_end+0xfffec274>
 142c630:	00800044 	movi	r2,1
 142c634:	002b883a 	mov	r21,zero
 142c638:	003f1f06 	br	142c2b8 <__alt_data_end+0xfffec2b8>
 142c63c:	81400204 	addi	r5,r16,8
 142c640:	9009883a 	mov	r4,r18
 142c644:	142cd340 	call	142cd34 <_free_r>
 142c648:	008050f4 	movhi	r2,323
 142c64c:	10bd4304 	addi	r2,r2,-2804
 142c650:	10c00017 	ldw	r3,0(r2)
 142c654:	003f2c06 	br	142c308 <__alt_data_end+0xfffec308>
 142c658:	00c05504 	movi	r3,340
 142c65c:	18800536 	bltu	r3,r2,142c674 <_malloc_r+0x7cc>
 142c660:	3804d3fa 	srli	r2,r7,15
 142c664:	11401e04 	addi	r5,r2,120
 142c668:	10c01dc4 	addi	r3,r2,119
 142c66c:	294b883a 	add	r5,r5,r5
 142c670:	003f5606 	br	142c3cc <__alt_data_end+0xfffec3cc>
 142c674:	00c15504 	movi	r3,1364
 142c678:	18800536 	bltu	r3,r2,142c690 <_malloc_r+0x7e8>
 142c67c:	3804d4ba 	srli	r2,r7,18
 142c680:	11401f44 	addi	r5,r2,125
 142c684:	10c01f04 	addi	r3,r2,124
 142c688:	294b883a 	add	r5,r5,r5
 142c68c:	003f4f06 	br	142c3cc <__alt_data_end+0xfffec3cc>
 142c690:	01403f84 	movi	r5,254
 142c694:	00c01f84 	movi	r3,126
 142c698:	003f4c06 	br	142c3cc <__alt_data_end+0xfffec3cc>
 142c69c:	98800117 	ldw	r2,4(r19)
 142c6a0:	003fa006 	br	142c524 <__alt_data_end+0xfffec524>
 142c6a4:	8808d0fa 	srli	r4,r17,3
 142c6a8:	20800044 	addi	r2,r4,1
 142c6ac:	1085883a 	add	r2,r2,r2
 142c6b0:	003e9006 	br	142c0f4 <__alt_data_end+0xfffec0f4>

0142c6b4 <memset>:
 142c6b4:	20c000cc 	andi	r3,r4,3
 142c6b8:	2005883a 	mov	r2,r4
 142c6bc:	18004426 	beq	r3,zero,142c7d0 <memset+0x11c>
 142c6c0:	31ffffc4 	addi	r7,r6,-1
 142c6c4:	30004026 	beq	r6,zero,142c7c8 <memset+0x114>
 142c6c8:	2813883a 	mov	r9,r5
 142c6cc:	200d883a 	mov	r6,r4
 142c6d0:	2007883a 	mov	r3,r4
 142c6d4:	00000406 	br	142c6e8 <memset+0x34>
 142c6d8:	3a3fffc4 	addi	r8,r7,-1
 142c6dc:	31800044 	addi	r6,r6,1
 142c6e0:	38003926 	beq	r7,zero,142c7c8 <memset+0x114>
 142c6e4:	400f883a 	mov	r7,r8
 142c6e8:	18c00044 	addi	r3,r3,1
 142c6ec:	32400005 	stb	r9,0(r6)
 142c6f0:	1a0000cc 	andi	r8,r3,3
 142c6f4:	403ff81e 	bne	r8,zero,142c6d8 <__alt_data_end+0xfffec6d8>
 142c6f8:	010000c4 	movi	r4,3
 142c6fc:	21c02d2e 	bgeu	r4,r7,142c7b4 <memset+0x100>
 142c700:	29003fcc 	andi	r4,r5,255
 142c704:	200c923a 	slli	r6,r4,8
 142c708:	3108b03a 	or	r4,r6,r4
 142c70c:	200c943a 	slli	r6,r4,16
 142c710:	218cb03a 	or	r6,r4,r6
 142c714:	010003c4 	movi	r4,15
 142c718:	21c0182e 	bgeu	r4,r7,142c77c <memset+0xc8>
 142c71c:	3b3ffc04 	addi	r12,r7,-16
 142c720:	6018d13a 	srli	r12,r12,4
 142c724:	1a000104 	addi	r8,r3,4
 142c728:	1ac00204 	addi	r11,r3,8
 142c72c:	6008913a 	slli	r4,r12,4
 142c730:	1a800304 	addi	r10,r3,12
 142c734:	1813883a 	mov	r9,r3
 142c738:	21000504 	addi	r4,r4,20
 142c73c:	1909883a 	add	r4,r3,r4
 142c740:	49800015 	stw	r6,0(r9)
 142c744:	41800015 	stw	r6,0(r8)
 142c748:	59800015 	stw	r6,0(r11)
 142c74c:	51800015 	stw	r6,0(r10)
 142c750:	42000404 	addi	r8,r8,16
 142c754:	4a400404 	addi	r9,r9,16
 142c758:	5ac00404 	addi	r11,r11,16
 142c75c:	52800404 	addi	r10,r10,16
 142c760:	413ff71e 	bne	r8,r4,142c740 <__alt_data_end+0xfffec740>
 142c764:	63000044 	addi	r12,r12,1
 142c768:	6018913a 	slli	r12,r12,4
 142c76c:	39c003cc 	andi	r7,r7,15
 142c770:	010000c4 	movi	r4,3
 142c774:	1b07883a 	add	r3,r3,r12
 142c778:	21c00e2e 	bgeu	r4,r7,142c7b4 <memset+0x100>
 142c77c:	1813883a 	mov	r9,r3
 142c780:	3811883a 	mov	r8,r7
 142c784:	010000c4 	movi	r4,3
 142c788:	49800015 	stw	r6,0(r9)
 142c78c:	423fff04 	addi	r8,r8,-4
 142c790:	4a400104 	addi	r9,r9,4
 142c794:	223ffc36 	bltu	r4,r8,142c788 <__alt_data_end+0xfffec788>
 142c798:	393fff04 	addi	r4,r7,-4
 142c79c:	2008d0ba 	srli	r4,r4,2
 142c7a0:	39c000cc 	andi	r7,r7,3
 142c7a4:	21000044 	addi	r4,r4,1
 142c7a8:	2109883a 	add	r4,r4,r4
 142c7ac:	2109883a 	add	r4,r4,r4
 142c7b0:	1907883a 	add	r3,r3,r4
 142c7b4:	38000526 	beq	r7,zero,142c7cc <memset+0x118>
 142c7b8:	19cf883a 	add	r7,r3,r7
 142c7bc:	19400005 	stb	r5,0(r3)
 142c7c0:	18c00044 	addi	r3,r3,1
 142c7c4:	38fffd1e 	bne	r7,r3,142c7bc <__alt_data_end+0xfffec7bc>
 142c7c8:	f800283a 	ret
 142c7cc:	f800283a 	ret
 142c7d0:	2007883a 	mov	r3,r4
 142c7d4:	300f883a 	mov	r7,r6
 142c7d8:	003fc706 	br	142c6f8 <__alt_data_end+0xfffec6f8>

0142c7dc <_sbrk_r>:
 142c7dc:	defffd04 	addi	sp,sp,-12
 142c7e0:	dc000015 	stw	r16,0(sp)
 142c7e4:	040050f4 	movhi	r16,323
 142c7e8:	dc400115 	stw	r17,4(sp)
 142c7ec:	843d2b04 	addi	r16,r16,-2900
 142c7f0:	2023883a 	mov	r17,r4
 142c7f4:	2809883a 	mov	r4,r5
 142c7f8:	dfc00215 	stw	ra,8(sp)
 142c7fc:	80000015 	stw	zero,0(r16)
 142c800:	142d3980 	call	142d398 <sbrk>
 142c804:	00ffffc4 	movi	r3,-1
 142c808:	10c00526 	beq	r2,r3,142c820 <_sbrk_r+0x44>
 142c80c:	dfc00217 	ldw	ra,8(sp)
 142c810:	dc400117 	ldw	r17,4(sp)
 142c814:	dc000017 	ldw	r16,0(sp)
 142c818:	dec00304 	addi	sp,sp,12
 142c81c:	f800283a 	ret
 142c820:	80c00017 	ldw	r3,0(r16)
 142c824:	183ff926 	beq	r3,zero,142c80c <__alt_data_end+0xfffec80c>
 142c828:	88c00015 	stw	r3,0(r17)
 142c82c:	003ff706 	br	142c80c <__alt_data_end+0xfffec80c>

0142c830 <_init_signal_r>:
 142c830:	2080b717 	ldw	r2,732(r4)
 142c834:	10000226 	beq	r2,zero,142c840 <_init_signal_r+0x10>
 142c838:	0005883a 	mov	r2,zero
 142c83c:	f800283a 	ret
 142c840:	defffe04 	addi	sp,sp,-8
 142c844:	01402004 	movi	r5,128
 142c848:	dc000015 	stw	r16,0(sp)
 142c84c:	dfc00115 	stw	ra,4(sp)
 142c850:	2021883a 	mov	r16,r4
 142c854:	142bea80 	call	142bea8 <_malloc_r>
 142c858:	8080b715 	stw	r2,732(r16)
 142c85c:	10000d26 	beq	r2,zero,142c894 <_init_signal_r+0x64>
 142c860:	0007883a 	mov	r3,zero
 142c864:	01002004 	movi	r4,128
 142c868:	00000106 	br	142c870 <_init_signal_r+0x40>
 142c86c:	8080b717 	ldw	r2,732(r16)
 142c870:	10c5883a 	add	r2,r2,r3
 142c874:	10000015 	stw	zero,0(r2)
 142c878:	18c00104 	addi	r3,r3,4
 142c87c:	193ffb1e 	bne	r3,r4,142c86c <__alt_data_end+0xfffec86c>
 142c880:	0005883a 	mov	r2,zero
 142c884:	dfc00117 	ldw	ra,4(sp)
 142c888:	dc000017 	ldw	r16,0(sp)
 142c88c:	dec00204 	addi	sp,sp,8
 142c890:	f800283a 	ret
 142c894:	00bfffc4 	movi	r2,-1
 142c898:	003ffa06 	br	142c884 <__alt_data_end+0xfffec884>

0142c89c <_signal_r>:
 142c89c:	00c007c4 	movi	r3,31
 142c8a0:	19401536 	bltu	r3,r5,142c8f8 <_signal_r+0x5c>
 142c8a4:	2080b717 	ldw	r2,732(r4)
 142c8a8:	defffc04 	addi	sp,sp,-16
 142c8ac:	dc800215 	stw	r18,8(sp)
 142c8b0:	dc400115 	stw	r17,4(sp)
 142c8b4:	dc000015 	stw	r16,0(sp)
 142c8b8:	dfc00315 	stw	ra,12(sp)
 142c8bc:	3023883a 	mov	r17,r6
 142c8c0:	2021883a 	mov	r16,r4
 142c8c4:	2825883a 	mov	r18,r5
 142c8c8:	10000f26 	beq	r2,zero,142c908 <_signal_r+0x6c>
 142c8cc:	948b883a 	add	r5,r18,r18
 142c8d0:	294b883a 	add	r5,r5,r5
 142c8d4:	114b883a 	add	r5,r2,r5
 142c8d8:	28800017 	ldw	r2,0(r5)
 142c8dc:	2c400015 	stw	r17,0(r5)
 142c8e0:	dfc00317 	ldw	ra,12(sp)
 142c8e4:	dc800217 	ldw	r18,8(sp)
 142c8e8:	dc400117 	ldw	r17,4(sp)
 142c8ec:	dc000017 	ldw	r16,0(sp)
 142c8f0:	dec00404 	addi	sp,sp,16
 142c8f4:	f800283a 	ret
 142c8f8:	00c00584 	movi	r3,22
 142c8fc:	20c00015 	stw	r3,0(r4)
 142c900:	00bfffc4 	movi	r2,-1
 142c904:	f800283a 	ret
 142c908:	142c8300 	call	142c830 <_init_signal_r>
 142c90c:	1000021e 	bne	r2,zero,142c918 <_signal_r+0x7c>
 142c910:	8080b717 	ldw	r2,732(r16)
 142c914:	003fed06 	br	142c8cc <__alt_data_end+0xfffec8cc>
 142c918:	00bfffc4 	movi	r2,-1
 142c91c:	003ff006 	br	142c8e0 <__alt_data_end+0xfffec8e0>

0142c920 <_raise_r>:
 142c920:	008007c4 	movi	r2,31
 142c924:	11402936 	bltu	r2,r5,142c9cc <_raise_r+0xac>
 142c928:	20c0b717 	ldw	r3,732(r4)
 142c92c:	defffd04 	addi	sp,sp,-12
 142c930:	dc400115 	stw	r17,4(sp)
 142c934:	dc000015 	stw	r16,0(sp)
 142c938:	dfc00215 	stw	ra,8(sp)
 142c93c:	2021883a 	mov	r16,r4
 142c940:	2823883a 	mov	r17,r5
 142c944:	18001726 	beq	r3,zero,142c9a4 <_raise_r+0x84>
 142c948:	2945883a 	add	r2,r5,r5
 142c94c:	1085883a 	add	r2,r2,r2
 142c950:	1887883a 	add	r3,r3,r2
 142c954:	19800017 	ldw	r6,0(r3)
 142c958:	30001226 	beq	r6,zero,142c9a4 <_raise_r+0x84>
 142c95c:	00800044 	movi	r2,1
 142c960:	30800e26 	beq	r6,r2,142c99c <_raise_r+0x7c>
 142c964:	013fffc4 	movi	r4,-1
 142c968:	31000926 	beq	r6,r4,142c990 <_raise_r+0x70>
 142c96c:	18000015 	stw	zero,0(r3)
 142c970:	2809883a 	mov	r4,r5
 142c974:	303ee83a 	callr	r6
 142c978:	0005883a 	mov	r2,zero
 142c97c:	dfc00217 	ldw	ra,8(sp)
 142c980:	dc400117 	ldw	r17,4(sp)
 142c984:	dc000017 	ldw	r16,0(sp)
 142c988:	dec00304 	addi	sp,sp,12
 142c98c:	f800283a 	ret
 142c990:	00c00584 	movi	r3,22
 142c994:	80c00015 	stw	r3,0(r16)
 142c998:	003ff806 	br	142c97c <__alt_data_end+0xfffec97c>
 142c99c:	0005883a 	mov	r2,zero
 142c9a0:	003ff606 	br	142c97c <__alt_data_end+0xfffec97c>
 142c9a4:	8009883a 	mov	r4,r16
 142c9a8:	142cb300 	call	142cb30 <_getpid_r>
 142c9ac:	880d883a 	mov	r6,r17
 142c9b0:	100b883a 	mov	r5,r2
 142c9b4:	8009883a 	mov	r4,r16
 142c9b8:	dfc00217 	ldw	ra,8(sp)
 142c9bc:	dc400117 	ldw	r17,4(sp)
 142c9c0:	dc000017 	ldw	r16,0(sp)
 142c9c4:	dec00304 	addi	sp,sp,12
 142c9c8:	142cad41 	jmpi	142cad4 <_kill_r>
 142c9cc:	00800584 	movi	r2,22
 142c9d0:	20800015 	stw	r2,0(r4)
 142c9d4:	00bfffc4 	movi	r2,-1
 142c9d8:	f800283a 	ret

0142c9dc <__sigtramp_r>:
 142c9dc:	008007c4 	movi	r2,31
 142c9e0:	11402436 	bltu	r2,r5,142ca74 <__sigtramp_r+0x98>
 142c9e4:	20c0b717 	ldw	r3,732(r4)
 142c9e8:	defffd04 	addi	sp,sp,-12
 142c9ec:	dc400115 	stw	r17,4(sp)
 142c9f0:	dc000015 	stw	r16,0(sp)
 142c9f4:	dfc00215 	stw	ra,8(sp)
 142c9f8:	2021883a 	mov	r16,r4
 142c9fc:	2823883a 	mov	r17,r5
 142ca00:	18001826 	beq	r3,zero,142ca64 <__sigtramp_r+0x88>
 142ca04:	8c45883a 	add	r2,r17,r17
 142ca08:	1085883a 	add	r2,r2,r2
 142ca0c:	1885883a 	add	r2,r3,r2
 142ca10:	10c00017 	ldw	r3,0(r2)
 142ca14:	18001126 	beq	r3,zero,142ca5c <__sigtramp_r+0x80>
 142ca18:	013fffc4 	movi	r4,-1
 142ca1c:	19000d26 	beq	r3,r4,142ca54 <__sigtramp_r+0x78>
 142ca20:	01000044 	movi	r4,1
 142ca24:	19000926 	beq	r3,r4,142ca4c <__sigtramp_r+0x70>
 142ca28:	10000015 	stw	zero,0(r2)
 142ca2c:	8809883a 	mov	r4,r17
 142ca30:	183ee83a 	callr	r3
 142ca34:	0005883a 	mov	r2,zero
 142ca38:	dfc00217 	ldw	ra,8(sp)
 142ca3c:	dc400117 	ldw	r17,4(sp)
 142ca40:	dc000017 	ldw	r16,0(sp)
 142ca44:	dec00304 	addi	sp,sp,12
 142ca48:	f800283a 	ret
 142ca4c:	008000c4 	movi	r2,3
 142ca50:	003ff906 	br	142ca38 <__alt_data_end+0xfffeca38>
 142ca54:	00800084 	movi	r2,2
 142ca58:	003ff706 	br	142ca38 <__alt_data_end+0xfffeca38>
 142ca5c:	00800044 	movi	r2,1
 142ca60:	003ff506 	br	142ca38 <__alt_data_end+0xfffeca38>
 142ca64:	142c8300 	call	142c830 <_init_signal_r>
 142ca68:	1000041e 	bne	r2,zero,142ca7c <__sigtramp_r+0xa0>
 142ca6c:	80c0b717 	ldw	r3,732(r16)
 142ca70:	003fe406 	br	142ca04 <__alt_data_end+0xfffeca04>
 142ca74:	00bfffc4 	movi	r2,-1
 142ca78:	f800283a 	ret
 142ca7c:	00bfffc4 	movi	r2,-1
 142ca80:	003fed06 	br	142ca38 <__alt_data_end+0xfffeca38>

0142ca84 <raise>:
 142ca84:	008050f4 	movhi	r2,323
 142ca88:	10ba8404 	addi	r2,r2,-5616
 142ca8c:	200b883a 	mov	r5,r4
 142ca90:	11000017 	ldw	r4,0(r2)
 142ca94:	142c9201 	jmpi	142c920 <_raise_r>

0142ca98 <signal>:
 142ca98:	008050f4 	movhi	r2,323
 142ca9c:	10ba8404 	addi	r2,r2,-5616
 142caa0:	280d883a 	mov	r6,r5
 142caa4:	200b883a 	mov	r5,r4
 142caa8:	11000017 	ldw	r4,0(r2)
 142caac:	142c89c1 	jmpi	142c89c <_signal_r>

0142cab0 <_init_signal>:
 142cab0:	008050f4 	movhi	r2,323
 142cab4:	10ba8404 	addi	r2,r2,-5616
 142cab8:	11000017 	ldw	r4,0(r2)
 142cabc:	142c8301 	jmpi	142c830 <_init_signal_r>

0142cac0 <__sigtramp>:
 142cac0:	008050f4 	movhi	r2,323
 142cac4:	10ba8404 	addi	r2,r2,-5616
 142cac8:	200b883a 	mov	r5,r4
 142cacc:	11000017 	ldw	r4,0(r2)
 142cad0:	142c9dc1 	jmpi	142c9dc <__sigtramp_r>

0142cad4 <_kill_r>:
 142cad4:	defffd04 	addi	sp,sp,-12
 142cad8:	2805883a 	mov	r2,r5
 142cadc:	dc000015 	stw	r16,0(sp)
 142cae0:	040050f4 	movhi	r16,323
 142cae4:	dc400115 	stw	r17,4(sp)
 142cae8:	843d2b04 	addi	r16,r16,-2900
 142caec:	2023883a 	mov	r17,r4
 142caf0:	300b883a 	mov	r5,r6
 142caf4:	1009883a 	mov	r4,r2
 142caf8:	dfc00215 	stw	ra,8(sp)
 142cafc:	80000015 	stw	zero,0(r16)
 142cb00:	142d0d40 	call	142d0d4 <kill>
 142cb04:	00ffffc4 	movi	r3,-1
 142cb08:	10c00526 	beq	r2,r3,142cb20 <_kill_r+0x4c>
 142cb0c:	dfc00217 	ldw	ra,8(sp)
 142cb10:	dc400117 	ldw	r17,4(sp)
 142cb14:	dc000017 	ldw	r16,0(sp)
 142cb18:	dec00304 	addi	sp,sp,12
 142cb1c:	f800283a 	ret
 142cb20:	80c00017 	ldw	r3,0(r16)
 142cb24:	183ff926 	beq	r3,zero,142cb0c <__alt_data_end+0xfffecb0c>
 142cb28:	88c00015 	stw	r3,0(r17)
 142cb2c:	003ff706 	br	142cb0c <__alt_data_end+0xfffecb0c>

0142cb30 <_getpid_r>:
 142cb30:	142d0781 	jmpi	142d078 <getpid>

0142cb34 <strcmp>:
 142cb34:	2144b03a 	or	r2,r4,r5
 142cb38:	108000cc 	andi	r2,r2,3
 142cb3c:	1000171e 	bne	r2,zero,142cb9c <strcmp+0x68>
 142cb40:	20800017 	ldw	r2,0(r4)
 142cb44:	28c00017 	ldw	r3,0(r5)
 142cb48:	10c0141e 	bne	r2,r3,142cb9c <strcmp+0x68>
 142cb4c:	027fbff4 	movhi	r9,65279
 142cb50:	4a7fbfc4 	addi	r9,r9,-257
 142cb54:	0086303a 	nor	r3,zero,r2
 142cb58:	02202074 	movhi	r8,32897
 142cb5c:	1245883a 	add	r2,r2,r9
 142cb60:	42202004 	addi	r8,r8,-32640
 142cb64:	10c4703a 	and	r2,r2,r3
 142cb68:	1204703a 	and	r2,r2,r8
 142cb6c:	10000226 	beq	r2,zero,142cb78 <strcmp+0x44>
 142cb70:	00002306 	br	142cc00 <strcmp+0xcc>
 142cb74:	1000221e 	bne	r2,zero,142cc00 <strcmp+0xcc>
 142cb78:	21000104 	addi	r4,r4,4
 142cb7c:	20c00017 	ldw	r3,0(r4)
 142cb80:	29400104 	addi	r5,r5,4
 142cb84:	29800017 	ldw	r6,0(r5)
 142cb88:	1a4f883a 	add	r7,r3,r9
 142cb8c:	00c4303a 	nor	r2,zero,r3
 142cb90:	3884703a 	and	r2,r7,r2
 142cb94:	1204703a 	and	r2,r2,r8
 142cb98:	19bff626 	beq	r3,r6,142cb74 <__alt_data_end+0xfffecb74>
 142cb9c:	20800003 	ldbu	r2,0(r4)
 142cba0:	10c03fcc 	andi	r3,r2,255
 142cba4:	18c0201c 	xori	r3,r3,128
 142cba8:	18ffe004 	addi	r3,r3,-128
 142cbac:	18000c26 	beq	r3,zero,142cbe0 <strcmp+0xac>
 142cbb0:	29800007 	ldb	r6,0(r5)
 142cbb4:	19800326 	beq	r3,r6,142cbc4 <strcmp+0x90>
 142cbb8:	00001306 	br	142cc08 <strcmp+0xd4>
 142cbbc:	29800007 	ldb	r6,0(r5)
 142cbc0:	11800b1e 	bne	r2,r6,142cbf0 <strcmp+0xbc>
 142cbc4:	21000044 	addi	r4,r4,1
 142cbc8:	20c00003 	ldbu	r3,0(r4)
 142cbcc:	29400044 	addi	r5,r5,1
 142cbd0:	18803fcc 	andi	r2,r3,255
 142cbd4:	1080201c 	xori	r2,r2,128
 142cbd8:	10bfe004 	addi	r2,r2,-128
 142cbdc:	103ff71e 	bne	r2,zero,142cbbc <__alt_data_end+0xfffecbbc>
 142cbe0:	0007883a 	mov	r3,zero
 142cbe4:	28800003 	ldbu	r2,0(r5)
 142cbe8:	1885c83a 	sub	r2,r3,r2
 142cbec:	f800283a 	ret
 142cbf0:	28800003 	ldbu	r2,0(r5)
 142cbf4:	18c03fcc 	andi	r3,r3,255
 142cbf8:	1885c83a 	sub	r2,r3,r2
 142cbfc:	f800283a 	ret
 142cc00:	0005883a 	mov	r2,zero
 142cc04:	f800283a 	ret
 142cc08:	10c03fcc 	andi	r3,r2,255
 142cc0c:	003ff506 	br	142cbe4 <__alt_data_end+0xfffecbe4>

0142cc10 <_malloc_trim_r>:
 142cc10:	defffb04 	addi	sp,sp,-20
 142cc14:	dcc00315 	stw	r19,12(sp)
 142cc18:	04c050f4 	movhi	r19,323
 142cc1c:	dc800215 	stw	r18,8(sp)
 142cc20:	dc400115 	stw	r17,4(sp)
 142cc24:	dc000015 	stw	r16,0(sp)
 142cc28:	dfc00415 	stw	ra,16(sp)
 142cc2c:	2821883a 	mov	r16,r5
 142cc30:	9cf80204 	addi	r19,r19,-8184
 142cc34:	2025883a 	mov	r18,r4
 142cc38:	142d3500 	call	142d350 <__malloc_lock>
 142cc3c:	98800217 	ldw	r2,8(r19)
 142cc40:	14400117 	ldw	r17,4(r2)
 142cc44:	00bfff04 	movi	r2,-4
 142cc48:	88a2703a 	and	r17,r17,r2
 142cc4c:	8c21c83a 	sub	r16,r17,r16
 142cc50:	8403fbc4 	addi	r16,r16,4079
 142cc54:	8020d33a 	srli	r16,r16,12
 142cc58:	0083ffc4 	movi	r2,4095
 142cc5c:	843fffc4 	addi	r16,r16,-1
 142cc60:	8020933a 	slli	r16,r16,12
 142cc64:	1400060e 	bge	r2,r16,142cc80 <_malloc_trim_r+0x70>
 142cc68:	000b883a 	mov	r5,zero
 142cc6c:	9009883a 	mov	r4,r18
 142cc70:	142c7dc0 	call	142c7dc <_sbrk_r>
 142cc74:	98c00217 	ldw	r3,8(r19)
 142cc78:	1c47883a 	add	r3,r3,r17
 142cc7c:	10c00a26 	beq	r2,r3,142cca8 <_malloc_trim_r+0x98>
 142cc80:	9009883a 	mov	r4,r18
 142cc84:	142d3740 	call	142d374 <__malloc_unlock>
 142cc88:	0005883a 	mov	r2,zero
 142cc8c:	dfc00417 	ldw	ra,16(sp)
 142cc90:	dcc00317 	ldw	r19,12(sp)
 142cc94:	dc800217 	ldw	r18,8(sp)
 142cc98:	dc400117 	ldw	r17,4(sp)
 142cc9c:	dc000017 	ldw	r16,0(sp)
 142cca0:	dec00504 	addi	sp,sp,20
 142cca4:	f800283a 	ret
 142cca8:	040bc83a 	sub	r5,zero,r16
 142ccac:	9009883a 	mov	r4,r18
 142ccb0:	142c7dc0 	call	142c7dc <_sbrk_r>
 142ccb4:	00ffffc4 	movi	r3,-1
 142ccb8:	10c00d26 	beq	r2,r3,142ccf0 <_malloc_trim_r+0xe0>
 142ccbc:	00c050f4 	movhi	r3,323
 142ccc0:	18fd4304 	addi	r3,r3,-2804
 142ccc4:	18800017 	ldw	r2,0(r3)
 142ccc8:	99000217 	ldw	r4,8(r19)
 142cccc:	8c23c83a 	sub	r17,r17,r16
 142ccd0:	8c400054 	ori	r17,r17,1
 142ccd4:	1421c83a 	sub	r16,r2,r16
 142ccd8:	24400115 	stw	r17,4(r4)
 142ccdc:	9009883a 	mov	r4,r18
 142cce0:	1c000015 	stw	r16,0(r3)
 142cce4:	142d3740 	call	142d374 <__malloc_unlock>
 142cce8:	00800044 	movi	r2,1
 142ccec:	003fe706 	br	142cc8c <__alt_data_end+0xfffecc8c>
 142ccf0:	000b883a 	mov	r5,zero
 142ccf4:	9009883a 	mov	r4,r18
 142ccf8:	142c7dc0 	call	142c7dc <_sbrk_r>
 142ccfc:	99000217 	ldw	r4,8(r19)
 142cd00:	014003c4 	movi	r5,15
 142cd04:	1107c83a 	sub	r3,r2,r4
 142cd08:	28ffdd0e 	bge	r5,r3,142cc80 <__alt_data_end+0xfffecc80>
 142cd0c:	014050f4 	movhi	r5,323
 142cd10:	297a8104 	addi	r5,r5,-5628
 142cd14:	29400017 	ldw	r5,0(r5)
 142cd18:	18c00054 	ori	r3,r3,1
 142cd1c:	20c00115 	stw	r3,4(r4)
 142cd20:	00c050f4 	movhi	r3,323
 142cd24:	1145c83a 	sub	r2,r2,r5
 142cd28:	18fd4304 	addi	r3,r3,-2804
 142cd2c:	18800015 	stw	r2,0(r3)
 142cd30:	003fd306 	br	142cc80 <__alt_data_end+0xfffecc80>

0142cd34 <_free_r>:
 142cd34:	28004126 	beq	r5,zero,142ce3c <_free_r+0x108>
 142cd38:	defffd04 	addi	sp,sp,-12
 142cd3c:	dc400115 	stw	r17,4(sp)
 142cd40:	dc000015 	stw	r16,0(sp)
 142cd44:	2023883a 	mov	r17,r4
 142cd48:	2821883a 	mov	r16,r5
 142cd4c:	dfc00215 	stw	ra,8(sp)
 142cd50:	142d3500 	call	142d350 <__malloc_lock>
 142cd54:	81ffff17 	ldw	r7,-4(r16)
 142cd58:	00bfff84 	movi	r2,-2
 142cd5c:	010050f4 	movhi	r4,323
 142cd60:	81bffe04 	addi	r6,r16,-8
 142cd64:	3884703a 	and	r2,r7,r2
 142cd68:	21380204 	addi	r4,r4,-8184
 142cd6c:	308b883a 	add	r5,r6,r2
 142cd70:	2a400117 	ldw	r9,4(r5)
 142cd74:	22000217 	ldw	r8,8(r4)
 142cd78:	00ffff04 	movi	r3,-4
 142cd7c:	48c6703a 	and	r3,r9,r3
 142cd80:	2a005726 	beq	r5,r8,142cee0 <_free_r+0x1ac>
 142cd84:	28c00115 	stw	r3,4(r5)
 142cd88:	39c0004c 	andi	r7,r7,1
 142cd8c:	3800091e 	bne	r7,zero,142cdb4 <_free_r+0x80>
 142cd90:	823ffe17 	ldw	r8,-8(r16)
 142cd94:	22400204 	addi	r9,r4,8
 142cd98:	320dc83a 	sub	r6,r6,r8
 142cd9c:	31c00217 	ldw	r7,8(r6)
 142cda0:	1205883a 	add	r2,r2,r8
 142cda4:	3a406526 	beq	r7,r9,142cf3c <_free_r+0x208>
 142cda8:	32000317 	ldw	r8,12(r6)
 142cdac:	3a000315 	stw	r8,12(r7)
 142cdb0:	41c00215 	stw	r7,8(r8)
 142cdb4:	28cf883a 	add	r7,r5,r3
 142cdb8:	39c00117 	ldw	r7,4(r7)
 142cdbc:	39c0004c 	andi	r7,r7,1
 142cdc0:	38003a26 	beq	r7,zero,142ceac <_free_r+0x178>
 142cdc4:	10c00054 	ori	r3,r2,1
 142cdc8:	30c00115 	stw	r3,4(r6)
 142cdcc:	3087883a 	add	r3,r6,r2
 142cdd0:	18800015 	stw	r2,0(r3)
 142cdd4:	00c07fc4 	movi	r3,511
 142cdd8:	18801936 	bltu	r3,r2,142ce40 <_free_r+0x10c>
 142cddc:	1004d0fa 	srli	r2,r2,3
 142cde0:	01c00044 	movi	r7,1
 142cde4:	21400117 	ldw	r5,4(r4)
 142cde8:	10c00044 	addi	r3,r2,1
 142cdec:	18c7883a 	add	r3,r3,r3
 142cdf0:	1005d0ba 	srai	r2,r2,2
 142cdf4:	18c7883a 	add	r3,r3,r3
 142cdf8:	18c7883a 	add	r3,r3,r3
 142cdfc:	1907883a 	add	r3,r3,r4
 142ce00:	3884983a 	sll	r2,r7,r2
 142ce04:	19c00017 	ldw	r7,0(r3)
 142ce08:	1a3ffe04 	addi	r8,r3,-8
 142ce0c:	1144b03a 	or	r2,r2,r5
 142ce10:	32000315 	stw	r8,12(r6)
 142ce14:	31c00215 	stw	r7,8(r6)
 142ce18:	20800115 	stw	r2,4(r4)
 142ce1c:	19800015 	stw	r6,0(r3)
 142ce20:	39800315 	stw	r6,12(r7)
 142ce24:	8809883a 	mov	r4,r17
 142ce28:	dfc00217 	ldw	ra,8(sp)
 142ce2c:	dc400117 	ldw	r17,4(sp)
 142ce30:	dc000017 	ldw	r16,0(sp)
 142ce34:	dec00304 	addi	sp,sp,12
 142ce38:	142d3741 	jmpi	142d374 <__malloc_unlock>
 142ce3c:	f800283a 	ret
 142ce40:	100ad27a 	srli	r5,r2,9
 142ce44:	00c00104 	movi	r3,4
 142ce48:	19404a36 	bltu	r3,r5,142cf74 <_free_r+0x240>
 142ce4c:	100ad1ba 	srli	r5,r2,6
 142ce50:	28c00e44 	addi	r3,r5,57
 142ce54:	18c7883a 	add	r3,r3,r3
 142ce58:	29400e04 	addi	r5,r5,56
 142ce5c:	18c7883a 	add	r3,r3,r3
 142ce60:	18c7883a 	add	r3,r3,r3
 142ce64:	1909883a 	add	r4,r3,r4
 142ce68:	20c00017 	ldw	r3,0(r4)
 142ce6c:	01c050f4 	movhi	r7,323
 142ce70:	213ffe04 	addi	r4,r4,-8
 142ce74:	39f80204 	addi	r7,r7,-8184
 142ce78:	20c04426 	beq	r4,r3,142cf8c <_free_r+0x258>
 142ce7c:	01ffff04 	movi	r7,-4
 142ce80:	19400117 	ldw	r5,4(r3)
 142ce84:	29ca703a 	and	r5,r5,r7
 142ce88:	1140022e 	bgeu	r2,r5,142ce94 <_free_r+0x160>
 142ce8c:	18c00217 	ldw	r3,8(r3)
 142ce90:	20fffb1e 	bne	r4,r3,142ce80 <__alt_data_end+0xfffece80>
 142ce94:	19000317 	ldw	r4,12(r3)
 142ce98:	31000315 	stw	r4,12(r6)
 142ce9c:	30c00215 	stw	r3,8(r6)
 142cea0:	21800215 	stw	r6,8(r4)
 142cea4:	19800315 	stw	r6,12(r3)
 142cea8:	003fde06 	br	142ce24 <__alt_data_end+0xfffece24>
 142ceac:	29c00217 	ldw	r7,8(r5)
 142ceb0:	10c5883a 	add	r2,r2,r3
 142ceb4:	00c050f4 	movhi	r3,323
 142ceb8:	18f80404 	addi	r3,r3,-8176
 142cebc:	38c03b26 	beq	r7,r3,142cfac <_free_r+0x278>
 142cec0:	2a000317 	ldw	r8,12(r5)
 142cec4:	11400054 	ori	r5,r2,1
 142cec8:	3087883a 	add	r3,r6,r2
 142cecc:	3a000315 	stw	r8,12(r7)
 142ced0:	41c00215 	stw	r7,8(r8)
 142ced4:	31400115 	stw	r5,4(r6)
 142ced8:	18800015 	stw	r2,0(r3)
 142cedc:	003fbd06 	br	142cdd4 <__alt_data_end+0xfffecdd4>
 142cee0:	39c0004c 	andi	r7,r7,1
 142cee4:	10c5883a 	add	r2,r2,r3
 142cee8:	3800071e 	bne	r7,zero,142cf08 <_free_r+0x1d4>
 142ceec:	81fffe17 	ldw	r7,-8(r16)
 142cef0:	31cdc83a 	sub	r6,r6,r7
 142cef4:	30c00317 	ldw	r3,12(r6)
 142cef8:	31400217 	ldw	r5,8(r6)
 142cefc:	11c5883a 	add	r2,r2,r7
 142cf00:	28c00315 	stw	r3,12(r5)
 142cf04:	19400215 	stw	r5,8(r3)
 142cf08:	10c00054 	ori	r3,r2,1
 142cf0c:	30c00115 	stw	r3,4(r6)
 142cf10:	00c050f4 	movhi	r3,323
 142cf14:	18fa8204 	addi	r3,r3,-5624
 142cf18:	18c00017 	ldw	r3,0(r3)
 142cf1c:	21800215 	stw	r6,8(r4)
 142cf20:	10ffc036 	bltu	r2,r3,142ce24 <__alt_data_end+0xfffece24>
 142cf24:	008050f4 	movhi	r2,323
 142cf28:	10bd2a04 	addi	r2,r2,-2904
 142cf2c:	11400017 	ldw	r5,0(r2)
 142cf30:	8809883a 	mov	r4,r17
 142cf34:	142cc100 	call	142cc10 <_malloc_trim_r>
 142cf38:	003fba06 	br	142ce24 <__alt_data_end+0xfffece24>
 142cf3c:	28c9883a 	add	r4,r5,r3
 142cf40:	21000117 	ldw	r4,4(r4)
 142cf44:	2100004c 	andi	r4,r4,1
 142cf48:	2000391e 	bne	r4,zero,142d030 <_free_r+0x2fc>
 142cf4c:	29c00217 	ldw	r7,8(r5)
 142cf50:	29000317 	ldw	r4,12(r5)
 142cf54:	1885883a 	add	r2,r3,r2
 142cf58:	10c00054 	ori	r3,r2,1
 142cf5c:	39000315 	stw	r4,12(r7)
 142cf60:	21c00215 	stw	r7,8(r4)
 142cf64:	30c00115 	stw	r3,4(r6)
 142cf68:	308d883a 	add	r6,r6,r2
 142cf6c:	30800015 	stw	r2,0(r6)
 142cf70:	003fac06 	br	142ce24 <__alt_data_end+0xfffece24>
 142cf74:	00c00504 	movi	r3,20
 142cf78:	19401536 	bltu	r3,r5,142cfd0 <_free_r+0x29c>
 142cf7c:	28c01704 	addi	r3,r5,92
 142cf80:	18c7883a 	add	r3,r3,r3
 142cf84:	294016c4 	addi	r5,r5,91
 142cf88:	003fb406 	br	142ce5c <__alt_data_end+0xfffece5c>
 142cf8c:	280bd0ba 	srai	r5,r5,2
 142cf90:	00c00044 	movi	r3,1
 142cf94:	38800117 	ldw	r2,4(r7)
 142cf98:	194a983a 	sll	r5,r3,r5
 142cf9c:	2007883a 	mov	r3,r4
 142cfa0:	2884b03a 	or	r2,r5,r2
 142cfa4:	38800115 	stw	r2,4(r7)
 142cfa8:	003fbb06 	br	142ce98 <__alt_data_end+0xfffece98>
 142cfac:	21800515 	stw	r6,20(r4)
 142cfb0:	21800415 	stw	r6,16(r4)
 142cfb4:	10c00054 	ori	r3,r2,1
 142cfb8:	31c00315 	stw	r7,12(r6)
 142cfbc:	31c00215 	stw	r7,8(r6)
 142cfc0:	30c00115 	stw	r3,4(r6)
 142cfc4:	308d883a 	add	r6,r6,r2
 142cfc8:	30800015 	stw	r2,0(r6)
 142cfcc:	003f9506 	br	142ce24 <__alt_data_end+0xfffece24>
 142cfd0:	00c01504 	movi	r3,84
 142cfd4:	19400536 	bltu	r3,r5,142cfec <_free_r+0x2b8>
 142cfd8:	100ad33a 	srli	r5,r2,12
 142cfdc:	28c01bc4 	addi	r3,r5,111
 142cfe0:	18c7883a 	add	r3,r3,r3
 142cfe4:	29401b84 	addi	r5,r5,110
 142cfe8:	003f9c06 	br	142ce5c <__alt_data_end+0xfffece5c>
 142cfec:	00c05504 	movi	r3,340
 142cff0:	19400536 	bltu	r3,r5,142d008 <_free_r+0x2d4>
 142cff4:	100ad3fa 	srli	r5,r2,15
 142cff8:	28c01e04 	addi	r3,r5,120
 142cffc:	18c7883a 	add	r3,r3,r3
 142d000:	29401dc4 	addi	r5,r5,119
 142d004:	003f9506 	br	142ce5c <__alt_data_end+0xfffece5c>
 142d008:	00c15504 	movi	r3,1364
 142d00c:	19400536 	bltu	r3,r5,142d024 <_free_r+0x2f0>
 142d010:	100ad4ba 	srli	r5,r2,18
 142d014:	28c01f44 	addi	r3,r5,125
 142d018:	18c7883a 	add	r3,r3,r3
 142d01c:	29401f04 	addi	r5,r5,124
 142d020:	003f8e06 	br	142ce5c <__alt_data_end+0xfffece5c>
 142d024:	00c03f84 	movi	r3,254
 142d028:	01401f84 	movi	r5,126
 142d02c:	003f8b06 	br	142ce5c <__alt_data_end+0xfffece5c>
 142d030:	10c00054 	ori	r3,r2,1
 142d034:	30c00115 	stw	r3,4(r6)
 142d038:	308d883a 	add	r6,r6,r2
 142d03c:	30800015 	stw	r2,0(r6)
 142d040:	003f7806 	br	142ce24 <__alt_data_end+0xfffece24>

0142d044 <_exit>:
 142d044:	defffd04 	addi	sp,sp,-12
 142d048:	df000215 	stw	fp,8(sp)
 142d04c:	df000204 	addi	fp,sp,8
 142d050:	e13fff15 	stw	r4,-4(fp)
 142d054:	0001883a 	nop
 142d058:	e0bfff17 	ldw	r2,-4(fp)
 142d05c:	e0bffe15 	stw	r2,-8(fp)
 142d060:	e0bffe17 	ldw	r2,-8(fp)
 142d064:	10000226 	beq	r2,zero,142d070 <_exit+0x2c>
 142d068:	002af070 	cmpltui	zero,zero,43969
 142d06c:	00000106 	br	142d074 <_exit+0x30>
 142d070:	002af0b0 	cmpltui	zero,zero,43970
 142d074:	003fff06 	br	142d074 <__alt_data_end+0xfffed074>

0142d078 <getpid>:
 142d078:	deffff04 	addi	sp,sp,-4
 142d07c:	df000015 	stw	fp,0(sp)
 142d080:	d839883a 	mov	fp,sp
 142d084:	0005883a 	mov	r2,zero
 142d088:	e037883a 	mov	sp,fp
 142d08c:	df000017 	ldw	fp,0(sp)
 142d090:	dec00104 	addi	sp,sp,4
 142d094:	f800283a 	ret

0142d098 <alt_get_errno>:
 142d098:	defffe04 	addi	sp,sp,-8
 142d09c:	dfc00115 	stw	ra,4(sp)
 142d0a0:	df000015 	stw	fp,0(sp)
 142d0a4:	d839883a 	mov	fp,sp
 142d0a8:	d0a01417 	ldw	r2,-32688(gp)
 142d0ac:	10000326 	beq	r2,zero,142d0bc <alt_get_errno+0x24>
 142d0b0:	d0a01417 	ldw	r2,-32688(gp)
 142d0b4:	103ee83a 	callr	r2
 142d0b8:	00000106 	br	142d0c0 <alt_get_errno+0x28>
 142d0bc:	d0a2b404 	addi	r2,gp,-30000
 142d0c0:	e037883a 	mov	sp,fp
 142d0c4:	dfc00117 	ldw	ra,4(sp)
 142d0c8:	df000017 	ldw	fp,0(sp)
 142d0cc:	dec00204 	addi	sp,sp,8
 142d0d0:	f800283a 	ret

0142d0d4 <kill>:
 142d0d4:	defffb04 	addi	sp,sp,-20
 142d0d8:	dfc00415 	stw	ra,16(sp)
 142d0dc:	df000315 	stw	fp,12(sp)
 142d0e0:	df000304 	addi	fp,sp,12
 142d0e4:	e13ffe15 	stw	r4,-8(fp)
 142d0e8:	e17fff15 	stw	r5,-4(fp)
 142d0ec:	e03ffd15 	stw	zero,-12(fp)
 142d0f0:	e0bffe17 	ldw	r2,-8(fp)
 142d0f4:	00802f16 	blt	zero,r2,142d1b4 <kill+0xe0>
 142d0f8:	e0bfff17 	ldw	r2,-4(fp)
 142d0fc:	10800828 	cmpgeui	r2,r2,32
 142d100:	1000291e 	bne	r2,zero,142d1a8 <kill+0xd4>
 142d104:	e0bfff17 	ldw	r2,-4(fp)
 142d108:	100690ba 	slli	r3,r2,2
 142d10c:	008050f4 	movhi	r2,323
 142d110:	10b44804 	addi	r2,r2,-12000
 142d114:	1885883a 	add	r2,r3,r2
 142d118:	10800017 	ldw	r2,0(r2)
 142d11c:	1000683a 	jmp	r2
 142d120:	0142d1c8 	cmpgei	r5,zero,2887
 142d124:	0142d1a8 	cmpgeui	r5,zero,2886
 142d128:	0142d1a8 	cmpgeui	r5,zero,2886
 142d12c:	0142d1a0 	cmpeqi	r5,zero,2886
 142d130:	0142d1a0 	cmpeqi	r5,zero,2886
 142d134:	0142d1a0 	cmpeqi	r5,zero,2886
 142d138:	0142d1a0 	cmpeqi	r5,zero,2886
 142d13c:	0142d1a8 	cmpgeui	r5,zero,2886
 142d140:	0142d1a0 	cmpeqi	r5,zero,2886
 142d144:	0142d1a0 	cmpeqi	r5,zero,2886
 142d148:	0142d1a0 	cmpeqi	r5,zero,2886
 142d14c:	0142d1a0 	cmpeqi	r5,zero,2886
 142d150:	0142d1a0 	cmpeqi	r5,zero,2886
 142d154:	0142d1a0 	cmpeqi	r5,zero,2886
 142d158:	0142d1a0 	cmpeqi	r5,zero,2886
 142d15c:	0142d1a0 	cmpeqi	r5,zero,2886
 142d160:	0142d1c8 	cmpgei	r5,zero,2887
 142d164:	0142d1a8 	cmpgeui	r5,zero,2886
 142d168:	0142d1a8 	cmpgeui	r5,zero,2886
 142d16c:	0142d1a8 	cmpgeui	r5,zero,2886
 142d170:	0142d1c8 	cmpgei	r5,zero,2887
 142d174:	0142d1a8 	cmpgeui	r5,zero,2886
 142d178:	0142d1a8 	cmpgeui	r5,zero,2886
 142d17c:	0142d1a0 	cmpeqi	r5,zero,2886
 142d180:	0142d1a0 	cmpeqi	r5,zero,2886
 142d184:	0142d1a0 	cmpeqi	r5,zero,2886
 142d188:	0142d1a0 	cmpeqi	r5,zero,2886
 142d18c:	0142d1a0 	cmpeqi	r5,zero,2886
 142d190:	0142d1a8 	cmpgeui	r5,zero,2886
 142d194:	0142d1a8 	cmpgeui	r5,zero,2886
 142d198:	0142d1a0 	cmpeqi	r5,zero,2886
 142d19c:	0142d1a0 	cmpeqi	r5,zero,2886
 142d1a0:	0009883a 	mov	r4,zero
 142d1a4:	142d0440 	call	142d044 <_exit>
 142d1a8:	00800584 	movi	r2,22
 142d1ac:	e0bffd15 	stw	r2,-12(fp)
 142d1b0:	00000606 	br	142d1cc <kill+0xf8>
 142d1b4:	e0bffe17 	ldw	r2,-8(fp)
 142d1b8:	0080040e 	bge	zero,r2,142d1cc <kill+0xf8>
 142d1bc:	008000c4 	movi	r2,3
 142d1c0:	e0bffd15 	stw	r2,-12(fp)
 142d1c4:	00000106 	br	142d1cc <kill+0xf8>
 142d1c8:	0001883a 	nop
 142d1cc:	e0bffd17 	ldw	r2,-12(fp)
 142d1d0:	10000626 	beq	r2,zero,142d1ec <kill+0x118>
 142d1d4:	142d0980 	call	142d098 <alt_get_errno>
 142d1d8:	1007883a 	mov	r3,r2
 142d1dc:	e0bffd17 	ldw	r2,-12(fp)
 142d1e0:	18800015 	stw	r2,0(r3)
 142d1e4:	00bfffc4 	movi	r2,-1
 142d1e8:	00000106 	br	142d1f0 <kill+0x11c>
 142d1ec:	0005883a 	mov	r2,zero
 142d1f0:	e037883a 	mov	sp,fp
 142d1f4:	dfc00117 	ldw	ra,4(sp)
 142d1f8:	df000017 	ldw	fp,0(sp)
 142d1fc:	dec00204 	addi	sp,sp,8
 142d200:	f800283a 	ret

0142d204 <alt_load_section>:
 142d204:	defffc04 	addi	sp,sp,-16
 142d208:	df000315 	stw	fp,12(sp)
 142d20c:	df000304 	addi	fp,sp,12
 142d210:	e13ffd15 	stw	r4,-12(fp)
 142d214:	e17ffe15 	stw	r5,-8(fp)
 142d218:	e1bfff15 	stw	r6,-4(fp)
 142d21c:	e0fffe17 	ldw	r3,-8(fp)
 142d220:	e0bffd17 	ldw	r2,-12(fp)
 142d224:	18800c26 	beq	r3,r2,142d258 <alt_load_section+0x54>
 142d228:	00000806 	br	142d24c <alt_load_section+0x48>
 142d22c:	e0bffe17 	ldw	r2,-8(fp)
 142d230:	10c00104 	addi	r3,r2,4
 142d234:	e0fffe15 	stw	r3,-8(fp)
 142d238:	e0fffd17 	ldw	r3,-12(fp)
 142d23c:	19000104 	addi	r4,r3,4
 142d240:	e13ffd15 	stw	r4,-12(fp)
 142d244:	18c00017 	ldw	r3,0(r3)
 142d248:	10c00015 	stw	r3,0(r2)
 142d24c:	e0fffe17 	ldw	r3,-8(fp)
 142d250:	e0bfff17 	ldw	r2,-4(fp)
 142d254:	18bff51e 	bne	r3,r2,142d22c <__alt_data_end+0xfffed22c>
 142d258:	0001883a 	nop
 142d25c:	e037883a 	mov	sp,fp
 142d260:	df000017 	ldw	fp,0(sp)
 142d264:	dec00104 	addi	sp,sp,4
 142d268:	f800283a 	ret

0142d26c <alt_load>:
 142d26c:	defffe04 	addi	sp,sp,-8
 142d270:	dfc00115 	stw	ra,4(sp)
 142d274:	df000015 	stw	fp,0(sp)
 142d278:	d839883a 	mov	fp,sp
 142d27c:	018050f4 	movhi	r6,323
 142d280:	31ba8c04 	addi	r6,r6,-5584
 142d284:	014050f4 	movhi	r5,323
 142d288:	29780204 	addi	r5,r5,-8184
 142d28c:	010050f4 	movhi	r4,323
 142d290:	213a8c04 	addi	r4,r4,-5584
 142d294:	142d2040 	call	142d204 <alt_load_section>
 142d298:	018050b4 	movhi	r6,322
 142d29c:	31800804 	addi	r6,r6,32
 142d2a0:	014050b4 	movhi	r5,322
 142d2a4:	29400804 	addi	r5,r5,32
 142d2a8:	010050b4 	movhi	r4,322
 142d2ac:	21000804 	addi	r4,r4,32
 142d2b0:	142d2040 	call	142d204 <alt_load_section>
 142d2b4:	018050f4 	movhi	r6,323
 142d2b8:	31b80204 	addi	r6,r6,-8184
 142d2bc:	014050f4 	movhi	r5,323
 142d2c0:	29770004 	addi	r5,r5,-9216
 142d2c4:	010050f4 	movhi	r4,323
 142d2c8:	21370004 	addi	r4,r4,-9216
 142d2cc:	142d2040 	call	142d204 <alt_load_section>
 142d2d0:	142d6f40 	call	142d6f4 <alt_dcache_flush_all>
 142d2d4:	142d8000 	call	142d800 <alt_icache_flush_all>
 142d2d8:	0001883a 	nop
 142d2dc:	e037883a 	mov	sp,fp
 142d2e0:	dfc00117 	ldw	ra,4(sp)
 142d2e4:	df000017 	ldw	fp,0(sp)
 142d2e8:	dec00204 	addi	sp,sp,8
 142d2ec:	f800283a 	ret

0142d2f0 <alt_main>:
 142d2f0:	defffd04 	addi	sp,sp,-12
 142d2f4:	dfc00215 	stw	ra,8(sp)
 142d2f8:	df000115 	stw	fp,4(sp)
 142d2fc:	df000104 	addi	fp,sp,4
 142d300:	0009883a 	mov	r4,zero
 142d304:	142d5840 	call	142d584 <alt_irq_init>
 142d308:	0001883a 	nop
 142d30c:	142d5bc0 	call	142d5bc <alt_sys_init>
 142d310:	142d7400 	call	142d740 <_do_ctors>
 142d314:	010050f4 	movhi	r4,323
 142d318:	2135e804 	addi	r4,r4,-10336
 142d31c:	142d8c80 	call	142d8c8 <atexit>
 142d320:	d0a2b517 	ldw	r2,-29996(gp)
 142d324:	d0e2b617 	ldw	r3,-29992(gp)
 142d328:	d122b717 	ldw	r4,-29988(gp)
 142d32c:	200d883a 	mov	r6,r4
 142d330:	180b883a 	mov	r5,r3
 142d334:	1009883a 	mov	r4,r2
 142d338:	1422c900 	call	1422c90 <main>
 142d33c:	e0bfff15 	stw	r2,-4(fp)
 142d340:	01000044 	movi	r4,1
 142d344:	142d61c0 	call	142d61c <close>
 142d348:	e13fff17 	ldw	r4,-4(fp)
 142d34c:	142d8dc0 	call	142d8dc <exit>

0142d350 <__malloc_lock>:
 142d350:	defffe04 	addi	sp,sp,-8
 142d354:	df000115 	stw	fp,4(sp)
 142d358:	df000104 	addi	fp,sp,4
 142d35c:	e13fff15 	stw	r4,-4(fp)
 142d360:	0001883a 	nop
 142d364:	e037883a 	mov	sp,fp
 142d368:	df000017 	ldw	fp,0(sp)
 142d36c:	dec00104 	addi	sp,sp,4
 142d370:	f800283a 	ret

0142d374 <__malloc_unlock>:
 142d374:	defffe04 	addi	sp,sp,-8
 142d378:	df000115 	stw	fp,4(sp)
 142d37c:	df000104 	addi	fp,sp,4
 142d380:	e13fff15 	stw	r4,-4(fp)
 142d384:	0001883a 	nop
 142d388:	e037883a 	mov	sp,fp
 142d38c:	df000017 	ldw	fp,0(sp)
 142d390:	dec00104 	addi	sp,sp,4
 142d394:	f800283a 	ret

0142d398 <sbrk>:
 142d398:	defff904 	addi	sp,sp,-28
 142d39c:	df000615 	stw	fp,24(sp)
 142d3a0:	df000604 	addi	fp,sp,24
 142d3a4:	e13fff15 	stw	r4,-4(fp)
 142d3a8:	0005303a 	rdctl	r2,status
 142d3ac:	e0bffe15 	stw	r2,-8(fp)
 142d3b0:	e0fffe17 	ldw	r3,-8(fp)
 142d3b4:	00bfff84 	movi	r2,-2
 142d3b8:	1884703a 	and	r2,r3,r2
 142d3bc:	1001703a 	wrctl	status,r2
 142d3c0:	e0bffe17 	ldw	r2,-8(fp)
 142d3c4:	e0bffb15 	stw	r2,-20(fp)
 142d3c8:	d0a00e17 	ldw	r2,-32712(gp)
 142d3cc:	10c000c4 	addi	r3,r2,3
 142d3d0:	00bfff04 	movi	r2,-4
 142d3d4:	1884703a 	and	r2,r3,r2
 142d3d8:	d0a00e15 	stw	r2,-32712(gp)
 142d3dc:	d0e00e17 	ldw	r3,-32712(gp)
 142d3e0:	e0bfff17 	ldw	r2,-4(fp)
 142d3e4:	1887883a 	add	r3,r3,r2
 142d3e8:	00805134 	movhi	r2,324
 142d3ec:	10800004 	addi	r2,r2,0
 142d3f0:	10c0062e 	bgeu	r2,r3,142d40c <sbrk+0x74>
 142d3f4:	e0bffb17 	ldw	r2,-20(fp)
 142d3f8:	e0bffa15 	stw	r2,-24(fp)
 142d3fc:	e0bffa17 	ldw	r2,-24(fp)
 142d400:	1001703a 	wrctl	status,r2
 142d404:	00bfffc4 	movi	r2,-1
 142d408:	00000b06 	br	142d438 <sbrk+0xa0>
 142d40c:	d0a00e17 	ldw	r2,-32712(gp)
 142d410:	e0bffd15 	stw	r2,-12(fp)
 142d414:	d0e00e17 	ldw	r3,-32712(gp)
 142d418:	e0bfff17 	ldw	r2,-4(fp)
 142d41c:	1885883a 	add	r2,r3,r2
 142d420:	d0a00e15 	stw	r2,-32712(gp)
 142d424:	e0bffb17 	ldw	r2,-20(fp)
 142d428:	e0bffc15 	stw	r2,-16(fp)
 142d42c:	e0bffc17 	ldw	r2,-16(fp)
 142d430:	1001703a 	wrctl	status,r2
 142d434:	e0bffd17 	ldw	r2,-12(fp)
 142d438:	e037883a 	mov	sp,fp
 142d43c:	df000017 	ldw	fp,0(sp)
 142d440:	dec00104 	addi	sp,sp,4
 142d444:	f800283a 	ret

0142d448 <alt_get_errno>:
 142d448:	defffe04 	addi	sp,sp,-8
 142d44c:	dfc00115 	stw	ra,4(sp)
 142d450:	df000015 	stw	fp,0(sp)
 142d454:	d839883a 	mov	fp,sp
 142d458:	d0a01417 	ldw	r2,-32688(gp)
 142d45c:	10000326 	beq	r2,zero,142d46c <alt_get_errno+0x24>
 142d460:	d0a01417 	ldw	r2,-32688(gp)
 142d464:	103ee83a 	callr	r2
 142d468:	00000106 	br	142d470 <alt_get_errno+0x28>
 142d46c:	d0a2b404 	addi	r2,gp,-30000
 142d470:	e037883a 	mov	sp,fp
 142d474:	dfc00117 	ldw	ra,4(sp)
 142d478:	df000017 	ldw	fp,0(sp)
 142d47c:	dec00204 	addi	sp,sp,8
 142d480:	f800283a 	ret

0142d484 <write>:
 142d484:	defff904 	addi	sp,sp,-28
 142d488:	dfc00615 	stw	ra,24(sp)
 142d48c:	df000515 	stw	fp,20(sp)
 142d490:	df000504 	addi	fp,sp,20
 142d494:	e13ffd15 	stw	r4,-12(fp)
 142d498:	e17ffe15 	stw	r5,-8(fp)
 142d49c:	e1bfff15 	stw	r6,-4(fp)
 142d4a0:	e0bffd17 	ldw	r2,-12(fp)
 142d4a4:	10000816 	blt	r2,zero,142d4c8 <write+0x44>
 142d4a8:	01400304 	movi	r5,12
 142d4ac:	e13ffd17 	ldw	r4,-12(fp)
 142d4b0:	14288940 	call	1428894 <__mulsi3>
 142d4b4:	1007883a 	mov	r3,r2
 142d4b8:	008050f4 	movhi	r2,323
 142d4bc:	10ba1704 	addi	r2,r2,-6052
 142d4c0:	1885883a 	add	r2,r3,r2
 142d4c4:	00000106 	br	142d4cc <write+0x48>
 142d4c8:	0005883a 	mov	r2,zero
 142d4cc:	e0bffb15 	stw	r2,-20(fp)
 142d4d0:	e0bffb17 	ldw	r2,-20(fp)
 142d4d4:	10002126 	beq	r2,zero,142d55c <write+0xd8>
 142d4d8:	e0bffb17 	ldw	r2,-20(fp)
 142d4dc:	10800217 	ldw	r2,8(r2)
 142d4e0:	108000cc 	andi	r2,r2,3
 142d4e4:	10001826 	beq	r2,zero,142d548 <write+0xc4>
 142d4e8:	e0bffb17 	ldw	r2,-20(fp)
 142d4ec:	10800017 	ldw	r2,0(r2)
 142d4f0:	10800617 	ldw	r2,24(r2)
 142d4f4:	10001426 	beq	r2,zero,142d548 <write+0xc4>
 142d4f8:	e0bffb17 	ldw	r2,-20(fp)
 142d4fc:	10800017 	ldw	r2,0(r2)
 142d500:	10800617 	ldw	r2,24(r2)
 142d504:	e0ffff17 	ldw	r3,-4(fp)
 142d508:	180d883a 	mov	r6,r3
 142d50c:	e17ffe17 	ldw	r5,-8(fp)
 142d510:	e13ffb17 	ldw	r4,-20(fp)
 142d514:	103ee83a 	callr	r2
 142d518:	e0bffc15 	stw	r2,-16(fp)
 142d51c:	e0bffc17 	ldw	r2,-16(fp)
 142d520:	1000070e 	bge	r2,zero,142d540 <write+0xbc>
 142d524:	142d4480 	call	142d448 <alt_get_errno>
 142d528:	1007883a 	mov	r3,r2
 142d52c:	e0bffc17 	ldw	r2,-16(fp)
 142d530:	0085c83a 	sub	r2,zero,r2
 142d534:	18800015 	stw	r2,0(r3)
 142d538:	00bfffc4 	movi	r2,-1
 142d53c:	00000c06 	br	142d570 <write+0xec>
 142d540:	e0bffc17 	ldw	r2,-16(fp)
 142d544:	00000a06 	br	142d570 <write+0xec>
 142d548:	142d4480 	call	142d448 <alt_get_errno>
 142d54c:	1007883a 	mov	r3,r2
 142d550:	00800344 	movi	r2,13
 142d554:	18800015 	stw	r2,0(r3)
 142d558:	00000406 	br	142d56c <write+0xe8>
 142d55c:	142d4480 	call	142d448 <alt_get_errno>
 142d560:	1007883a 	mov	r3,r2
 142d564:	00801444 	movi	r2,81
 142d568:	18800015 	stw	r2,0(r3)
 142d56c:	00bfffc4 	movi	r2,-1
 142d570:	e037883a 	mov	sp,fp
 142d574:	dfc00117 	ldw	ra,4(sp)
 142d578:	df000017 	ldw	fp,0(sp)
 142d57c:	dec00204 	addi	sp,sp,8
 142d580:	f800283a 	ret

0142d584 <alt_irq_init>:
 142d584:	defffd04 	addi	sp,sp,-12
 142d588:	dfc00215 	stw	ra,8(sp)
 142d58c:	df000115 	stw	fp,4(sp)
 142d590:	df000104 	addi	fp,sp,4
 142d594:	e13fff15 	stw	r4,-4(fp)
 142d598:	142d8a40 	call	142d8a4 <altera_nios2_gen2_irq_init>
 142d59c:	00800044 	movi	r2,1
 142d5a0:	1001703a 	wrctl	status,r2
 142d5a4:	0001883a 	nop
 142d5a8:	e037883a 	mov	sp,fp
 142d5ac:	dfc00117 	ldw	ra,4(sp)
 142d5b0:	df000017 	ldw	fp,0(sp)
 142d5b4:	dec00204 	addi	sp,sp,8
 142d5b8:	f800283a 	ret

0142d5bc <alt_sys_init>:
 142d5bc:	deffff04 	addi	sp,sp,-4
 142d5c0:	df000015 	stw	fp,0(sp)
 142d5c4:	d839883a 	mov	fp,sp
 142d5c8:	0001883a 	nop
 142d5cc:	0001883a 	nop
 142d5d0:	e037883a 	mov	sp,fp
 142d5d4:	df000017 	ldw	fp,0(sp)
 142d5d8:	dec00104 	addi	sp,sp,4
 142d5dc:	f800283a 	ret

0142d5e0 <alt_get_errno>:
 142d5e0:	defffe04 	addi	sp,sp,-8
 142d5e4:	dfc00115 	stw	ra,4(sp)
 142d5e8:	df000015 	stw	fp,0(sp)
 142d5ec:	d839883a 	mov	fp,sp
 142d5f0:	d0a01417 	ldw	r2,-32688(gp)
 142d5f4:	10000326 	beq	r2,zero,142d604 <alt_get_errno+0x24>
 142d5f8:	d0a01417 	ldw	r2,-32688(gp)
 142d5fc:	103ee83a 	callr	r2
 142d600:	00000106 	br	142d608 <alt_get_errno+0x28>
 142d604:	d0a2b404 	addi	r2,gp,-30000
 142d608:	e037883a 	mov	sp,fp
 142d60c:	dfc00117 	ldw	ra,4(sp)
 142d610:	df000017 	ldw	fp,0(sp)
 142d614:	dec00204 	addi	sp,sp,8
 142d618:	f800283a 	ret

0142d61c <close>:
 142d61c:	defffb04 	addi	sp,sp,-20
 142d620:	dfc00415 	stw	ra,16(sp)
 142d624:	df000315 	stw	fp,12(sp)
 142d628:	df000304 	addi	fp,sp,12
 142d62c:	e13fff15 	stw	r4,-4(fp)
 142d630:	e0bfff17 	ldw	r2,-4(fp)
 142d634:	10000816 	blt	r2,zero,142d658 <close+0x3c>
 142d638:	01400304 	movi	r5,12
 142d63c:	e13fff17 	ldw	r4,-4(fp)
 142d640:	14288940 	call	1428894 <__mulsi3>
 142d644:	1007883a 	mov	r3,r2
 142d648:	008050f4 	movhi	r2,323
 142d64c:	10ba1704 	addi	r2,r2,-6052
 142d650:	1885883a 	add	r2,r3,r2
 142d654:	00000106 	br	142d65c <close+0x40>
 142d658:	0005883a 	mov	r2,zero
 142d65c:	e0bffd15 	stw	r2,-12(fp)
 142d660:	e0bffd17 	ldw	r2,-12(fp)
 142d664:	10001926 	beq	r2,zero,142d6cc <close+0xb0>
 142d668:	e0bffd17 	ldw	r2,-12(fp)
 142d66c:	10800017 	ldw	r2,0(r2)
 142d670:	10800417 	ldw	r2,16(r2)
 142d674:	10000626 	beq	r2,zero,142d690 <close+0x74>
 142d678:	e0bffd17 	ldw	r2,-12(fp)
 142d67c:	10800017 	ldw	r2,0(r2)
 142d680:	10800417 	ldw	r2,16(r2)
 142d684:	e13ffd17 	ldw	r4,-12(fp)
 142d688:	103ee83a 	callr	r2
 142d68c:	00000106 	br	142d694 <close+0x78>
 142d690:	0005883a 	mov	r2,zero
 142d694:	e0bffe15 	stw	r2,-8(fp)
 142d698:	e13fff17 	ldw	r4,-4(fp)
 142d69c:	142d8200 	call	142d820 <alt_release_fd>
 142d6a0:	e0bffe17 	ldw	r2,-8(fp)
 142d6a4:	1000070e 	bge	r2,zero,142d6c4 <close+0xa8>
 142d6a8:	142d5e00 	call	142d5e0 <alt_get_errno>
 142d6ac:	1007883a 	mov	r3,r2
 142d6b0:	e0bffe17 	ldw	r2,-8(fp)
 142d6b4:	0085c83a 	sub	r2,zero,r2
 142d6b8:	18800015 	stw	r2,0(r3)
 142d6bc:	00bfffc4 	movi	r2,-1
 142d6c0:	00000706 	br	142d6e0 <close+0xc4>
 142d6c4:	0005883a 	mov	r2,zero
 142d6c8:	00000506 	br	142d6e0 <close+0xc4>
 142d6cc:	142d5e00 	call	142d5e0 <alt_get_errno>
 142d6d0:	1007883a 	mov	r3,r2
 142d6d4:	00801444 	movi	r2,81
 142d6d8:	18800015 	stw	r2,0(r3)
 142d6dc:	00bfffc4 	movi	r2,-1
 142d6e0:	e037883a 	mov	sp,fp
 142d6e4:	dfc00117 	ldw	ra,4(sp)
 142d6e8:	df000017 	ldw	fp,0(sp)
 142d6ec:	dec00204 	addi	sp,sp,8
 142d6f0:	f800283a 	ret

0142d6f4 <alt_dcache_flush_all>:
 142d6f4:	deffff04 	addi	sp,sp,-4
 142d6f8:	df000015 	stw	fp,0(sp)
 142d6fc:	d839883a 	mov	fp,sp
 142d700:	0001883a 	nop
 142d704:	e037883a 	mov	sp,fp
 142d708:	df000017 	ldw	fp,0(sp)
 142d70c:	dec00104 	addi	sp,sp,4
 142d710:	f800283a 	ret

0142d714 <alt_dev_null_write>:
 142d714:	defffc04 	addi	sp,sp,-16
 142d718:	df000315 	stw	fp,12(sp)
 142d71c:	df000304 	addi	fp,sp,12
 142d720:	e13ffd15 	stw	r4,-12(fp)
 142d724:	e17ffe15 	stw	r5,-8(fp)
 142d728:	e1bfff15 	stw	r6,-4(fp)
 142d72c:	e0bfff17 	ldw	r2,-4(fp)
 142d730:	e037883a 	mov	sp,fp
 142d734:	df000017 	ldw	fp,0(sp)
 142d738:	dec00104 	addi	sp,sp,4
 142d73c:	f800283a 	ret

0142d740 <_do_ctors>:
 142d740:	defffd04 	addi	sp,sp,-12
 142d744:	dfc00215 	stw	ra,8(sp)
 142d748:	df000115 	stw	fp,4(sp)
 142d74c:	df000104 	addi	fp,sp,4
 142d750:	008050f4 	movhi	r2,323
 142d754:	10b6fd04 	addi	r2,r2,-9228
 142d758:	e0bfff15 	stw	r2,-4(fp)
 142d75c:	00000606 	br	142d778 <_do_ctors+0x38>
 142d760:	e0bfff17 	ldw	r2,-4(fp)
 142d764:	10800017 	ldw	r2,0(r2)
 142d768:	103ee83a 	callr	r2
 142d76c:	e0bfff17 	ldw	r2,-4(fp)
 142d770:	10bfff04 	addi	r2,r2,-4
 142d774:	e0bfff15 	stw	r2,-4(fp)
 142d778:	e0ffff17 	ldw	r3,-4(fp)
 142d77c:	008050f4 	movhi	r2,323
 142d780:	10b6fa44 	addi	r2,r2,-9239
 142d784:	18bff62e 	bgeu	r3,r2,142d760 <__alt_data_end+0xfffed760>
 142d788:	0001883a 	nop
 142d78c:	e037883a 	mov	sp,fp
 142d790:	dfc00117 	ldw	ra,4(sp)
 142d794:	df000017 	ldw	fp,0(sp)
 142d798:	dec00204 	addi	sp,sp,8
 142d79c:	f800283a 	ret

0142d7a0 <_do_dtors>:
 142d7a0:	defffd04 	addi	sp,sp,-12
 142d7a4:	dfc00215 	stw	ra,8(sp)
 142d7a8:	df000115 	stw	fp,4(sp)
 142d7ac:	df000104 	addi	fp,sp,4
 142d7b0:	008050f4 	movhi	r2,323
 142d7b4:	10b6ff04 	addi	r2,r2,-9220
 142d7b8:	e0bfff15 	stw	r2,-4(fp)
 142d7bc:	00000606 	br	142d7d8 <_do_dtors+0x38>
 142d7c0:	e0bfff17 	ldw	r2,-4(fp)
 142d7c4:	10800017 	ldw	r2,0(r2)
 142d7c8:	103ee83a 	callr	r2
 142d7cc:	e0bfff17 	ldw	r2,-4(fp)
 142d7d0:	10bfff04 	addi	r2,r2,-4
 142d7d4:	e0bfff15 	stw	r2,-4(fp)
 142d7d8:	e0ffff17 	ldw	r3,-4(fp)
 142d7dc:	008050f4 	movhi	r2,323
 142d7e0:	10b6fe04 	addi	r2,r2,-9224
 142d7e4:	18bff62e 	bgeu	r3,r2,142d7c0 <__alt_data_end+0xfffed7c0>
 142d7e8:	0001883a 	nop
 142d7ec:	e037883a 	mov	sp,fp
 142d7f0:	dfc00117 	ldw	ra,4(sp)
 142d7f4:	df000017 	ldw	fp,0(sp)
 142d7f8:	dec00204 	addi	sp,sp,8
 142d7fc:	f800283a 	ret

0142d800 <alt_icache_flush_all>:
 142d800:	deffff04 	addi	sp,sp,-4
 142d804:	df000015 	stw	fp,0(sp)
 142d808:	d839883a 	mov	fp,sp
 142d80c:	0001883a 	nop
 142d810:	e037883a 	mov	sp,fp
 142d814:	df000017 	ldw	fp,0(sp)
 142d818:	dec00104 	addi	sp,sp,4
 142d81c:	f800283a 	ret

0142d820 <alt_release_fd>:
 142d820:	defffc04 	addi	sp,sp,-16
 142d824:	dfc00315 	stw	ra,12(sp)
 142d828:	df000215 	stw	fp,8(sp)
 142d82c:	dc000115 	stw	r16,4(sp)
 142d830:	df000204 	addi	fp,sp,8
 142d834:	e13ffe15 	stw	r4,-8(fp)
 142d838:	e0bffe17 	ldw	r2,-8(fp)
 142d83c:	108000d0 	cmplti	r2,r2,3
 142d840:	1000111e 	bne	r2,zero,142d888 <alt_release_fd+0x68>
 142d844:	040050f4 	movhi	r16,323
 142d848:	843a1704 	addi	r16,r16,-6052
 142d84c:	e0bffe17 	ldw	r2,-8(fp)
 142d850:	01400304 	movi	r5,12
 142d854:	1009883a 	mov	r4,r2
 142d858:	14288940 	call	1428894 <__mulsi3>
 142d85c:	8085883a 	add	r2,r16,r2
 142d860:	10800204 	addi	r2,r2,8
 142d864:	10000015 	stw	zero,0(r2)
 142d868:	040050f4 	movhi	r16,323
 142d86c:	843a1704 	addi	r16,r16,-6052
 142d870:	e0bffe17 	ldw	r2,-8(fp)
 142d874:	01400304 	movi	r5,12
 142d878:	1009883a 	mov	r4,r2
 142d87c:	14288940 	call	1428894 <__mulsi3>
 142d880:	8085883a 	add	r2,r16,r2
 142d884:	10000015 	stw	zero,0(r2)
 142d888:	0001883a 	nop
 142d88c:	e6ffff04 	addi	sp,fp,-4
 142d890:	dfc00217 	ldw	ra,8(sp)
 142d894:	df000117 	ldw	fp,4(sp)
 142d898:	dc000017 	ldw	r16,0(sp)
 142d89c:	dec00304 	addi	sp,sp,12
 142d8a0:	f800283a 	ret

0142d8a4 <altera_nios2_gen2_irq_init>:
 142d8a4:	deffff04 	addi	sp,sp,-4
 142d8a8:	df000015 	stw	fp,0(sp)
 142d8ac:	d839883a 	mov	fp,sp
 142d8b0:	000170fa 	wrctl	ienable,zero
 142d8b4:	0001883a 	nop
 142d8b8:	e037883a 	mov	sp,fp
 142d8bc:	df000017 	ldw	fp,0(sp)
 142d8c0:	dec00104 	addi	sp,sp,4
 142d8c4:	f800283a 	ret

0142d8c8 <atexit>:
 142d8c8:	200b883a 	mov	r5,r4
 142d8cc:	000f883a 	mov	r7,zero
 142d8d0:	000d883a 	mov	r6,zero
 142d8d4:	0009883a 	mov	r4,zero
 142d8d8:	142d9141 	jmpi	142d914 <__register_exitproc>

0142d8dc <exit>:
 142d8dc:	defffe04 	addi	sp,sp,-8
 142d8e0:	000b883a 	mov	r5,zero
 142d8e4:	dc000015 	stw	r16,0(sp)
 142d8e8:	dfc00115 	stw	ra,4(sp)
 142d8ec:	2021883a 	mov	r16,r4
 142d8f0:	142da2c0 	call	142da2c <__call_exitprocs>
 142d8f4:	008050f4 	movhi	r2,323
 142d8f8:	10ba8304 	addi	r2,r2,-5620
 142d8fc:	11000017 	ldw	r4,0(r2)
 142d900:	20800f17 	ldw	r2,60(r4)
 142d904:	10000126 	beq	r2,zero,142d90c <exit+0x30>
 142d908:	103ee83a 	callr	r2
 142d90c:	8009883a 	mov	r4,r16
 142d910:	142d0440 	call	142d044 <_exit>

0142d914 <__register_exitproc>:
 142d914:	defffa04 	addi	sp,sp,-24
 142d918:	dc000315 	stw	r16,12(sp)
 142d91c:	040050f4 	movhi	r16,323
 142d920:	843a8304 	addi	r16,r16,-5620
 142d924:	80c00017 	ldw	r3,0(r16)
 142d928:	dc400415 	stw	r17,16(sp)
 142d92c:	dfc00515 	stw	ra,20(sp)
 142d930:	18805217 	ldw	r2,328(r3)
 142d934:	2023883a 	mov	r17,r4
 142d938:	10003726 	beq	r2,zero,142da18 <__register_exitproc+0x104>
 142d93c:	10c00117 	ldw	r3,4(r2)
 142d940:	010007c4 	movi	r4,31
 142d944:	20c00e16 	blt	r4,r3,142d980 <__register_exitproc+0x6c>
 142d948:	1a000044 	addi	r8,r3,1
 142d94c:	8800221e 	bne	r17,zero,142d9d8 <__register_exitproc+0xc4>
 142d950:	18c00084 	addi	r3,r3,2
 142d954:	18c7883a 	add	r3,r3,r3
 142d958:	18c7883a 	add	r3,r3,r3
 142d95c:	12000115 	stw	r8,4(r2)
 142d960:	10c7883a 	add	r3,r2,r3
 142d964:	19400015 	stw	r5,0(r3)
 142d968:	0005883a 	mov	r2,zero
 142d96c:	dfc00517 	ldw	ra,20(sp)
 142d970:	dc400417 	ldw	r17,16(sp)
 142d974:	dc000317 	ldw	r16,12(sp)
 142d978:	dec00604 	addi	sp,sp,24
 142d97c:	f800283a 	ret
 142d980:	008050f4 	movhi	r2,323
 142d984:	10afa004 	addi	r2,r2,-16768
 142d988:	10002626 	beq	r2,zero,142da24 <__register_exitproc+0x110>
 142d98c:	01006404 	movi	r4,400
 142d990:	d9400015 	stw	r5,0(sp)
 142d994:	d9800115 	stw	r6,4(sp)
 142d998:	d9c00215 	stw	r7,8(sp)
 142d99c:	142be800 	call	142be80 <malloc>
 142d9a0:	d9400017 	ldw	r5,0(sp)
 142d9a4:	d9800117 	ldw	r6,4(sp)
 142d9a8:	d9c00217 	ldw	r7,8(sp)
 142d9ac:	10001d26 	beq	r2,zero,142da24 <__register_exitproc+0x110>
 142d9b0:	81000017 	ldw	r4,0(r16)
 142d9b4:	10000115 	stw	zero,4(r2)
 142d9b8:	02000044 	movi	r8,1
 142d9bc:	22405217 	ldw	r9,328(r4)
 142d9c0:	0007883a 	mov	r3,zero
 142d9c4:	12400015 	stw	r9,0(r2)
 142d9c8:	20805215 	stw	r2,328(r4)
 142d9cc:	10006215 	stw	zero,392(r2)
 142d9d0:	10006315 	stw	zero,396(r2)
 142d9d4:	883fde26 	beq	r17,zero,142d950 <__alt_data_end+0xfffed950>
 142d9d8:	18c9883a 	add	r4,r3,r3
 142d9dc:	2109883a 	add	r4,r4,r4
 142d9e0:	1109883a 	add	r4,r2,r4
 142d9e4:	21802215 	stw	r6,136(r4)
 142d9e8:	01800044 	movi	r6,1
 142d9ec:	12406217 	ldw	r9,392(r2)
 142d9f0:	30cc983a 	sll	r6,r6,r3
 142d9f4:	4992b03a 	or	r9,r9,r6
 142d9f8:	12406215 	stw	r9,392(r2)
 142d9fc:	21c04215 	stw	r7,264(r4)
 142da00:	01000084 	movi	r4,2
 142da04:	893fd21e 	bne	r17,r4,142d950 <__alt_data_end+0xfffed950>
 142da08:	11006317 	ldw	r4,396(r2)
 142da0c:	218cb03a 	or	r6,r4,r6
 142da10:	11806315 	stw	r6,396(r2)
 142da14:	003fce06 	br	142d950 <__alt_data_end+0xfffed950>
 142da18:	18805304 	addi	r2,r3,332
 142da1c:	18805215 	stw	r2,328(r3)
 142da20:	003fc606 	br	142d93c <__alt_data_end+0xfffed93c>
 142da24:	00bfffc4 	movi	r2,-1
 142da28:	003fd006 	br	142d96c <__alt_data_end+0xfffed96c>

0142da2c <__call_exitprocs>:
 142da2c:	defff504 	addi	sp,sp,-44
 142da30:	df000915 	stw	fp,36(sp)
 142da34:	dd400615 	stw	r21,24(sp)
 142da38:	dc800315 	stw	r18,12(sp)
 142da3c:	dfc00a15 	stw	ra,40(sp)
 142da40:	ddc00815 	stw	r23,32(sp)
 142da44:	dd800715 	stw	r22,28(sp)
 142da48:	dd000515 	stw	r20,20(sp)
 142da4c:	dcc00415 	stw	r19,16(sp)
 142da50:	dc400215 	stw	r17,8(sp)
 142da54:	dc000115 	stw	r16,4(sp)
 142da58:	d9000015 	stw	r4,0(sp)
 142da5c:	2839883a 	mov	fp,r5
 142da60:	04800044 	movi	r18,1
 142da64:	057fffc4 	movi	r21,-1
 142da68:	008050f4 	movhi	r2,323
 142da6c:	10ba8304 	addi	r2,r2,-5620
 142da70:	12000017 	ldw	r8,0(r2)
 142da74:	45005217 	ldw	r20,328(r8)
 142da78:	44c05204 	addi	r19,r8,328
 142da7c:	a0001c26 	beq	r20,zero,142daf0 <__call_exitprocs+0xc4>
 142da80:	a0800117 	ldw	r2,4(r20)
 142da84:	15ffffc4 	addi	r23,r2,-1
 142da88:	b8000d16 	blt	r23,zero,142dac0 <__call_exitprocs+0x94>
 142da8c:	14000044 	addi	r16,r2,1
 142da90:	8421883a 	add	r16,r16,r16
 142da94:	8421883a 	add	r16,r16,r16
 142da98:	84402004 	addi	r17,r16,128
 142da9c:	a463883a 	add	r17,r20,r17
 142daa0:	a421883a 	add	r16,r20,r16
 142daa4:	e0001e26 	beq	fp,zero,142db20 <__call_exitprocs+0xf4>
 142daa8:	80804017 	ldw	r2,256(r16)
 142daac:	e0801c26 	beq	fp,r2,142db20 <__call_exitprocs+0xf4>
 142dab0:	bdffffc4 	addi	r23,r23,-1
 142dab4:	843fff04 	addi	r16,r16,-4
 142dab8:	8c7fff04 	addi	r17,r17,-4
 142dabc:	bd7ff91e 	bne	r23,r21,142daa4 <__alt_data_end+0xfffedaa4>
 142dac0:	008050f4 	movhi	r2,323
 142dac4:	10afa504 	addi	r2,r2,-16748
 142dac8:	10000926 	beq	r2,zero,142daf0 <__call_exitprocs+0xc4>
 142dacc:	a0800117 	ldw	r2,4(r20)
 142dad0:	1000301e 	bne	r2,zero,142db94 <__call_exitprocs+0x168>
 142dad4:	a0800017 	ldw	r2,0(r20)
 142dad8:	10003226 	beq	r2,zero,142dba4 <__call_exitprocs+0x178>
 142dadc:	a009883a 	mov	r4,r20
 142dae0:	98800015 	stw	r2,0(r19)
 142dae4:	142be940 	call	142be94 <free>
 142dae8:	9d000017 	ldw	r20,0(r19)
 142daec:	a03fe41e 	bne	r20,zero,142da80 <__alt_data_end+0xfffeda80>
 142daf0:	dfc00a17 	ldw	ra,40(sp)
 142daf4:	df000917 	ldw	fp,36(sp)
 142daf8:	ddc00817 	ldw	r23,32(sp)
 142dafc:	dd800717 	ldw	r22,28(sp)
 142db00:	dd400617 	ldw	r21,24(sp)
 142db04:	dd000517 	ldw	r20,20(sp)
 142db08:	dcc00417 	ldw	r19,16(sp)
 142db0c:	dc800317 	ldw	r18,12(sp)
 142db10:	dc400217 	ldw	r17,8(sp)
 142db14:	dc000117 	ldw	r16,4(sp)
 142db18:	dec00b04 	addi	sp,sp,44
 142db1c:	f800283a 	ret
 142db20:	a0800117 	ldw	r2,4(r20)
 142db24:	80c00017 	ldw	r3,0(r16)
 142db28:	10bfffc4 	addi	r2,r2,-1
 142db2c:	15c01426 	beq	r2,r23,142db80 <__call_exitprocs+0x154>
 142db30:	80000015 	stw	zero,0(r16)
 142db34:	183fde26 	beq	r3,zero,142dab0 <__alt_data_end+0xfffedab0>
 142db38:	95c8983a 	sll	r4,r18,r23
 142db3c:	a0806217 	ldw	r2,392(r20)
 142db40:	a5800117 	ldw	r22,4(r20)
 142db44:	2084703a 	and	r2,r4,r2
 142db48:	10000b26 	beq	r2,zero,142db78 <__call_exitprocs+0x14c>
 142db4c:	a0806317 	ldw	r2,396(r20)
 142db50:	2088703a 	and	r4,r4,r2
 142db54:	20000c1e 	bne	r4,zero,142db88 <__call_exitprocs+0x15c>
 142db58:	89400017 	ldw	r5,0(r17)
 142db5c:	d9000017 	ldw	r4,0(sp)
 142db60:	183ee83a 	callr	r3
 142db64:	a0800117 	ldw	r2,4(r20)
 142db68:	15bfbf1e 	bne	r2,r22,142da68 <__alt_data_end+0xfffeda68>
 142db6c:	98800017 	ldw	r2,0(r19)
 142db70:	153fcf26 	beq	r2,r20,142dab0 <__alt_data_end+0xfffedab0>
 142db74:	003fbc06 	br	142da68 <__alt_data_end+0xfffeda68>
 142db78:	183ee83a 	callr	r3
 142db7c:	003ff906 	br	142db64 <__alt_data_end+0xfffedb64>
 142db80:	a5c00115 	stw	r23,4(r20)
 142db84:	003feb06 	br	142db34 <__alt_data_end+0xfffedb34>
 142db88:	89000017 	ldw	r4,0(r17)
 142db8c:	183ee83a 	callr	r3
 142db90:	003ff406 	br	142db64 <__alt_data_end+0xfffedb64>
 142db94:	a0800017 	ldw	r2,0(r20)
 142db98:	a027883a 	mov	r19,r20
 142db9c:	1029883a 	mov	r20,r2
 142dba0:	003fb606 	br	142da7c <__alt_data_end+0xfffeda7c>
 142dba4:	0005883a 	mov	r2,zero
 142dba8:	003ffb06 	br	142db98 <__alt_data_end+0xfffedb98>
 142dbac:	0401ffff 	0x401ffff
 142dbb0:	00010000 	call	1000 <__alt_mem_onchip_flash_0_data-0x11ff000>
 142dbb4:	010d0bff 	0x10d0bff
 142dbb8:	01010002 	0x1010002
	...
 142dbc4:	010d0bff 	0x10d0bff
 142dbc8:	01010004 	movi	r4,1024
 142dbcc:	00000100 	call	10 <__alt_mem_onchip_flash_0_data-0x11ffff0>
 142dbd0:	00000000 	call	0 <__alt_mem_onchip_flash_0_data-0x1200000>
 142dbd4:	01110bff 	0x1110bff
 142dbd8:	01010004 	movi	r4,1024
 142dbdc:	7f000105 	stb	fp,4(r15)
 142dbe0:	007d0000 	call	7d000 <__alt_mem_onchip_flash_0_data-0x1183000>
 142dbe4:	00000000 	call	0 <__alt_mem_onchip_flash_0_data-0x1200000>
 142dbe8:	01883a00 	call	1883a0 <__alt_mem_onchip_flash_0_data-0x1077c60>
 142dbec:	01423190 	cmplti	r5,zero,2246
 142dbf0:	01423854 	movui	r5,2273
 142dbf4:	0142731c 	xori	r5,zero,2508
 142dbf8:	014231c0 	call	14231c <__alt_mem_onchip_flash_0_data-0x10bdce4>
 142dbfc:	01423884 	movi	r5,2274
